(dp1
S'output'
p2
S"<type 'exceptions.RuntimeError'> "
p3
sS'layer'
p4
S'C:\\Python27\\web2py\\applications\\admin\\controllers/wizard.py'
p5
sS'code'
p6
S'# -*- coding: utf-8 -*-\n\nimport os\nimport uuid\nimport re\nimport pickle\nimport urllib\nimport glob\nfrom gluon.admin import app_create, plugin_install\nfrom gluon.fileutils import abspath, read_file, write_file\n\n\ndef reset(session):\n    session.app = {\n        \'name\': \'\',\n        \'params\': [(\'title\', \'My New App\'),\n                   (\'subtitle\', \'powered by web2py\'),\n                   (\'author\', \'you\'),\n                   (\'author_email\', \'you@example.com\'),\n                   (\'keywords\', \'\'),\n                   (\'description\', \'\'),\n                   (\'layout_theme\', \'Default\'),\n                   (\'database_uri\', \'sqlite://storage.sqlite\'),\n                   (\'security_key\', str(uuid.uuid4())),\n                   (\'email_server\', \'localhost\'),\n                   (\'email_sender\', \'you@example.com\'),\n                   (\'email_login\', \'\'),\n                   (\'login_method\', \'local\'),\n                   (\'login_config\', \'\'),\n                   (\'plugins\', [])],\n        \'tables\': [\'auth_user\'],\n        \'table_auth_user\': [\'username\', \'first_name\',\n                            \'last_name\', \'email\', \'password\'],\n        \'pages\': [\'index\', \'error\'],\n        \'page_index\': \'# Welcome to my new app\',\n        \'page_error\': \'# Error: the document does not exist\',\n    }\n\nif not session.app:\n    reset(session)\n\n\ndef listify(x):\n    if not isinstance(x, (list, tuple)):\n        return x and [x] or []\n    return x\n\n\ndef clean(name):\n    return re.sub(\'\\W+\', \'_\', name.strip().lower())\n\n\ndef index():\n    response.view = \'wizard/step.html\'\n    reset(session)\n    apps = os.listdir(os.path.join(request.folder, \'..\'))\n    form = SQLFORM.factory(Field(\'name\', requires=[IS_NOT_EMPTY(),\n                                                   IS_ALPHANUMERIC()]))\n    if form.accepts(request.vars):\n        app = form.vars.name\n        session.app[\'name\'] = app\n        if MULTI_USER_MODE and db(db.app.name == app)(db.app.owner != auth.user.id).count():\n            session.flash = \'App belongs already to other user\'\n        elif app in apps:\n            meta = os.path.normpath(\n                os.path.join(os.path.normpath(request.folder),\n                             \'..\', app, \'wizard.metadata\'))\n            if os.path.exists(meta):\n                try:\n                    metafile = open(meta, \'rb\')\n                    try:\n                        session.app = pickle.load(metafile)\n                    finally:\n                        metafile.close()\n                    session.flash = T("The app exists, was created by wizard, continue to overwrite!")\n                except:\n                    session.flash = T("The app exists, was NOT created by wizard, continue to overwrite!")\n        redirect(URL(\'step1\'))\n    return dict(step=\'Start\', form=form)\n\n\ndef step1():\n    from gluon.contrib.simplejson import loads\n    import urllib\n    if not session.themes:\n        url = LAYOUTS_APP + \'/default/layouts.json\'\n        try:\n            data = urllib.urlopen(url).read()\n            session.themes = [\'Default\'] + loads(data)[\'layouts\']\n        except:\n            session.themes = [\'Default\']\n    themes = session.themes\n    if not session.plugins:\n        url = PLUGINS_APP + \'/default/plugins.json\'\n        try:\n            data = urllib.urlopen(url).read()\n            session.plugins = loads(data)[\'plugins\']\n        except:\n            session.plugins = []\n    plugins = [x.split(\'.\')[2] for x in session.plugins]\n    response.view = \'wizard/step.html\'\n    params = dict(session.app[\'params\'])\n    form = SQLFORM.factory(\n        Field(\'title\', default=params.get(\'title\', None),\n              requires=IS_NOT_EMPTY()),\n        Field(\'subtitle\', default=params.get(\'subtitle\', None)),\n        Field(\'author\', default=params.get(\'author\', None)),\n        Field(\n            \'author_email\', default=params.get(\'author_email\', None)),\n        Field(\'keywords\', default=params.get(\'keywords\', None)),\n        Field(\'description\', \'text\',\n              default=params.get(\'description\', None)),\n        Field(\'layout_theme\', requires=IS_IN_SET(themes),\n              default=params.get(\'layout_theme\', themes[0])),\n        Field(\n            \'database_uri\', default=params.get(\'database_uri\', None)),\n        Field(\n            \'security_key\', default=params.get(\'security_key\', None)),\n        Field(\n            \'email_server\', default=params.get(\'email_server\', None)),\n        Field(\n            \'email_sender\', default=params.get(\'email_sender\', None)),\n        Field(\'email_login\', default=params.get(\'email_login\', None)),\n        Field(\'login_method\', requires=IS_IN_SET((\'local\', \'janrain\')),\n              default=params.get(\'login_method\', \'local\')),\n        Field(\n            \'login_config\', default=params.get(\'login_config\', None)),\n        Field(\'plugins\', \'list:string\', requires=IS_IN_SET(plugins, multiple=True)))\n\n    if form.accepts(request.vars):\n        session.app[\'params\'] = [(key, form.vars.get(key, None))\n                                 for key, value in session.app[\'params\']]\n        redirect(URL(\'step2\'))\n    return dict(step=\'1: Setting Parameters\', form=form)\n\n\ndef step2():\n    response.view = \'wizard/step.html\'\n    form = SQLFORM.factory(Field(\'table_names\', \'list:string\',\n                                 default=session.app[\'tables\']))\n    if form.accepts(request.vars):\n        table_names = [clean(t) for t in listify(form.vars.table_names)\n                       if t.strip()]\n        if [t for t in table_names if t.startswith(\'auth_\') and\n                not t == \'auth_user\']:\n            form.error.table_names = \\\n                T(\'invalid table names (auth_* tables already defined)\')\n        else:\n            session.app[\'tables\'] = table_names\n            for table in session.app[\'tables\']:\n                if not \'table_\' + table in session.app:\n                    session.app[\'table_\' + table] = [\'name\']\n                if not table == \'auth_user\':\n                    name = table + \'_manage\'\n                    if not name in session.app[\'pages\']:\n                        session.app[\'pages\'].append(name)\n                        session.app[\'page_\' + name] = \\\n                            \'## Manage %s\\n\\n{{=form}}\' % (table)\n            if session.app[\'tables\']:\n                redirect(URL(\'step3\', args=0))\n            else:\n                redirect(URL(\'step4\'))\n    return dict(step=\'2: Tables\', form=form)\n\n\ndef step3():\n    response.view = \'wizard/step.html\'\n    n = int(request.args(0) or 0)\n    m = len(session.app[\'tables\'])\n    if n >= m:\n        redirect(URL(\'step2\'))\n    table = session.app[\'tables\'][n]\n    form = SQLFORM.factory(Field(\'field_names\', \'list:string\',\n                                 default=session.app.get(\'table_\' + table, [])))\n    if form.accepts(request.vars) and form.vars.field_names:\n        fields = listify(form.vars.field_names)\n        if table == \'auth_user\':\n            for field in [\'first_name\', \'last_name\', \'username\', \'email\', \'password\']:\n                if not field in fields:\n                    fields.append(field)\n        session.app[\'table_\' + table] = [t.strip().lower()\n                                         for t in listify(form.vars.field_names)\n                                         if t.strip()]\n        try:\n            tables = sort_tables(session.app[\'tables\'])\n        except RuntimeError:\n            response.flash = T(\'invalid circular reference\')\n        else:\n            if n < m - 1:\n                redirect(URL(\'step3\', args=n + 1))\n            else:\n                redirect(URL(\'step4\'))\n    return dict(step=\'3: Fields for table "%s" (%s of %s)\'\n                % (table, n + 1, m), table=table, form=form)\n\n\ndef step4():\n    response.view = \'wizard/step.html\'\n    form = SQLFORM.factory(Field(\'pages\', \'list:string\',\n                                 default=session.app[\'pages\']))\n    if form.accepts(request.vars):\n        session.app[\'pages\'] = [clean(t)\n                                for t in listify(form.vars.pages)\n                                if t.strip()]\n        if session.app[\'pages\']:\n            redirect(URL(\'step5\', args=0))\n        else:\n            redirect(URL(\'step6\'))\n    return dict(step=\'4: Pages\', form=form)\n\n\ndef step5():\n    response.view = \'wizard/step.html\'\n    n = int(request.args(0) or 0)\n    m = len(session.app[\'pages\'])\n    if n >= m:\n        redirect(URL(\'step4\'))\n    page = session.app[\'pages\'][n]\n    markmin_url = \'http://web2py.com/examples/static/markmin.html\'\n    form = SQLFORM.factory(Field(\'content\', \'text\',\n                                 default=session.app.get(\'page_\' + page, []),\n                                 comment=A(\'use markmin\',\n                                           _href=markmin_url, _target=\'_blank\')),\n                           formstyle=\'table2cols\')\n    if form.accepts(request.vars):\n        session.app[\'page_\' + page] = form.vars.content\n        if n < m - 1:\n            redirect(URL(\'step5\', args=n + 1))\n        else:\n            redirect(URL(\'step6\'))\n    return dict(step=\'5: View for page "%s" (%s of %s)\' % (page, n + 1, m), form=form)\n\n\ndef step6():\n    response.view = \'wizard/step.html\'\n    params = dict(session.app[\'params\'])\n    app = session.app[\'name\']\n    form = SQLFORM.factory(\n        Field(\'generate_model\', \'boolean\', default=True),\n        Field(\'generate_controller\', \'boolean\', default=True),\n        Field(\'generate_views\', \'boolean\', default=True),\n        Field(\'generate_menu\', \'boolean\', default=True),\n        Field(\'apply_layout\', \'boolean\', default=True),\n        Field(\'erase_database\', \'boolean\', default=True),\n        Field(\'populate_database\', \'boolean\', default=True))\n    if form.accepts(request.vars):\n        if DEMO_MODE:\n            session.flash = T(\'Application cannot be generated in demo mode\')\n            redirect(URL(\'index\'))\n        create(form.vars)\n        session.flash = \'Application %s created\' % app\n        redirect(URL(\'generated\'))\n    return dict(step=\'6: Generate app "%s"\' % app, form=form)\n\n\ndef generated():\n    return dict(app=session.app[\'name\'])\n\n\ndef sort_tables(tables):\n    import re\n    regex = re.compile(\'(%s)\' % \'|\'.join(tables))\n    is_auth_user = \'auth_user\' in tables\n    d = {}\n    for table in tables:\n        d[table] = []\n        for field in session.app[\'table_%s\' % table]:\n            d[table] += regex.findall(field)\n    tables = []\n    if is_auth_user:\n        tables.append(\'auth_user\')\n\n    def append(table, trail=[]):\n        if table in trail:\n            raise RuntimeError\n        for t in d[table]:\n            # if not t==table: (problem, no dropdown for self references)\n            append(t, trail=trail + [table])\n        if not table in tables:\n            tables.append(table)\n    for table in d:\n        append(table)\n    return tables\n\n\ndef make_table(table, fields):\n    rawtable = table\n    if table != \'auth_user\':\n        table = \'t_\' + table\n    s = \'\'\n    s += \'\\n\' + \'#\' * 40 + \'\\n\'\n    s += "db.define_table(\'%s\',\\n" % table\n    first_field = \'id\'\n    for field in fields:\n        items = [x.lower() for x in field.split()]\n        has = {}\n        keys = []\n        for key in [\'notnull\', \'unique\', \'integer\', \'double\', \'boolean\', \'float\',\n                    \'boolean\', \'date\', \'time\', \'datetime\', \'text\', \'wiki\',\n                    \'html\', \'file\', \'upload\', \'image\', \'true\',\n                    \'hidden\', \'readonly\', \'writeonly\', \'multiple\',\n                    \'notempty\', \'required\']:\n            if key in items[1:]:\n                keys.append(key)\n                has[key] = True\n        tables = session.app[\'tables\']\n        refs = [t for t in tables if t in items]\n        items = items[:1] + [x for x in items[1:]\n                             if not x in keys and not x in tables]\n        barename = name = \'_\'.join(items)\n        if table[:2] == \'t_\': name = \'f_\' + name\n        if first_field == \'id\':\n            first_field = name\n\n        ### determine field type\n        ftype = \'string\'\n        deftypes = {\'integer\': \'integer\', \'double\': \'double\', \'boolean\': \'boolean\',\n                    \'float\': \'double\', \'bool\': \'boolean\',\n                    \'date\': \'date\', \'time\': \'time\', \'datetime\': \'datetime\',\n                    \'text\': \'text\', \'file\': \'upload\', \'image\': \'upload\',\n                    \'upload\': \'upload\', \'wiki\': \'text\', \'html\': \'text\'}\n        for key, t in deftypes.items():\n            if key in has:\n                ftype = t\n        if refs:\n            key = refs[0]\n            if not key == \'auth_user\':\n                key = \'t_\' + key\n            if \'multiple\' in has:\n                ftype = \'list:reference %s\' % key\n            else:\n                ftype = \'reference %s\' % key\n        if ftype == \'string\' and \'multiple\' in has:\n            ftype = \'list:string\'\n        elif ftype == \'integer\' and \'multiple\' in has:\n            ftype = \'list:integer\'\n        elif name == \'password\':\n            ftype = \'password\'\n        s += "    Field(\'%s\', type=\'%s\'" % (name, ftype)\n\n        ### determine field attributes\n        if \'notnull\' in has or \'notempty\' in has or \'required\' in has:\n            s += \', notnull=True\'\n        if \'unique\' in has:\n            s += \', unique=True\'\n        if ftype == \'boolean\' and \'true\' in has:\n            s += ",\\n          default=True"\n\n        ### determine field representation\n        elif \'wiki\' in has:\n            s += ",\\n          represent=lambda x, row: MARKMIN(x)"\n            s += ",\\n          comment=\'WIKI (markmin)\'"\n        elif \'html\' in has:\n            s += ",\\n          represent=lambda x, row: XML(x,sanitize=True)"\n            s += ",\\n          comment=\'HTML (sanitized)\'"\n        ### determine field access\n        if name == \'password\' or \'writeonly\' in has:\n            s += ",\\n          readable=False"\n        elif \'hidden\' in has:\n            s += ",\\n          writable=False, readable=False"\n        elif \'readonly\' in has:\n            s += ",\\n          writable=False"\n\n        ### make up a label\n        s += ",\\n          label=T(\'%s\')),\\n" % \\\n            \' \'.join(x.capitalize() for x in barename.split(\'_\'))\n    if table == \'auth_user\':\n        s += "    Field(\'created_on\',\'datetime\',default=request.now,\\n"\n        s += "          label=T(\'Created On\'),writable=False,readable=False),\\n"\n        s += "    Field(\'modified_on\',\'datetime\',default=request.now,\\n"\n        s += "          label=T(\'Modified On\'),writable=False,readable=False,\\n"\n        s += "          update=request.now),\\n"\n        s += "    Field(\'registration_key\',default=\'\',\\n"\n        s += "          writable=False,readable=False),\\n"\n        s += "    Field(\'reset_password_key\',default=\'\',\\n"\n        s += "          writable=False,readable=False),\\n"\n        s += "    Field(\'registration_id\',default=\'\',\\n"\n        s += "          writable=False,readable=False),\\n"\n    elif \'auth_user\' in session.app[\'tables\']:\n        s += "    auth.signature,\\n"\n    s += "    format=\'%(" + first_field + ")s\',\\n"\n    s += "    migrate=settings.migrate)\\n\\n"\n    if table == \'auth_user\':\n        s += """\ndb.auth_user.first_name.requires = IS_NOT_EMPTY(\n    error_message=auth.messages.is_empty)\ndb.auth_user.last_name.requires = IS_NOT_EMPTY(\n    error_message=auth.messages.is_empty)\ndb.auth_user.password.requires = CRYPT(\n    key=auth.settings.hmac_key, min_length=4)\ndb.auth_user.username.requires = IS_NOT_IN_DB(db, db.auth_user.username)\ndb.auth_user.email.requires = (\n    IS_EMAIL(error_message=auth.messages.invalid_email),\n                               IS_NOT_IN_DB(db, db.auth_user.email))\n"""\n    else:\n        s += "db.define_table(\'%s_archive\',db.%s,Field(\'current_record\',\'reference %s\',readable=False,writable=False))\\n" % (table, table, table)\n    return s\n\n\ndef fix_db(filename):\n    params = dict(session.app[\'params\'])\n    content = read_file(filename, \'rb\')\n    if \'auth_user\' in session.app[\'tables\']:\n        auth_user = make_table(\'auth_user\', session.app[\'table_auth_user\'])\n        content = content.replace(\'sqlite://storage.sqlite\',\n                                  params[\'database_uri\'])\n        content = content.replace(\'auth.define_tables()\',\n                                  auth_user + \'auth.define_tables(migrate = settings.migrate)\')\n    content += """\nmail.settings.server = settings.email_server\nmail.settings.sender = settings.email_sender\nmail.settings.login = settings.email_login\n"""\n    if params[\'login_method\'] == \'janrain\':\n        content += """\nfrom gluon.contrib.login_methods.rpx_account import RPXAccount\nauth.settings.actions_disabled=[\'register\',\'change_password\',\n    \'request_reset_password\']\nauth.settings.login_form = RPXAccount(request,\n    api_key = settings.login_config.split(\':\')[-1],\n    domain = settings.login_config.split(\':\')[0],\n    url = "http://%s/%s/default/user/login" % (request.env.http_host,request.application))\n"""\n    write_file(filename, content, \'wb\')\n\n\ndef make_menu(pages):\n    s = \'\'\n    s += \'response.title = settings.title\\n\'\n    s += \'response.subtitle = settings.subtitle\\n\'\n    s += "response.meta.author = \'%(author)s <%(author_email)s>\' % settings\\n"\n    s += \'response.meta.keywords = settings.keywords\\n\'\n    s += \'response.meta.description = settings.description\\n\'\n    s += \'response.menu = [\\n\'\n    for page in pages:\n        if not page.startswith(\'error\'):\n            if page.endswith(\'_manage\'):\n                page_name = page[:-7]\n            else:\n                page_name = page\n            page_name = \' \'.join(x.capitalize() for x in page_name.split(\'_\'))\n            s += "(T(\'%s\'),URL(\'default\',\'%s\')==URL(),URL(\'default\',\'%s\'),[]),\\n" \\\n                % (page_name, page, page)\n    s += \']\'\n    return s\n\n\ndef make_page(page, contents):\n    if \'auth_user\' in session.app[\'tables\'] and not page in (\'index\', \'error\'):\n        s = "@auth.requires_login()\\ndef %s():\\n" % page\n    else:\n        s = "def %s():\\n" % page\n    items = page.rsplit(\'_\', 1)\n    if items[0] in session.app[\'tables\'] and len(items) == 2 and items[1] == \'manage\':\n        s += "    form = SQLFORM.smartgrid(db.t_%s,onupdate=auth.archive)\\n" % items[0]\n        s += "    return locals()\\n\\n"\n    else:\n        s += "    return dict()\\n\\n"\n    return s\n\n\ndef make_view(page, contents):\n    s = "{{extend \'layout.html\'}}\\n\\n"\n    s += str(MARKMIN(contents))\n    return s\n\n\ndef populate(tables):\n    s = \'from gluon.contrib.populate import populate\\n\'\n    s += \'if db(db.auth_user).isempty():\\n\'\n    for table in sort_tables(tables):\n        t = table == \'auth_user\' and \'auth_user\' or \'t_\' + table\n        s += "     populate(db.%s,10)\\n" % t\n    return s\n\n\ndef create(options):\n    if DEMO_MODE:\n        session.flash = T(\'disabled in demo mode\')\n        redirect(URL(\'step6\'))\n    params = dict(session.app[\'params\'])\n    app = session.app[\'name\']\n    if app_create(app, request, force=True, key=params[\'security_key\']):\n        if MULTI_USER_MODE:\n            db.app.insert(name=app, owner=auth.user.id)\n    else:\n        session.flash = \'Failure to create application\'\n        redirect(URL(\'step6\'))\n\n    ### save metadata in newapp/wizard.metadata\n    try:\n        meta = os.path.join(request.folder, \'..\', app, \'wizard.metadata\')\n        file = open(meta, \'wb\')\n        pickle.dump(session.app, file)\n        file.close()\n    except IOError:\n        session.flash = \'Failure to write wizard metadata\'\n        redirect(URL(\'step6\'))\n\n    ### apply theme\n    if options.apply_layout and params[\'layout_theme\'] != \'Default\':\n        try:\n            fn = \'web2py.plugin.layout_%s.w2p\' % params[\'layout_theme\']\n            theme = urllib.urlopen(\n                LAYOUTS_APP + \'/static/plugin_layouts/plugins/\' + fn)\n            plugin_install(app, theme, request, fn)\n        except:\n            session.flash = T("unable to download layout")\n\n    ### apply plugins\n    for plugin in params[\'plugins\']:\n        try:\n            plugin_name = \'web2py.plugin.\' + plugin + \'.w2p\'\n            stream = urllib.urlopen(PLUGINS_APP + \'/static/\' + plugin_name)\n            plugin_install(app, stream, request, plugin_name)\n        except Exception, e:\n            session.flash = T("unable to download plugin: %s" % plugin)\n\n    ### write configuration file into newapp/models/0.py\n    model = os.path.join(request.folder, \'..\', app, \'models\', \'0.py\')\n    file = open(model, \'wb\')\n    try:\n        file.write("from gluon.storage import Storage\\n")\n        file.write("settings = Storage()\\n\\n")\n        file.write("settings.migrate = True\\n")\n        for key, value in session.app[\'params\']:\n            file.write("settings.%s = %s\\n" % (key, repr(value)))\n    finally:\n        file.close()\n\n    ### write configuration file into newapp/models/menu.py\n    if options.generate_menu:\n        model = os.path.join(request.folder, \'..\', app, \'models\', \'menu.py\')\n        file = open(model, \'wb\')\n        try:\n            file.write(make_menu(session.app[\'pages\']))\n        finally:\n            file.close()\n\n    ### customize the auth_user table\n    model = os.path.join(request.folder, \'..\', app, \'models\', \'db.py\')\n    fix_db(model)\n\n    ### create newapp/models/db_wizard.py\n    if options.generate_model:\n        model = os.path.join(\n            request.folder, \'..\', app, \'models\', \'db_wizard.py\')\n        file = open(model, \'wb\')\n        try:\n            file.write(\'### we prepend t_ to tablenames and f_ to fieldnames for disambiguity\\n\\n\')\n            tables = sort_tables(session.app[\'tables\'])\n            for table in tables:\n                if table == \'auth_user\':\n                    continue\n                file.write(make_table(table, session.app[\'table_\' + table]))\n        finally:\n            file.close()\n\n    model = os.path.join(request.folder, \'..\', app,\n                         \'models\', \'db_wizard_populate.py\')\n    if os.path.exists(model):\n        os.unlink(model)\n    if options.populate_database and session.app[\'tables\']:\n        file = open(model, \'wb\')\n        try:\n            file.write(populate(session.app[\'tables\']))\n        finally:\n            file.close()\n\n    ### create newapp/controllers/default.py\n    if options.generate_controller:\n        controller = os.path.join(\n            request.folder, \'..\', app, \'controllers\', \'default.py\')\n        file = open(controller, \'wb\')\n        try:\n            file.write("""# -*- coding: utf-8 -*-\n### required - do no delete\ndef user(): return dict(form=auth())\ndef download(): return response.download(request,db)\ndef call(): return service()\n### end requires\n""")\n            for page in session.app[\'pages\']:\n                file.write(\n                    make_page(page, session.app.get(\'page_\' + page, \'\')))\n        finally:\n            file.close()\n\n    ### create newapp/views/default/*.html\n    if options.generate_views:\n        for page in session.app[\'pages\']:\n            view = os.path.join(\n                request.folder, \'..\', app, \'views\', \'default\', page + \'.html\')\n            file = open(view, \'wb\')\n            try:\n                file.write(\n                    make_view(page, session.app.get(\'page_\' + page, \'\')))\n            finally:\n                file.close()\n\n    if options.erase_database:\n        path = os.path.join(request.folder, \'..\', app, \'databases\', \'*\')\n        for file in glob.glob(path):\n            os.unlink(file)\n\nresponse._vars=response._caller(step6)\n'
p7
sS'snapshot'
p8
(dp9
S'exception'
p10
(dp11
S'__hash__'
p12
S"<method-wrapper '__hash__' of exceptions.RuntimeError object>"
p13
sS'__setattr__'
p14
S"<method-wrapper '__setattr__' of exceptions.RuntimeError object>"
p15
sS'__reduce_ex__'
p16
S'<built-in method __reduce_ex__ of exceptions.RuntimeError object>'
p17
sS'__getslice__'
p18
S"<method-wrapper '__getslice__' of exceptions.RuntimeError object>"
p19
sS'__getitem__'
p20
S"<method-wrapper '__getitem__' of exceptions.RuntimeError object>"
p21
sS'__setstate__'
p22
S'<built-in method __setstate__ of exceptions.RuntimeError object>'
p23
sS'__reduce__'
p24
S'<built-in method __reduce__ of exceptions.RuntimeError object>'
p25
sS'__str__'
p26
S"<method-wrapper '__str__' of exceptions.RuntimeError object>"
p27
sS'__format__'
p28
S'<built-in method __format__ of exceptions.RuntimeError object>'
p29
sS'__getattribute__'
p30
S"<method-wrapper '__getattribute__' of exceptions.RuntimeError object>"
p31
sS'__class__'
p32
S"<type 'exceptions.RuntimeError'>"
p33
sS'__unicode__'
p34
S'<built-in method __unicode__ of exceptions.RuntimeError object>'
p35
sS'__delattr__'
p36
S"<method-wrapper '__delattr__' of exceptions.RuntimeError object>"
p37
sS'__subclasshook__'
p38
S'<built-in method __subclasshook__ of type object>'
p39
sS'__repr__'
p40
S"<method-wrapper '__repr__' of exceptions.RuntimeError object>"
p41
sS'args'
p42
S'()'
p43
sS'__dict__'
p44
S'{}'
p45
sS'__sizeof__'
p46
S'<built-in method __sizeof__ of exceptions.RuntimeError object>'
p47
sS'__doc__'
p48
S"'Unspecified run-time error.'"
p49
sS'__init__'
p50
S"<method-wrapper '__init__' of exceptions.RuntimeError object>"
p51
sS'__new__'
p52
S'<built-in method __new__ of type object>'
p53
ssS'evalue'
p54
S''
sS'request'
p55
ccopy_reg
_reconstructor
p56
(cgluon.html
BEAUTIFY
p57
c__builtin__
object
p58
NtRp59
(dp60
S'attributes'
p61
(dp62
sS'components'
p63
(lp64
g56
(cgluon.html
TABLE
p65
g58
NtRp66
(dp67
g61
(dp68
S'level'
p69
I5
ssS'parent'
p70
Nsg63
(lp71
g56
(cgluon.html
TR
p72
g58
NtRp73
(dp74
g61
(dp75
sg70
g66
sg63
(lp76
g56
(cgluon.html
TD
p77
g58
NtRp78
(dp79
g61
(dp80
S'_style'
p81
S'font-weight:bold;vertical-align:top'
p82
ssg70
g73
sg63
(lp83
S'ajax'
p84
asbag56
(g77
g58
NtRp85
(dp86
g61
(dp87
S'_valign'
p88
S'top'
p89
ssg70
g73
sg63
(lp90
S':'
asbag56
(g77
g58
NtRp91
(dp92
g61
(dp93
sg70
g73
sg63
(lp94
g56
(g57
g58
NtRp95
(dp96
g61
(dp97
g69
I5
ssg70
g91
sg63
(lp98
S'False'
p99
asbasbasbag56
(g72
g58
NtRp100
(dp101
g61
(dp102
sg70
g66
sg63
(lp103
g56
(g77
g58
NtRp104
(dp105
g61
(dp106
g81
g82
ssg70
g100
sg63
(lp107
S'application'
p108
asbag56
(g77
g58
NtRp109
(dp110
g61
(dp111
g88
g89
ssg70
g100
sg63
(lp112
S':'
asbag56
(g77
g58
NtRp113
(dp114
g61
(dp115
sg70
g100
sg63
(lp116
g56
(g57
g58
NtRp117
(dp118
g61
(dp119
g69
I5
ssg70
g113
sg63
(lp120
S'admin'
p121
asbasbasbag56
(g72
g58
NtRp122
(dp123
g61
(dp124
sg70
g66
sg63
(lp125
g56
(g77
g58
NtRp126
(dp127
g61
(dp128
g81
g82
ssg70
g122
sg63
(lp129
g42
asbag56
(g77
g58
NtRp130
(dp131
g61
(dp132
g88
g89
ssg70
g122
sg63
(lp133
S':'
asbag56
(g77
g58
NtRp134
(dp135
g61
(dp136
sg70
g122
sg63
(lp137
g56
(g57
g58
NtRp138
(dp139
g61
(dp140
g69
I5
ssg70
g134
sg63
(lp141
g56
(g65
g58
NtRp142
(dp143
g61
(dp144
g69
I4
ssg70
Nsg63
(lp145
sbasbasbasbag56
(g72
g58
NtRp146
(dp147
g61
(dp148
sg70
g66
sg63
(lp149
g56
(g77
g58
NtRp150
(dp151
g61
(dp152
g81
g82
ssg70
g146
sg63
(lp153
S'body'
p154
asbag56
(g77
g58
NtRp155
(dp156
g61
(dp157
g88
g89
ssg70
g146
sg63
(lp158
S':'
asbag56
(g77
g58
NtRp159
(dp160
g61
(dp161
sg70
g146
sg63
(lp162
g56
(g57
g58
NtRp163
(dp164
g61
(dp165
g69
I5
ssg70
g159
sg63
(lp166
S"<open file '<fdopen>', mode 'w+b' at 0x059B2D30>"
p167
asbasbasbag56
(g72
g58
NtRp168
(dp169
g61
(dp170
sg70
g66
sg63
(lp171
g56
(g77
g58
NtRp172
(dp173
g61
(dp174
g81
g82
ssg70
g168
sg63
(lp175
S'cid'
p176
asbag56
(g77
g58
NtRp177
(dp178
g61
(dp179
g88
g89
ssg70
g168
sg63
(lp180
S':'
asbag56
(g77
g58
NtRp181
(dp182
g61
(dp183
sg70
g168
sg63
(lp184
g56
(g57
g58
NtRp185
(dp186
g61
(dp187
g69
I5
ssg70
g181
sg63
(lp188
S'None'
p189
asbasbasbag56
(g72
g58
NtRp190
(dp191
g61
(dp192
sg70
g66
sg63
(lp193
g56
(g77
g58
NtRp194
(dp195
g61
(dp196
g81
g82
ssg70
g190
sg63
(lp197
S'client'
p198
asbag56
(g77
g58
NtRp199
(dp200
g61
(dp201
g88
g89
ssg70
g190
sg63
(lp202
S':'
asbag56
(g77
g58
NtRp203
(dp204
g61
(dp205
sg70
g190
sg63
(lp206
g56
(g57
g58
NtRp207
(dp208
g61
(dp209
g69
I5
ssg70
g203
sg63
(lp210
S'127.0.0.1'
p211
asbasbasbag56
(g72
g58
NtRp212
(dp213
g61
(dp214
sg70
g66
sg63
(lp215
g56
(g77
g58
NtRp216
(dp217
g61
(dp218
g81
g82
ssg70
g212
sg63
(lp219
S'controller'
p220
asbag56
(g77
g58
NtRp221
(dp222
g61
(dp223
g88
g89
ssg70
g212
sg63
(lp224
S':'
asbag56
(g77
g58
NtRp225
(dp226
g61
(dp227
sg70
g212
sg63
(lp228
g56
(g57
g58
NtRp229
(dp230
g61
(dp231
g69
I5
ssg70
g225
sg63
(lp232
S'wizard'
p233
asbasbasbag56
(g72
g58
NtRp234
(dp235
g61
(dp236
sg70
g66
sg63
(lp237
g56
(g77
g58
NtRp238
(dp239
g61
(dp240
g81
g82
ssg70
g234
sg63
(lp241
S'cookies'
p242
asbag56
(g77
g58
NtRp243
(dp244
g61
(dp245
g88
g89
ssg70
g234
sg63
(lp246
S':'
asbag56
(g77
g58
NtRp247
(dp248
g61
(dp249
sg70
g234
sg63
(lp250
g56
(g57
g58
NtRp251
(dp252
g61
(dp253
g69
I5
ssg70
g247
sg63
(lp254
g56
(g65
g58
NtRp255
(dp256
g61
(dp257
g69
I4
ssg70
Nsg63
(lp258
g56
(g72
g58
NtRp259
(dp260
g61
(dp261
sg70
g255
sg63
(lp262
g56
(g77
g58
NtRp263
(dp264
g61
(dp265
g81
g82
ssg70
g259
sg63
(lp266
S'session_id_admin'
p267
asbag56
(g77
g58
NtRp268
(dp269
g61
(dp270
g88
g89
ssg70
g259
sg63
(lp271
S':'
asbag56
(g77
g58
NtRp272
(dp273
g61
(dp274
sg70
g259
sg63
(lp275
g56
(g57
g58
NtRp276
(dp277
g61
(dp278
g69
I4
ssg70
g272
sg63
(lp279
S'127.0.0.1-2d1464ce-f29b-4e42-92ce-a409d3257b63'
p280
ag56
(g65
g58
NtRp281
(dp282
g61
(dp283
g69
I3
ssg70
Nsg63
(lp284
g56
(g72
g58
NtRp285
(dp286
g61
(dp287
sg70
g281
sg63
(lp288
g56
(g77
g58
NtRp289
(dp290
g61
(dp291
g81
g82
ssg70
g285
sg63
(lp292
S'comment'
p293
asbag56
(g77
g58
NtRp294
(dp295
g61
(dp296
g88
g89
ssg70
g285
sg63
(lp297
S':'
asbag56
(g77
g58
NtRp298
(dp299
g61
(dp300
sg70
g285
sg63
(lp301
g56
(g57
g58
NtRp302
(dp303
g61
(dp304
g69
I3
ssg70
g298
sg63
(lp305
S''
asbasbasbag56
(g72
g58
NtRp306
(dp307
g61
(dp308
sg70
g281
sg63
(lp309
g56
(g77
g58
NtRp310
(dp311
g61
(dp312
g81
g82
ssg70
g306
sg63
(lp313
S'domain'
p314
asbag56
(g77
g58
NtRp315
(dp316
g61
(dp317
g88
g89
ssg70
g306
sg63
(lp318
S':'
asbag56
(g77
g58
NtRp319
(dp320
g61
(dp321
sg70
g306
sg63
(lp322
g56
(g57
g58
NtRp323
(dp324
g61
(dp325
g69
I3
ssg70
g319
sg63
(lp326
S''
asbasbasbag56
(g72
g58
NtRp327
(dp328
g61
(dp329
sg70
g281
sg63
(lp330
g56
(g77
g58
NtRp331
(dp332
g61
(dp333
g81
g82
ssg70
g327
sg63
(lp334
S'expires'
p335
asbag56
(g77
g58
NtRp336
(dp337
g61
(dp338
g88
g89
ssg70
g327
sg63
(lp339
S':'
asbag56
(g77
g58
NtRp340
(dp341
g61
(dp342
sg70
g327
sg63
(lp343
g56
(g57
g58
NtRp344
(dp345
g61
(dp346
g69
I3
ssg70
g340
sg63
(lp347
S''
asbasbasbag56
(g72
g58
NtRp348
(dp349
g61
(dp350
sg70
g281
sg63
(lp351
g56
(g77
g58
NtRp352
(dp353
g61
(dp354
g81
g82
ssg70
g348
sg63
(lp355
S'httponly'
p356
asbag56
(g77
g58
NtRp357
(dp358
g61
(dp359
g88
g89
ssg70
g348
sg63
(lp360
S':'
asbag56
(g77
g58
NtRp361
(dp362
g61
(dp363
sg70
g348
sg63
(lp364
g56
(g57
g58
NtRp365
(dp366
g61
(dp367
g69
I3
ssg70
g361
sg63
(lp368
S''
asbasbasbag56
(g72
g58
NtRp369
(dp370
g61
(dp371
sg70
g281
sg63
(lp372
g56
(g77
g58
NtRp373
(dp374
g61
(dp375
g81
g82
ssg70
g369
sg63
(lp376
S'max-age'
p377
asbag56
(g77
g58
NtRp378
(dp379
g61
(dp380
g88
g89
ssg70
g369
sg63
(lp381
S':'
asbag56
(g77
g58
NtRp382
(dp383
g61
(dp384
sg70
g369
sg63
(lp385
g56
(g57
g58
NtRp386
(dp387
g61
(dp388
g69
I3
ssg70
g382
sg63
(lp389
S''
asbasbasbag56
(g72
g58
NtRp390
(dp391
g61
(dp392
sg70
g281
sg63
(lp393
g56
(g77
g58
NtRp394
(dp395
g61
(dp396
g81
g82
ssg70
g390
sg63
(lp397
S'path'
p398
asbag56
(g77
g58
NtRp399
(dp400
g61
(dp401
g88
g89
ssg70
g390
sg63
(lp402
S':'
asbag56
(g77
g58
NtRp403
(dp404
g61
(dp405
sg70
g390
sg63
(lp406
g56
(g57
g58
NtRp407
(dp408
g61
(dp409
g69
I3
ssg70
g403
sg63
(lp410
S''
asbasbasbag56
(g72
g58
NtRp411
(dp412
g61
(dp413
sg70
g281
sg63
(lp414
g56
(g77
g58
NtRp415
(dp416
g61
(dp417
g81
g82
ssg70
g411
sg63
(lp418
S'secure'
p419
asbag56
(g77
g58
NtRp420
(dp421
g61
(dp422
g88
g89
ssg70
g411
sg63
(lp423
S':'
asbag56
(g77
g58
NtRp424
(dp425
g61
(dp426
sg70
g411
sg63
(lp427
g56
(g57
g58
NtRp428
(dp429
g61
(dp430
g69
I3
ssg70
g424
sg63
(lp431
S''
asbasbasbag56
(g72
g58
NtRp432
(dp433
g61
(dp434
sg70
g281
sg63
(lp435
g56
(g77
g58
NtRp436
(dp437
g61
(dp438
g81
g82
ssg70
g432
sg63
(lp439
S'version'
p440
asbag56
(g77
g58
NtRp441
(dp442
g61
(dp443
g88
g89
ssg70
g432
sg63
(lp444
S':'
asbag56
(g77
g58
NtRp445
(dp446
g61
(dp447
sg70
g432
sg63
(lp448
g56
(g57
g58
NtRp449
(dp450
g61
(dp451
g69
I3
ssg70
g445
sg63
(lp452
S''
asbasbasbasbasbasbasbag56
(g72
g58
NtRp453
(dp454
g61
(dp455
sg70
g255
sg63
(lp456
g56
(g77
g58
NtRp457
(dp458
g61
(dp459
g81
g82
ssg70
g453
sg63
(lp460
S'session_id_myapp'
p461
asbag56
(g77
g58
NtRp462
(dp463
g61
(dp464
g88
g89
ssg70
g453
sg63
(lp465
S':'
asbag56
(g77
g58
NtRp466
(dp467
g61
(dp468
sg70
g453
sg63
(lp469
g56
(g57
g58
NtRp470
(dp471
g61
(dp472
g69
I4
ssg70
g466
sg63
(lp473
S'127.0.0.1-f3a9c343-0f6b-486a-8359-7c4db4445e16'
p474
ag56
(g65
g58
NtRp475
(dp476
g61
(dp477
g69
I3
ssg70
Nsg63
(lp478
g56
(g72
g58
NtRp479
(dp480
g61
(dp481
sg70
g475
sg63
(lp482
g56
(g77
g58
NtRp483
(dp484
g61
(dp485
g81
g82
ssg70
g479
sg63
(lp486
g293
asbag56
(g77
g58
NtRp487
(dp488
g61
(dp489
g88
g89
ssg70
g479
sg63
(lp490
S':'
asbag56
(g77
g58
NtRp491
(dp492
g61
(dp493
sg70
g479
sg63
(lp494
g56
(g57
g58
NtRp495
(dp496
g61
(dp497
g69
I3
ssg70
g491
sg63
(lp498
S''
asbasbasbag56
(g72
g58
NtRp499
(dp500
g61
(dp501
sg70
g475
sg63
(lp502
g56
(g77
g58
NtRp503
(dp504
g61
(dp505
g81
g82
ssg70
g499
sg63
(lp506
g314
asbag56
(g77
g58
NtRp507
(dp508
g61
(dp509
g88
g89
ssg70
g499
sg63
(lp510
S':'
asbag56
(g77
g58
NtRp511
(dp512
g61
(dp513
sg70
g499
sg63
(lp514
g56
(g57
g58
NtRp515
(dp516
g61
(dp517
g69
I3
ssg70
g511
sg63
(lp518
S''
asbasbasbag56
(g72
g58
NtRp519
(dp520
g61
(dp521
sg70
g475
sg63
(lp522
g56
(g77
g58
NtRp523
(dp524
g61
(dp525
g81
g82
ssg70
g519
sg63
(lp526
g335
asbag56
(g77
g58
NtRp527
(dp528
g61
(dp529
g88
g89
ssg70
g519
sg63
(lp530
S':'
asbag56
(g77
g58
NtRp531
(dp532
g61
(dp533
sg70
g519
sg63
(lp534
g56
(g57
g58
NtRp535
(dp536
g61
(dp537
g69
I3
ssg70
g531
sg63
(lp538
S''
asbasbasbag56
(g72
g58
NtRp539
(dp540
g61
(dp541
sg70
g475
sg63
(lp542
g56
(g77
g58
NtRp543
(dp544
g61
(dp545
g81
g82
ssg70
g539
sg63
(lp546
g356
asbag56
(g77
g58
NtRp547
(dp548
g61
(dp549
g88
g89
ssg70
g539
sg63
(lp550
S':'
asbag56
(g77
g58
NtRp551
(dp552
g61
(dp553
sg70
g539
sg63
(lp554
g56
(g57
g58
NtRp555
(dp556
g61
(dp557
g69
I3
ssg70
g551
sg63
(lp558
S''
asbasbasbag56
(g72
g58
NtRp559
(dp560
g61
(dp561
sg70
g475
sg63
(lp562
g56
(g77
g58
NtRp563
(dp564
g61
(dp565
g81
g82
ssg70
g559
sg63
(lp566
g377
asbag56
(g77
g58
NtRp567
(dp568
g61
(dp569
g88
g89
ssg70
g559
sg63
(lp570
S':'
asbag56
(g77
g58
NtRp571
(dp572
g61
(dp573
sg70
g559
sg63
(lp574
g56
(g57
g58
NtRp575
(dp576
g61
(dp577
g69
I3
ssg70
g571
sg63
(lp578
S''
asbasbasbag56
(g72
g58
NtRp579
(dp580
g61
(dp581
sg70
g475
sg63
(lp582
g56
(g77
g58
NtRp583
(dp584
g61
(dp585
g81
g82
ssg70
g579
sg63
(lp586
g398
asbag56
(g77
g58
NtRp587
(dp588
g61
(dp589
g88
g89
ssg70
g579
sg63
(lp590
S':'
asbag56
(g77
g58
NtRp591
(dp592
g61
(dp593
sg70
g579
sg63
(lp594
g56
(g57
g58
NtRp595
(dp596
g61
(dp597
g69
I3
ssg70
g591
sg63
(lp598
S''
asbasbasbag56
(g72
g58
NtRp599
(dp600
g61
(dp601
sg70
g475
sg63
(lp602
g56
(g77
g58
NtRp603
(dp604
g61
(dp605
g81
g82
ssg70
g599
sg63
(lp606
g419
asbag56
(g77
g58
NtRp607
(dp608
g61
(dp609
g88
g89
ssg70
g599
sg63
(lp610
S':'
asbag56
(g77
g58
NtRp611
(dp612
g61
(dp613
sg70
g599
sg63
(lp614
g56
(g57
g58
NtRp615
(dp616
g61
(dp617
g69
I3
ssg70
g611
sg63
(lp618
S''
asbasbasbag56
(g72
g58
NtRp619
(dp620
g61
(dp621
sg70
g475
sg63
(lp622
g56
(g77
g58
NtRp623
(dp624
g61
(dp625
g81
g82
ssg70
g619
sg63
(lp626
g440
asbag56
(g77
g58
NtRp627
(dp628
g61
(dp629
g88
g89
ssg70
g619
sg63
(lp630
S':'
asbag56
(g77
g58
NtRp631
(dp632
g61
(dp633
sg70
g619
sg63
(lp634
g56
(g57
g58
NtRp635
(dp636
g61
(dp637
g69
I3
ssg70
g631
sg63
(lp638
S''
asbasbasbasbasbasbasbag56
(g72
g58
NtRp639
(dp640
g61
(dp641
sg70
g255
sg63
(lp642
g56
(g77
g58
NtRp643
(dp644
g61
(dp645
g81
g82
ssg70
g639
sg63
(lp646
S'session_id_regtest'
p647
asbag56
(g77
g58
NtRp648
(dp649
g61
(dp650
g88
g89
ssg70
g639
sg63
(lp651
S':'
asbag56
(g77
g58
NtRp652
(dp653
g61
(dp654
sg70
g639
sg63
(lp655
g56
(g57
g58
NtRp656
(dp657
g61
(dp658
g69
I4
ssg70
g652
sg63
(lp659
S'127.0.0.1-4dff0991-97d3-43bf-b725-30b4220acd5e'
p660
ag56
(g65
g58
NtRp661
(dp662
g61
(dp663
g69
I3
ssg70
Nsg63
(lp664
g56
(g72
g58
NtRp665
(dp666
g61
(dp667
sg70
g661
sg63
(lp668
g56
(g77
g58
NtRp669
(dp670
g61
(dp671
g81
g82
ssg70
g665
sg63
(lp672
g293
asbag56
(g77
g58
NtRp673
(dp674
g61
(dp675
g88
g89
ssg70
g665
sg63
(lp676
S':'
asbag56
(g77
g58
NtRp677
(dp678
g61
(dp679
sg70
g665
sg63
(lp680
g56
(g57
g58
NtRp681
(dp682
g61
(dp683
g69
I3
ssg70
g677
sg63
(lp684
S''
asbasbasbag56
(g72
g58
NtRp685
(dp686
g61
(dp687
sg70
g661
sg63
(lp688
g56
(g77
g58
NtRp689
(dp690
g61
(dp691
g81
g82
ssg70
g685
sg63
(lp692
g314
asbag56
(g77
g58
NtRp693
(dp694
g61
(dp695
g88
g89
ssg70
g685
sg63
(lp696
S':'
asbag56
(g77
g58
NtRp697
(dp698
g61
(dp699
sg70
g685
sg63
(lp700
g56
(g57
g58
NtRp701
(dp702
g61
(dp703
g69
I3
ssg70
g697
sg63
(lp704
S''
asbasbasbag56
(g72
g58
NtRp705
(dp706
g61
(dp707
sg70
g661
sg63
(lp708
g56
(g77
g58
NtRp709
(dp710
g61
(dp711
g81
g82
ssg70
g705
sg63
(lp712
g335
asbag56
(g77
g58
NtRp713
(dp714
g61
(dp715
g88
g89
ssg70
g705
sg63
(lp716
S':'
asbag56
(g77
g58
NtRp717
(dp718
g61
(dp719
sg70
g705
sg63
(lp720
g56
(g57
g58
NtRp721
(dp722
g61
(dp723
g69
I3
ssg70
g717
sg63
(lp724
S''
asbasbasbag56
(g72
g58
NtRp725
(dp726
g61
(dp727
sg70
g661
sg63
(lp728
g56
(g77
g58
NtRp729
(dp730
g61
(dp731
g81
g82
ssg70
g725
sg63
(lp732
g356
asbag56
(g77
g58
NtRp733
(dp734
g61
(dp735
g88
g89
ssg70
g725
sg63
(lp736
S':'
asbag56
(g77
g58
NtRp737
(dp738
g61
(dp739
sg70
g725
sg63
(lp740
g56
(g57
g58
NtRp741
(dp742
g61
(dp743
g69
I3
ssg70
g737
sg63
(lp744
S''
asbasbasbag56
(g72
g58
NtRp745
(dp746
g61
(dp747
sg70
g661
sg63
(lp748
g56
(g77
g58
NtRp749
(dp750
g61
(dp751
g81
g82
ssg70
g745
sg63
(lp752
g377
asbag56
(g77
g58
NtRp753
(dp754
g61
(dp755
g88
g89
ssg70
g745
sg63
(lp756
S':'
asbag56
(g77
g58
NtRp757
(dp758
g61
(dp759
sg70
g745
sg63
(lp760
g56
(g57
g58
NtRp761
(dp762
g61
(dp763
g69
I3
ssg70
g757
sg63
(lp764
S''
asbasbasbag56
(g72
g58
NtRp765
(dp766
g61
(dp767
sg70
g661
sg63
(lp768
g56
(g77
g58
NtRp769
(dp770
g61
(dp771
g81
g82
ssg70
g765
sg63
(lp772
g398
asbag56
(g77
g58
NtRp773
(dp774
g61
(dp775
g88
g89
ssg70
g765
sg63
(lp776
S':'
asbag56
(g77
g58
NtRp777
(dp778
g61
(dp779
sg70
g765
sg63
(lp780
g56
(g57
g58
NtRp781
(dp782
g61
(dp783
g69
I3
ssg70
g777
sg63
(lp784
S''
asbasbasbag56
(g72
g58
NtRp785
(dp786
g61
(dp787
sg70
g661
sg63
(lp788
g56
(g77
g58
NtRp789
(dp790
g61
(dp791
g81
g82
ssg70
g785
sg63
(lp792
g419
asbag56
(g77
g58
NtRp793
(dp794
g61
(dp795
g88
g89
ssg70
g785
sg63
(lp796
S':'
asbag56
(g77
g58
NtRp797
(dp798
g61
(dp799
sg70
g785
sg63
(lp800
g56
(g57
g58
NtRp801
(dp802
g61
(dp803
g69
I3
ssg70
g797
sg63
(lp804
S''
asbasbasbag56
(g72
g58
NtRp805
(dp806
g61
(dp807
sg70
g661
sg63
(lp808
g56
(g77
g58
NtRp809
(dp810
g61
(dp811
g81
g82
ssg70
g805
sg63
(lp812
g440
asbag56
(g77
g58
NtRp813
(dp814
g61
(dp815
g88
g89
ssg70
g805
sg63
(lp816
S':'
asbag56
(g77
g58
NtRp817
(dp818
g61
(dp819
sg70
g805
sg63
(lp820
g56
(g57
g58
NtRp821
(dp822
g61
(dp823
g69
I3
ssg70
g817
sg63
(lp824
S''
asbasbasbasbasbasbasbag56
(g72
g58
NtRp825
(dp826
g61
(dp827
sg70
g255
sg63
(lp828
g56
(g77
g58
NtRp829
(dp830
g61
(dp831
g81
g82
ssg70
g825
sg63
(lp832
S'session_id_test'
p833
asbag56
(g77
g58
NtRp834
(dp835
g61
(dp836
g88
g89
ssg70
g825
sg63
(lp837
S':'
asbag56
(g77
g58
NtRp838
(dp839
g61
(dp840
sg70
g825
sg63
(lp841
g56
(g57
g58
NtRp842
(dp843
g61
(dp844
g69
I4
ssg70
g838
sg63
(lp845
S'127.0.0.1-bf7a430c-ff89-45fe-bb33-2bed846ee62d'
p846
ag56
(g65
g58
NtRp847
(dp848
g61
(dp849
g69
I3
ssg70
Nsg63
(lp850
g56
(g72
g58
NtRp851
(dp852
g61
(dp853
sg70
g847
sg63
(lp854
g56
(g77
g58
NtRp855
(dp856
g61
(dp857
g81
g82
ssg70
g851
sg63
(lp858
g293
asbag56
(g77
g58
NtRp859
(dp860
g61
(dp861
g88
g89
ssg70
g851
sg63
(lp862
S':'
asbag56
(g77
g58
NtRp863
(dp864
g61
(dp865
sg70
g851
sg63
(lp866
g56
(g57
g58
NtRp867
(dp868
g61
(dp869
g69
I3
ssg70
g863
sg63
(lp870
S''
asbasbasbag56
(g72
g58
NtRp871
(dp872
g61
(dp873
sg70
g847
sg63
(lp874
g56
(g77
g58
NtRp875
(dp876
g61
(dp877
g81
g82
ssg70
g871
sg63
(lp878
g314
asbag56
(g77
g58
NtRp879
(dp880
g61
(dp881
g88
g89
ssg70
g871
sg63
(lp882
S':'
asbag56
(g77
g58
NtRp883
(dp884
g61
(dp885
sg70
g871
sg63
(lp886
g56
(g57
g58
NtRp887
(dp888
g61
(dp889
g69
I3
ssg70
g883
sg63
(lp890
S''
asbasbasbag56
(g72
g58
NtRp891
(dp892
g61
(dp893
sg70
g847
sg63
(lp894
g56
(g77
g58
NtRp895
(dp896
g61
(dp897
g81
g82
ssg70
g891
sg63
(lp898
g335
asbag56
(g77
g58
NtRp899
(dp900
g61
(dp901
g88
g89
ssg70
g891
sg63
(lp902
S':'
asbag56
(g77
g58
NtRp903
(dp904
g61
(dp905
sg70
g891
sg63
(lp906
g56
(g57
g58
NtRp907
(dp908
g61
(dp909
g69
I3
ssg70
g903
sg63
(lp910
S''
asbasbasbag56
(g72
g58
NtRp911
(dp912
g61
(dp913
sg70
g847
sg63
(lp914
g56
(g77
g58
NtRp915
(dp916
g61
(dp917
g81
g82
ssg70
g911
sg63
(lp918
g356
asbag56
(g77
g58
NtRp919
(dp920
g61
(dp921
g88
g89
ssg70
g911
sg63
(lp922
S':'
asbag56
(g77
g58
NtRp923
(dp924
g61
(dp925
sg70
g911
sg63
(lp926
g56
(g57
g58
NtRp927
(dp928
g61
(dp929
g69
I3
ssg70
g923
sg63
(lp930
S''
asbasbasbag56
(g72
g58
NtRp931
(dp932
g61
(dp933
sg70
g847
sg63
(lp934
g56
(g77
g58
NtRp935
(dp936
g61
(dp937
g81
g82
ssg70
g931
sg63
(lp938
g377
asbag56
(g77
g58
NtRp939
(dp940
g61
(dp941
g88
g89
ssg70
g931
sg63
(lp942
S':'
asbag56
(g77
g58
NtRp943
(dp944
g61
(dp945
sg70
g931
sg63
(lp946
g56
(g57
g58
NtRp947
(dp948
g61
(dp949
g69
I3
ssg70
g943
sg63
(lp950
S''
asbasbasbag56
(g72
g58
NtRp951
(dp952
g61
(dp953
sg70
g847
sg63
(lp954
g56
(g77
g58
NtRp955
(dp956
g61
(dp957
g81
g82
ssg70
g951
sg63
(lp958
g398
asbag56
(g77
g58
NtRp959
(dp960
g61
(dp961
g88
g89
ssg70
g951
sg63
(lp962
S':'
asbag56
(g77
g58
NtRp963
(dp964
g61
(dp965
sg70
g951
sg63
(lp966
g56
(g57
g58
NtRp967
(dp968
g61
(dp969
g69
I3
ssg70
g963
sg63
(lp970
S''
asbasbasbag56
(g72
g58
NtRp971
(dp972
g61
(dp973
sg70
g847
sg63
(lp974
g56
(g77
g58
NtRp975
(dp976
g61
(dp977
g81
g82
ssg70
g971
sg63
(lp978
g419
asbag56
(g77
g58
NtRp979
(dp980
g61
(dp981
g88
g89
ssg70
g971
sg63
(lp982
S':'
asbag56
(g77
g58
NtRp983
(dp984
g61
(dp985
sg70
g971
sg63
(lp986
g56
(g57
g58
NtRp987
(dp988
g61
(dp989
g69
I3
ssg70
g983
sg63
(lp990
S''
asbasbasbag56
(g72
g58
NtRp991
(dp992
g61
(dp993
sg70
g847
sg63
(lp994
g56
(g77
g58
NtRp995
(dp996
g61
(dp997
g81
g82
ssg70
g991
sg63
(lp998
g440
asbag56
(g77
g58
NtRp999
(dp1000
g61
(dp1001
g88
g89
ssg70
g991
sg63
(lp1002
S':'
asbag56
(g77
g58
NtRp1003
(dp1004
g61
(dp1005
sg70
g991
sg63
(lp1006
g56
(g57
g58
NtRp1007
(dp1008
g61
(dp1009
g69
I3
ssg70
g1003
sg63
(lp1010
S''
asbasbasbasbasbasbasbag56
(g72
g58
NtRp1011
(dp1012
g61
(dp1013
sg70
g255
sg63
(lp1014
g56
(g77
g58
NtRp1015
(dp1016
g61
(dp1017
g81
g82
ssg70
g1011
sg63
(lp1018
S'session_id_welcome'
p1019
asbag56
(g77
g58
NtRp1020
(dp1021
g61
(dp1022
g88
g89
ssg70
g1011
sg63
(lp1023
S':'
asbag56
(g77
g58
NtRp1024
(dp1025
g61
(dp1026
sg70
g1011
sg63
(lp1027
g56
(g57
g58
NtRp1028
(dp1029
g61
(dp1030
g69
I4
ssg70
g1024
sg63
(lp1031
S'127.0.0.1-3ec034c6-3f96-4e6e-837e-9b3c4783d7e6'
p1032
ag56
(g65
g58
NtRp1033
(dp1034
g61
(dp1035
g69
I3
ssg70
Nsg63
(lp1036
g56
(g72
g58
NtRp1037
(dp1038
g61
(dp1039
sg70
g1033
sg63
(lp1040
g56
(g77
g58
NtRp1041
(dp1042
g61
(dp1043
g81
g82
ssg70
g1037
sg63
(lp1044
g293
asbag56
(g77
g58
NtRp1045
(dp1046
g61
(dp1047
g88
g89
ssg70
g1037
sg63
(lp1048
S':'
asbag56
(g77
g58
NtRp1049
(dp1050
g61
(dp1051
sg70
g1037
sg63
(lp1052
g56
(g57
g58
NtRp1053
(dp1054
g61
(dp1055
g69
I3
ssg70
g1049
sg63
(lp1056
S''
asbasbasbag56
(g72
g58
NtRp1057
(dp1058
g61
(dp1059
sg70
g1033
sg63
(lp1060
g56
(g77
g58
NtRp1061
(dp1062
g61
(dp1063
g81
g82
ssg70
g1057
sg63
(lp1064
g314
asbag56
(g77
g58
NtRp1065
(dp1066
g61
(dp1067
g88
g89
ssg70
g1057
sg63
(lp1068
S':'
asbag56
(g77
g58
NtRp1069
(dp1070
g61
(dp1071
sg70
g1057
sg63
(lp1072
g56
(g57
g58
NtRp1073
(dp1074
g61
(dp1075
g69
I3
ssg70
g1069
sg63
(lp1076
S''
asbasbasbag56
(g72
g58
NtRp1077
(dp1078
g61
(dp1079
sg70
g1033
sg63
(lp1080
g56
(g77
g58
NtRp1081
(dp1082
g61
(dp1083
g81
g82
ssg70
g1077
sg63
(lp1084
g335
asbag56
(g77
g58
NtRp1085
(dp1086
g61
(dp1087
g88
g89
ssg70
g1077
sg63
(lp1088
S':'
asbag56
(g77
g58
NtRp1089
(dp1090
g61
(dp1091
sg70
g1077
sg63
(lp1092
g56
(g57
g58
NtRp1093
(dp1094
g61
(dp1095
g69
I3
ssg70
g1089
sg63
(lp1096
S''
asbasbasbag56
(g72
g58
NtRp1097
(dp1098
g61
(dp1099
sg70
g1033
sg63
(lp1100
g56
(g77
g58
NtRp1101
(dp1102
g61
(dp1103
g81
g82
ssg70
g1097
sg63
(lp1104
g356
asbag56
(g77
g58
NtRp1105
(dp1106
g61
(dp1107
g88
g89
ssg70
g1097
sg63
(lp1108
S':'
asbag56
(g77
g58
NtRp1109
(dp1110
g61
(dp1111
sg70
g1097
sg63
(lp1112
g56
(g57
g58
NtRp1113
(dp1114
g61
(dp1115
g69
I3
ssg70
g1109
sg63
(lp1116
S''
asbasbasbag56
(g72
g58
NtRp1117
(dp1118
g61
(dp1119
sg70
g1033
sg63
(lp1120
g56
(g77
g58
NtRp1121
(dp1122
g61
(dp1123
g81
g82
ssg70
g1117
sg63
(lp1124
g377
asbag56
(g77
g58
NtRp1125
(dp1126
g61
(dp1127
g88
g89
ssg70
g1117
sg63
(lp1128
S':'
asbag56
(g77
g58
NtRp1129
(dp1130
g61
(dp1131
sg70
g1117
sg63
(lp1132
g56
(g57
g58
NtRp1133
(dp1134
g61
(dp1135
g69
I3
ssg70
g1129
sg63
(lp1136
S''
asbasbasbag56
(g72
g58
NtRp1137
(dp1138
g61
(dp1139
sg70
g1033
sg63
(lp1140
g56
(g77
g58
NtRp1141
(dp1142
g61
(dp1143
g81
g82
ssg70
g1137
sg63
(lp1144
g398
asbag56
(g77
g58
NtRp1145
(dp1146
g61
(dp1147
g88
g89
ssg70
g1137
sg63
(lp1148
S':'
asbag56
(g77
g58
NtRp1149
(dp1150
g61
(dp1151
sg70
g1137
sg63
(lp1152
g56
(g57
g58
NtRp1153
(dp1154
g61
(dp1155
g69
I3
ssg70
g1149
sg63
(lp1156
S''
asbasbasbag56
(g72
g58
NtRp1157
(dp1158
g61
(dp1159
sg70
g1033
sg63
(lp1160
g56
(g77
g58
NtRp1161
(dp1162
g61
(dp1163
g81
g82
ssg70
g1157
sg63
(lp1164
g419
asbag56
(g77
g58
NtRp1165
(dp1166
g61
(dp1167
g88
g89
ssg70
g1157
sg63
(lp1168
S':'
asbag56
(g77
g58
NtRp1169
(dp1170
g61
(dp1171
sg70
g1157
sg63
(lp1172
g56
(g57
g58
NtRp1173
(dp1174
g61
(dp1175
g69
I3
ssg70
g1169
sg63
(lp1176
S''
asbasbasbag56
(g72
g58
NtRp1177
(dp1178
g61
(dp1179
sg70
g1033
sg63
(lp1180
g56
(g77
g58
NtRp1181
(dp1182
g61
(dp1183
g81
g82
ssg70
g1177
sg63
(lp1184
g440
asbag56
(g77
g58
NtRp1185
(dp1186
g61
(dp1187
g88
g89
ssg70
g1177
sg63
(lp1188
S':'
asbag56
(g77
g58
NtRp1189
(dp1190
g61
(dp1191
sg70
g1177
sg63
(lp1192
g56
(g57
g58
NtRp1193
(dp1194
g61
(dp1195
g69
I3
ssg70
g1189
sg63
(lp1196
S''
asbasbasbasbasbasbasbag56
(g72
g58
NtRp1197
(dp1198
g61
(dp1199
sg70
g255
sg63
(lp1200
g56
(g77
g58
NtRp1201
(dp1202
g61
(dp1203
g81
g82
ssg70
g1197
sg63
(lp1204
S'session_id_wiki'
p1205
asbag56
(g77
g58
NtRp1206
(dp1207
g61
(dp1208
g88
g89
ssg70
g1197
sg63
(lp1209
S':'
asbag56
(g77
g58
NtRp1210
(dp1211
g61
(dp1212
sg70
g1197
sg63
(lp1213
g56
(g57
g58
NtRp1214
(dp1215
g61
(dp1216
g69
I4
ssg70
g1210
sg63
(lp1217
S'127.0.0.1-d6e684ef-4987-48c4-b480-0c28b0d4b0d9'
p1218
ag56
(g65
g58
NtRp1219
(dp1220
g61
(dp1221
g69
I3
ssg70
Nsg63
(lp1222
g56
(g72
g58
NtRp1223
(dp1224
g61
(dp1225
sg70
g1219
sg63
(lp1226
g56
(g77
g58
NtRp1227
(dp1228
g61
(dp1229
g81
g82
ssg70
g1223
sg63
(lp1230
g293
asbag56
(g77
g58
NtRp1231
(dp1232
g61
(dp1233
g88
g89
ssg70
g1223
sg63
(lp1234
S':'
asbag56
(g77
g58
NtRp1235
(dp1236
g61
(dp1237
sg70
g1223
sg63
(lp1238
g56
(g57
g58
NtRp1239
(dp1240
g61
(dp1241
g69
I3
ssg70
g1235
sg63
(lp1242
S''
asbasbasbag56
(g72
g58
NtRp1243
(dp1244
g61
(dp1245
sg70
g1219
sg63
(lp1246
g56
(g77
g58
NtRp1247
(dp1248
g61
(dp1249
g81
g82
ssg70
g1243
sg63
(lp1250
g314
asbag56
(g77
g58
NtRp1251
(dp1252
g61
(dp1253
g88
g89
ssg70
g1243
sg63
(lp1254
S':'
asbag56
(g77
g58
NtRp1255
(dp1256
g61
(dp1257
sg70
g1243
sg63
(lp1258
g56
(g57
g58
NtRp1259
(dp1260
g61
(dp1261
g69
I3
ssg70
g1255
sg63
(lp1262
S''
asbasbasbag56
(g72
g58
NtRp1263
(dp1264
g61
(dp1265
sg70
g1219
sg63
(lp1266
g56
(g77
g58
NtRp1267
(dp1268
g61
(dp1269
g81
g82
ssg70
g1263
sg63
(lp1270
g335
asbag56
(g77
g58
NtRp1271
(dp1272
g61
(dp1273
g88
g89
ssg70
g1263
sg63
(lp1274
S':'
asbag56
(g77
g58
NtRp1275
(dp1276
g61
(dp1277
sg70
g1263
sg63
(lp1278
g56
(g57
g58
NtRp1279
(dp1280
g61
(dp1281
g69
I3
ssg70
g1275
sg63
(lp1282
S''
asbasbasbag56
(g72
g58
NtRp1283
(dp1284
g61
(dp1285
sg70
g1219
sg63
(lp1286
g56
(g77
g58
NtRp1287
(dp1288
g61
(dp1289
g81
g82
ssg70
g1283
sg63
(lp1290
g356
asbag56
(g77
g58
NtRp1291
(dp1292
g61
(dp1293
g88
g89
ssg70
g1283
sg63
(lp1294
S':'
asbag56
(g77
g58
NtRp1295
(dp1296
g61
(dp1297
sg70
g1283
sg63
(lp1298
g56
(g57
g58
NtRp1299
(dp1300
g61
(dp1301
g69
I3
ssg70
g1295
sg63
(lp1302
S''
asbasbasbag56
(g72
g58
NtRp1303
(dp1304
g61
(dp1305
sg70
g1219
sg63
(lp1306
g56
(g77
g58
NtRp1307
(dp1308
g61
(dp1309
g81
g82
ssg70
g1303
sg63
(lp1310
g377
asbag56
(g77
g58
NtRp1311
(dp1312
g61
(dp1313
g88
g89
ssg70
g1303
sg63
(lp1314
S':'
asbag56
(g77
g58
NtRp1315
(dp1316
g61
(dp1317
sg70
g1303
sg63
(lp1318
g56
(g57
g58
NtRp1319
(dp1320
g61
(dp1321
g69
I3
ssg70
g1315
sg63
(lp1322
S''
asbasbasbag56
(g72
g58
NtRp1323
(dp1324
g61
(dp1325
sg70
g1219
sg63
(lp1326
g56
(g77
g58
NtRp1327
(dp1328
g61
(dp1329
g81
g82
ssg70
g1323
sg63
(lp1330
g398
asbag56
(g77
g58
NtRp1331
(dp1332
g61
(dp1333
g88
g89
ssg70
g1323
sg63
(lp1334
S':'
asbag56
(g77
g58
NtRp1335
(dp1336
g61
(dp1337
sg70
g1323
sg63
(lp1338
g56
(g57
g58
NtRp1339
(dp1340
g61
(dp1341
g69
I3
ssg70
g1335
sg63
(lp1342
S''
asbasbasbag56
(g72
g58
NtRp1343
(dp1344
g61
(dp1345
sg70
g1219
sg63
(lp1346
g56
(g77
g58
NtRp1347
(dp1348
g61
(dp1349
g81
g82
ssg70
g1343
sg63
(lp1350
g419
asbag56
(g77
g58
NtRp1351
(dp1352
g61
(dp1353
g88
g89
ssg70
g1343
sg63
(lp1354
S':'
asbag56
(g77
g58
NtRp1355
(dp1356
g61
(dp1357
sg70
g1343
sg63
(lp1358
g56
(g57
g58
NtRp1359
(dp1360
g61
(dp1361
g69
I3
ssg70
g1355
sg63
(lp1362
S''
asbasbasbag56
(g72
g58
NtRp1363
(dp1364
g61
(dp1365
sg70
g1219
sg63
(lp1366
g56
(g77
g58
NtRp1367
(dp1368
g61
(dp1369
g81
g82
ssg70
g1363
sg63
(lp1370
g440
asbag56
(g77
g58
NtRp1371
(dp1372
g61
(dp1373
g88
g89
ssg70
g1363
sg63
(lp1374
S':'
asbag56
(g77
g58
NtRp1375
(dp1376
g61
(dp1377
sg70
g1363
sg63
(lp1378
g56
(g57
g58
NtRp1379
(dp1380
g61
(dp1381
g69
I3
ssg70
g1375
sg63
(lp1382
S''
asbasbasbasbasbasbasbasbasbasbasbag56
(g72
g58
NtRp1383
(dp1384
g61
(dp1385
sg70
g66
sg63
(lp1386
g56
(g77
g58
NtRp1387
(dp1388
g61
(dp1389
g81
g82
ssg70
g1383
sg63
(lp1390
S'env'
p1391
asbag56
(g77
g58
NtRp1392
(dp1393
g61
(dp1394
g88
g89
ssg70
g1383
sg63
(lp1395
S':'
asbag56
(g77
g58
NtRp1396
(dp1397
g61
(dp1398
sg70
g1383
sg63
(lp1399
g56
(g57
g58
NtRp1400
(dp1401
g61
(dp1402
g69
I5
ssg70
g1396
sg63
(lp1403
g56
(g65
g58
NtRp1404
(dp1405
g61
(dp1406
g69
I4
ssg70
Nsg63
(lp1407
g56
(g72
g58
NtRp1408
(dp1409
g61
(dp1410
sg70
g1404
sg63
(lp1411
g56
(g77
g58
NtRp1412
(dp1413
g61
(dp1414
g81
g82
ssg70
g1408
sg63
(lp1415
S'app_folders'
p1416
asbag56
(g77
g58
NtRp1417
(dp1418
g61
(dp1419
g88
g89
ssg70
g1408
sg63
(lp1420
S':'
asbag56
(g77
g58
NtRp1421
(dp1422
g61
(dp1423
sg70
g1408
sg63
(lp1424
g56
(g57
g58
NtRp1425
(dp1426
g61
(dp1427
g69
I4
ssg70
g1421
sg63
(lp1428
S"set(['C:\\\\Python27\\\\web2py\\\\applications\\\\test\\\\', 'C:\\\\Python27\\\\web2py\\\\applications\\\\regtest\\\\', 'C:\\\\Python27\\\\web2py\\\\applications\\\\welcome\\\\', 'C:\\\\Python27\\\\web2py\\\\applications\\\\wiki\\\\', 'C:\\\\Python27\\\\web2py\\\\applications\\\\admin\\\\'])"
p1429
asbasbasbag56
(g72
g58
NtRp1430
(dp1431
g61
(dp1432
sg70
g1404
sg63
(lp1433
g56
(g77
g58
NtRp1434
(dp1435
g61
(dp1436
g81
g82
ssg70
g1430
sg63
(lp1437
S'applications_parent'
p1438
asbag56
(g77
g58
NtRp1439
(dp1440
g61
(dp1441
g88
g89
ssg70
g1430
sg63
(lp1442
S':'
asbag56
(g77
g58
NtRp1443
(dp1444
g61
(dp1445
sg70
g1430
sg63
(lp1446
g56
(g57
g58
NtRp1447
(dp1448
g61
(dp1449
g69
I4
ssg70
g1443
sg63
(lp1450
S'C:\\Python27\\web2py'
p1451
asbasbasbag56
(g72
g58
NtRp1452
(dp1453
g61
(dp1454
sg70
g1404
sg63
(lp1455
g56
(g77
g58
NtRp1456
(dp1457
g61
(dp1458
g81
g82
ssg70
g1452
sg63
(lp1459
S'cmd_args'
p1460
asbag56
(g77
g58
NtRp1461
(dp1462
g61
(dp1463
g88
g89
ssg70
g1452
sg63
(lp1464
S':'
asbag56
(g77
g58
NtRp1465
(dp1466
g61
(dp1467
sg70
g1452
sg63
(lp1468
g56
(g57
g58
NtRp1469
(dp1470
g61
(dp1471
g69
I4
ssg70
g1465
sg63
(lp1472
g56
(g65
g58
NtRp1473
(dp1474
g61
(dp1475
g69
I3
ssg70
Nsg63
(lp1476
sbasbasbasbag56
(g72
g58
NtRp1477
(dp1478
g61
(dp1479
sg70
g1404
sg63
(lp1480
g56
(g77
g58
NtRp1481
(dp1482
g61
(dp1483
g81
g82
ssg70
g1477
sg63
(lp1484
S'cmd_options'
p1485
asbag56
(g77
g58
NtRp1486
(dp1487
g61
(dp1488
g88
g89
ssg70
g1477
sg63
(lp1489
S':'
asbag56
(g77
g58
NtRp1490
(dp1491
g61
(dp1492
sg70
g1477
sg63
(lp1493
g56
(g57
g58
NtRp1494
(dp1495
g61
(dp1496
g69
I4
ssg70
g1490
sg63
(lp1497
S"<Values at 0x17c00f8: {'verbose': False, 'ip': '127.0.0.1', 'with_scheduler': False, 'ips': ['192.168.1.100'], 'shutdown_timeout': 5, 'taskbar': False, 'port': 8000, 'maxthreads': None, 'softcron': False, 'server_name': 'FREESKYC-5359CC', 'bpython': False, 'nogui': False, 'pid_filename': 'httpserver.pid', 'extcron': False, 'runcron': False, 'run_system_tests': False, 'test': None, 'folder': 'C:\\\\Python27\\\\web2py', 'config': '', 'import_models': False, 'winservice': '', 'shell': None, 'run': '', 'log_filename': 'httpserver.log', 'debuglevel': 30, 'args': [''], 'socket_timeout': 5, 'ssl_ca_certificate': None, 'scheduler': None, 'profiler_filename': None, 'ssl_private_key': '', 'scheduler_groups': None, 'password': '<ask>', 'request_queue_size': 5, 'ssl_certificate': '', 'cronjob': False, 'numthreads': None, 'quiet': False, 'interfaces': None, 'minthreads': None, 'timeout': 10, 'plain': False, 'nobanner': False}>"
p1498
asbasbasbag56
(g72
g58
NtRp1499
(dp1500
g61
(dp1501
sg70
g1404
sg63
(lp1502
g56
(g77
g58
NtRp1503
(dp1504
g61
(dp1505
g81
g82
ssg70
g1499
sg63
(lp1506
S'content_length'
p1507
asbag56
(g77
g58
NtRp1508
(dp1509
g61
(dp1510
g88
g89
ssg70
g1499
sg63
(lp1511
S':'
asbag56
(g77
g58
NtRp1512
(dp1513
g61
(dp1514
sg70
g1499
sg63
(lp1515
g56
(g57
g58
NtRp1516
(dp1517
g61
(dp1518
g69
I4
ssg70
g1512
sg63
(lp1519
S'908'
p1520
asbasbasbag56
(g72
g58
NtRp1521
(dp1522
g61
(dp1523
sg70
g1404
sg63
(lp1524
g56
(g77
g58
NtRp1525
(dp1526
g61
(dp1527
g81
g82
ssg70
g1521
sg63
(lp1528
S'content_type'
p1529
asbag56
(g77
g58
NtRp1530
(dp1531
g61
(dp1532
g88
g89
ssg70
g1521
sg63
(lp1533
S':'
asbag56
(g77
g58
NtRp1534
(dp1535
g61
(dp1536
sg70
g1521
sg63
(lp1537
g56
(g57
g58
NtRp1538
(dp1539
g61
(dp1540
g69
I4
ssg70
g1534
sg63
(lp1541
S'multipart/form-data; boundary=---------------------------15121117177265'
p1542
asbasbasbag56
(g72
g58
NtRp1543
(dp1544
g61
(dp1545
sg70
g1404
sg63
(lp1546
g56
(g77
g58
NtRp1547
(dp1548
g61
(dp1549
g81
g82
ssg70
g1543
sg63
(lp1550
S'db_sessions'
p1551
asbag56
(g77
g58
NtRp1552
(dp1553
g61
(dp1554
g88
g89
ssg70
g1543
sg63
(lp1555
S':'
asbag56
(g77
g58
NtRp1556
(dp1557
g61
(dp1558
sg70
g1543
sg63
(lp1559
g56
(g57
g58
NtRp1560
(dp1561
g61
(dp1562
g69
I4
ssg70
g1556
sg63
(lp1563
S'set([])'
p1564
asbasbasbag56
(g72
g58
NtRp1565
(dp1566
g61
(dp1567
sg70
g1404
sg63
(lp1568
g56
(g77
g58
NtRp1569
(dp1570
g61
(dp1571
g81
g82
ssg70
g1565
sg63
(lp1572
S'debugging'
p1573
asbag56
(g77
g58
NtRp1574
(dp1575
g61
(dp1576
g88
g89
ssg70
g1565
sg63
(lp1577
S':'
asbag56
(g77
g58
NtRp1578
(dp1579
g61
(dp1580
sg70
g1565
sg63
(lp1581
g56
(g57
g58
NtRp1582
(dp1583
g61
(dp1584
g69
I4
ssg70
g1578
sg63
(lp1585
g99
asbasbasbag56
(g72
g58
NtRp1586
(dp1587
g61
(dp1588
sg70
g1404
sg63
(lp1589
g56
(g77
g58
NtRp1590
(dp1591
g61
(dp1592
g81
g82
ssg70
g1586
sg63
(lp1593
S'gluon_parent'
p1594
asbag56
(g77
g58
NtRp1595
(dp1596
g61
(dp1597
g88
g89
ssg70
g1586
sg63
(lp1598
S':'
asbag56
(g77
g58
NtRp1599
(dp1600
g61
(dp1601
sg70
g1586
sg63
(lp1602
g56
(g57
g58
NtRp1603
(dp1604
g61
(dp1605
g69
I4
ssg70
g1599
sg63
(lp1606
S'C:\\Python27\\web2py'
p1607
asbasbasbag56
(g72
g58
NtRp1608
(dp1609
g61
(dp1610
sg70
g1404
sg63
(lp1611
g56
(g77
g58
NtRp1612
(dp1613
g61
(dp1614
g81
g82
ssg70
g1608
sg63
(lp1615
S'http_accept'
p1616
asbag56
(g77
g58
NtRp1617
(dp1618
g61
(dp1619
g88
g89
ssg70
g1608
sg63
(lp1620
S':'
asbag56
(g77
g58
NtRp1621
(dp1622
g61
(dp1623
sg70
g1608
sg63
(lp1624
g56
(g57
g58
NtRp1625
(dp1626
g61
(dp1627
g69
I4
ssg70
g1621
sg63
(lp1628
S'text/html,application/xhtml+xml,application/xml;q=0.9,*/*;q=0.8'
p1629
asbasbasbag56
(g72
g58
NtRp1630
(dp1631
g61
(dp1632
sg70
g1404
sg63
(lp1633
g56
(g77
g58
NtRp1634
(dp1635
g61
(dp1636
g81
g82
ssg70
g1630
sg63
(lp1637
S'http_accept_encoding'
p1638
asbag56
(g77
g58
NtRp1639
(dp1640
g61
(dp1641
g88
g89
ssg70
g1630
sg63
(lp1642
S':'
asbag56
(g77
g58
NtRp1643
(dp1644
g61
(dp1645
sg70
g1630
sg63
(lp1646
g56
(g57
g58
NtRp1647
(dp1648
g61
(dp1649
g69
I4
ssg70
g1643
sg63
(lp1650
S'gzip, deflate'
p1651
asbasbasbag56
(g72
g58
NtRp1652
(dp1653
g61
(dp1654
sg70
g1404
sg63
(lp1655
g56
(g77
g58
NtRp1656
(dp1657
g61
(dp1658
g81
g82
ssg70
g1652
sg63
(lp1659
S'http_accept_language'
p1660
asbag56
(g77
g58
NtRp1661
(dp1662
g61
(dp1663
g88
g89
ssg70
g1652
sg63
(lp1664
S':'
asbag56
(g77
g58
NtRp1665
(dp1666
g61
(dp1667
sg70
g1652
sg63
(lp1668
g56
(g57
g58
NtRp1669
(dp1670
g61
(dp1671
g69
I4
ssg70
g1665
sg63
(lp1672
S'zh-cn,zh;q=0.8,en-us;q=0.5,en;q=0.3'
p1673
asbasbasbag56
(g72
g58
NtRp1674
(dp1675
g61
(dp1676
sg70
g1404
sg63
(lp1677
g56
(g77
g58
NtRp1678
(dp1679
g61
(dp1680
g81
g82
ssg70
g1674
sg63
(lp1681
S'http_connection'
p1682
asbag56
(g77
g58
NtRp1683
(dp1684
g61
(dp1685
g88
g89
ssg70
g1674
sg63
(lp1686
S':'
asbag56
(g77
g58
NtRp1687
(dp1688
g61
(dp1689
sg70
g1674
sg63
(lp1690
g56
(g57
g58
NtRp1691
(dp1692
g61
(dp1693
g69
I4
ssg70
g1687
sg63
(lp1694
S'keep-alive'
p1695
asbasbasbag56
(g72
g58
NtRp1696
(dp1697
g61
(dp1698
sg70
g1404
sg63
(lp1699
g56
(g77
g58
NtRp1700
(dp1701
g61
(dp1702
g81
g82
ssg70
g1696
sg63
(lp1703
S'http_content_length'
p1704
asbag56
(g77
g58
NtRp1705
(dp1706
g61
(dp1707
g88
g89
ssg70
g1696
sg63
(lp1708
S':'
asbag56
(g77
g58
NtRp1709
(dp1710
g61
(dp1711
sg70
g1696
sg63
(lp1712
g56
(g57
g58
NtRp1713
(dp1714
g61
(dp1715
g69
I4
ssg70
g1709
sg63
(lp1716
g1520
asbasbasbag56
(g72
g58
NtRp1717
(dp1718
g61
(dp1719
sg70
g1404
sg63
(lp1720
g56
(g77
g58
NtRp1721
(dp1722
g61
(dp1723
g81
g82
ssg70
g1717
sg63
(lp1724
S'http_content_type'
p1725
asbag56
(g77
g58
NtRp1726
(dp1727
g61
(dp1728
g88
g89
ssg70
g1717
sg63
(lp1729
S':'
asbag56
(g77
g58
NtRp1730
(dp1731
g61
(dp1732
sg70
g1717
sg63
(lp1733
g56
(g57
g58
NtRp1734
(dp1735
g61
(dp1736
g69
I4
ssg70
g1730
sg63
(lp1737
g1542
asbasbasbag56
(g72
g58
NtRp1738
(dp1739
g61
(dp1740
sg70
g1404
sg63
(lp1741
g56
(g77
g58
NtRp1742
(dp1743
g61
(dp1744
g81
g82
ssg70
g1738
sg63
(lp1745
S'http_cookie'
p1746
asbag56
(g77
g58
NtRp1747
(dp1748
g61
(dp1749
g88
g89
ssg70
g1738
sg63
(lp1750
S':'
asbag56
(g77
g58
NtRp1751
(dp1752
g61
(dp1753
sg70
g1738
sg63
(lp1754
g56
(g57
g58
NtRp1755
(dp1756
g61
(dp1757
g69
I4
ssg70
g1751
sg63
(lp1758
S'session_id_myapp=127.0.0.1-f3a9c343-0f6b-486a-8359-7c4db4445e16; session_id_welcome=127.0.0.1-3ec034c6-3f96-4e6e-837e-9b3c4783d7e6; session_id_test=127.0.0.1-bf7a430c-ff89-45fe-bb33-2bed846ee62d; session_id_admin=127.0.0.1-2d1464ce-f29b-4e42-92ce-a409d3257b63; session_id_regtest=127.0.0.1-4dff0991-97d3-43bf-b725-30b4220acd5e; session_id_wiki=127.0.0.1-d6e684ef-4987-48c4-b480-0c28b0d4b0d9'
p1759
asbasbasbag56
(g72
g58
NtRp1760
(dp1761
g61
(dp1762
sg70
g1404
sg63
(lp1763
g56
(g77
g58
NtRp1764
(dp1765
g61
(dp1766
g81
g82
ssg70
g1760
sg63
(lp1767
S'http_dnt'
p1768
asbag56
(g77
g58
NtRp1769
(dp1770
g61
(dp1771
g88
g89
ssg70
g1760
sg63
(lp1772
S':'
asbag56
(g77
g58
NtRp1773
(dp1774
g61
(dp1775
sg70
g1760
sg63
(lp1776
g56
(g57
g58
NtRp1777
(dp1778
g61
(dp1779
g69
I4
ssg70
g1773
sg63
(lp1780
S'1'
asbasbasbag56
(g72
g58
NtRp1781
(dp1782
g61
(dp1783
sg70
g1404
sg63
(lp1784
g56
(g77
g58
NtRp1785
(dp1786
g61
(dp1787
g81
g82
ssg70
g1781
sg63
(lp1788
S'http_host'
p1789
asbag56
(g77
g58
NtRp1790
(dp1791
g61
(dp1792
g88
g89
ssg70
g1781
sg63
(lp1793
S':'
asbag56
(g77
g58
NtRp1794
(dp1795
g61
(dp1796
sg70
g1781
sg63
(lp1797
g56
(g57
g58
NtRp1798
(dp1799
g61
(dp1800
g69
I4
ssg70
g1794
sg63
(lp1801
S'127.0.0.1:8000'
p1802
asbasbasbag56
(g72
g58
NtRp1803
(dp1804
g61
(dp1805
sg70
g1404
sg63
(lp1806
g56
(g77
g58
NtRp1807
(dp1808
g61
(dp1809
g81
g82
ssg70
g1803
sg63
(lp1810
S'http_referer'
p1811
asbag56
(g77
g58
NtRp1812
(dp1813
g61
(dp1814
g88
g89
ssg70
g1803
sg63
(lp1815
S':'
asbag56
(g77
g58
NtRp1816
(dp1817
g61
(dp1818
sg70
g1803
sg63
(lp1819
g56
(g57
g58
NtRp1820
(dp1821
g61
(dp1822
g69
I4
ssg70
g1816
sg63
(lp1823
S'http://127.0.0.1:8000/admin/wizard/step6'
p1824
asbasbasbag56
(g72
g58
NtRp1825
(dp1826
g61
(dp1827
sg70
g1404
sg63
(lp1828
g56
(g77
g58
NtRp1829
(dp1830
g61
(dp1831
g81
g82
ssg70
g1825
sg63
(lp1832
S'http_user_agent'
p1833
asbag56
(g77
g58
NtRp1834
(dp1835
g61
(dp1836
g88
g89
ssg70
g1825
sg63
(lp1837
S':'
asbag56
(g77
g58
NtRp1838
(dp1839
g61
(dp1840
sg70
g1825
sg63
(lp1841
g56
(g57
g58
NtRp1842
(dp1843
g61
(dp1844
g69
I4
ssg70
g1838
sg63
(lp1845
S'Mozilla/5.0 (Windows NT 5.1; rv:22.0) Gecko/20100101 Firefox/22.0'
p1846
asbasbasbag56
(g72
g58
NtRp1847
(dp1848
g61
(dp1849
sg70
g1404
sg63
(lp1850
g56
(g77
g58
NtRp1851
(dp1852
g61
(dp1853
g81
g82
ssg70
g1847
sg63
(lp1854
S'is_jython'
p1855
asbag56
(g77
g58
NtRp1856
(dp1857
g61
(dp1858
g88
g89
ssg70
g1847
sg63
(lp1859
S':'
asbag56
(g77
g58
NtRp1860
(dp1861
g61
(dp1862
sg70
g1847
sg63
(lp1863
g56
(g57
g58
NtRp1864
(dp1865
g61
(dp1866
g69
I4
ssg70
g1860
sg63
(lp1867
g99
asbasbasbag56
(g72
g58
NtRp1868
(dp1869
g61
(dp1870
sg70
g1404
sg63
(lp1871
g56
(g77
g58
NtRp1872
(dp1873
g61
(dp1874
g81
g82
ssg70
g1868
sg63
(lp1875
S'is_pypy'
p1876
asbag56
(g77
g58
NtRp1877
(dp1878
g61
(dp1879
g88
g89
ssg70
g1868
sg63
(lp1880
S':'
asbag56
(g77
g58
NtRp1881
(dp1882
g61
(dp1883
sg70
g1868
sg63
(lp1884
g56
(g57
g58
NtRp1885
(dp1886
g61
(dp1887
g69
I4
ssg70
g1881
sg63
(lp1888
g99
asbasbasbag56
(g72
g58
NtRp1889
(dp1890
g61
(dp1891
sg70
g1404
sg63
(lp1892
g56
(g77
g58
NtRp1893
(dp1894
g61
(dp1895
g81
g82
ssg70
g1889
sg63
(lp1896
S'local_hosts'
p1897
asbag56
(g77
g58
NtRp1898
(dp1899
g61
(dp1900
g88
g89
ssg70
g1889
sg63
(lp1901
S':'
asbag56
(g77
g58
NtRp1902
(dp1903
g61
(dp1904
sg70
g1889
sg63
(lp1905
g56
(g57
g58
NtRp1906
(dp1907
g61
(dp1908
g69
I4
ssg70
g1902
sg63
(lp1909
g56
(g65
g58
NtRp1910
(dp1911
g61
(dp1912
g69
I3
ssg70
Nsg63
(lp1913
g56
(g72
g58
NtRp1914
(dp1915
g61
(dp1916
sg70
g1910
sg63
(lp1917
g56
(g77
g58
NtRp1918
(dp1919
g61
(dp1920
sg70
g1914
sg63
(lp1921
g56
(g57
g58
NtRp1922
(dp1923
g61
(dp1924
g69
I3
ssg70
g1918
sg63
(lp1925
S'192.168.1.100'
p1926
asbasbasbag56
(g72
g58
NtRp1927
(dp1928
g61
(dp1929
sg70
g1910
sg63
(lp1930
g56
(g77
g58
NtRp1931
(dp1932
g61
(dp1933
sg70
g1927
sg63
(lp1934
g56
(g57
g58
NtRp1935
(dp1936
g61
(dp1937
g69
I3
ssg70
g1931
sg63
(lp1938
S'::1'
p1939
asbasbasbag56
(g72
g58
NtRp1940
(dp1941
g61
(dp1942
sg70
g1910
sg63
(lp1943
g56
(g77
g58
NtRp1944
(dp1945
g61
(dp1946
sg70
g1940
sg63
(lp1947
g56
(g57
g58
NtRp1948
(dp1949
g61
(dp1950
g69
I3
ssg70
g1944
sg63
(lp1951
S'FREESKYC-5359CC'
p1952
asbasbasbag56
(g72
g58
NtRp1953
(dp1954
g61
(dp1955
sg70
g1910
sg63
(lp1956
g56
(g77
g58
NtRp1957
(dp1958
g61
(dp1959
sg70
g1953
sg63
(lp1960
g56
(g57
g58
NtRp1961
(dp1962
g61
(dp1963
g69
I3
ssg70
g1957
sg63
(lp1964
S'::ffff:127.0.0.1'
p1965
asbasbasbag56
(g72
g58
NtRp1966
(dp1967
g61
(dp1968
sg70
g1910
sg63
(lp1969
g56
(g77
g58
NtRp1970
(dp1971
g61
(dp1972
sg70
g1966
sg63
(lp1973
g56
(g57
g58
NtRp1974
(dp1975
g61
(dp1976
g69
I3
ssg70
g1970
sg63
(lp1977
S'127.0.0.1'
p1978
asbasbasbasbasbasbasbag56
(g72
g58
NtRp1979
(dp1980
g61
(dp1981
sg70
g1404
sg63
(lp1982
g56
(g77
g58
NtRp1983
(dp1984
g61
(dp1985
g81
g82
ssg70
g1979
sg63
(lp1986
S'path_info'
p1987
asbag56
(g77
g58
NtRp1988
(dp1989
g61
(dp1990
g88
g89
ssg70
g1979
sg63
(lp1991
S':'
asbag56
(g77
g58
NtRp1992
(dp1993
g61
(dp1994
sg70
g1979
sg63
(lp1995
g56
(g57
g58
NtRp1996
(dp1997
g61
(dp1998
g69
I4
ssg70
g1992
sg63
(lp1999
S'/admin/wizard/step6'
p2000
asbasbasbag56
(g72
g58
NtRp2001
(dp2002
g61
(dp2003
sg70
g1404
sg63
(lp2004
g56
(g77
g58
NtRp2005
(dp2006
g61
(dp2007
g81
g82
ssg70
g2001
sg63
(lp2008
S'query_string'
p2009
asbag56
(g77
g58
NtRp2010
(dp2011
g61
(dp2012
g88
g89
ssg70
g2001
sg63
(lp2013
S':'
asbag56
(g77
g58
NtRp2014
(dp2015
g61
(dp2016
sg70
g2001
sg63
(lp2017
g56
(g57
g58
NtRp2018
(dp2019
g61
(dp2020
g69
I4
ssg70
g2014
sg63
(lp2021
S''
asbasbasbag56
(g72
g58
NtRp2022
(dp2023
g61
(dp2024
sg70
g1404
sg63
(lp2025
g56
(g77
g58
NtRp2026
(dp2027
g61
(dp2028
g81
g82
ssg70
g2022
sg63
(lp2029
S'remote_addr'
p2030
asbag56
(g77
g58
NtRp2031
(dp2032
g61
(dp2033
g88
g89
ssg70
g2022
sg63
(lp2034
S':'
asbag56
(g77
g58
NtRp2035
(dp2036
g61
(dp2037
sg70
g2022
sg63
(lp2038
g56
(g57
g58
NtRp2039
(dp2040
g61
(dp2041
g69
I4
ssg70
g2035
sg63
(lp2042
g211
asbasbasbag56
(g72
g58
NtRp2043
(dp2044
g61
(dp2045
sg70
g1404
sg63
(lp2046
g56
(g77
g58
NtRp2047
(dp2048
g61
(dp2049
g81
g82
ssg70
g2043
sg63
(lp2050
S'remote_port'
p2051
asbag56
(g77
g58
NtRp2052
(dp2053
g61
(dp2054
g88
g89
ssg70
g2043
sg63
(lp2055
S':'
asbag56
(g77
g58
NtRp2056
(dp2057
g61
(dp2058
sg70
g2043
sg63
(lp2059
g56
(g57
g58
NtRp2060
(dp2061
g61
(dp2062
g69
I4
ssg70
g2056
sg63
(lp2063
S'1924'
p2064
asbasbasbag56
(g72
g58
NtRp2065
(dp2066
g61
(dp2067
sg70
g1404
sg63
(lp2068
g56
(g77
g58
NtRp2069
(dp2070
g61
(dp2071
g81
g82
ssg70
g2065
sg63
(lp2072
S'request_method'
p2073
asbag56
(g77
g58
NtRp2074
(dp2075
g61
(dp2076
g88
g89
ssg70
g2065
sg63
(lp2077
S':'
asbag56
(g77
g58
NtRp2078
(dp2079
g61
(dp2080
sg70
g2065
sg63
(lp2081
g56
(g57
g58
NtRp2082
(dp2083
g61
(dp2084
g69
I4
ssg70
g2078
sg63
(lp2085
S'POST'
p2086
asbasbasbag56
(g72
g58
NtRp2087
(dp2088
g61
(dp2089
sg70
g1404
sg63
(lp2090
g56
(g77
g58
NtRp2091
(dp2092
g61
(dp2093
g81
g82
ssg70
g2087
sg63
(lp2094
S'request_uri'
p2095
asbag56
(g77
g58
NtRp2096
(dp2097
g61
(dp2098
g88
g89
ssg70
g2087
sg63
(lp2099
S':'
asbag56
(g77
g58
NtRp2100
(dp2101
g61
(dp2102
sg70
g2087
sg63
(lp2103
g56
(g57
g58
NtRp2104
(dp2105
g61
(dp2106
g69
I4
ssg70
g2100
sg63
(lp2107
g2000
asbasbasbag56
(g72
g58
NtRp2108
(dp2109
g61
(dp2110
sg70
g1404
sg63
(lp2111
g56
(g77
g58
NtRp2112
(dp2113
g61
(dp2114
g81
g82
ssg70
g2108
sg63
(lp2115
S'script_name'
p2116
asbag56
(g77
g58
NtRp2117
(dp2118
g61
(dp2119
g88
g89
ssg70
g2108
sg63
(lp2120
S':'
asbag56
(g77
g58
NtRp2121
(dp2122
g61
(dp2123
sg70
g2108
sg63
(lp2124
g56
(g57
g58
NtRp2125
(dp2126
g61
(dp2127
g69
I4
ssg70
g2121
sg63
(lp2128
S''
asbasbasbag56
(g72
g58
NtRp2129
(dp2130
g61
(dp2131
sg70
g1404
sg63
(lp2132
g56
(g77
g58
NtRp2133
(dp2134
g61
(dp2135
g81
g82
ssg70
g2129
sg63
(lp2136
S'server_name'
p2137
asbag56
(g77
g58
NtRp2138
(dp2139
g61
(dp2140
g88
g89
ssg70
g2129
sg63
(lp2141
S':'
asbag56
(g77
g58
NtRp2142
(dp2143
g61
(dp2144
sg70
g2129
sg63
(lp2145
g56
(g57
g58
NtRp2146
(dp2147
g61
(dp2148
g69
I4
ssg70
g2142
sg63
(lp2149
S'FREESKYC-5359CC'
p2150
asbasbasbag56
(g72
g58
NtRp2151
(dp2152
g61
(dp2153
sg70
g1404
sg63
(lp2154
g56
(g77
g58
NtRp2155
(dp2156
g61
(dp2157
g81
g82
ssg70
g2151
sg63
(lp2158
S'server_port'
p2159
asbag56
(g77
g58
NtRp2160
(dp2161
g61
(dp2162
g88
g89
ssg70
g2151
sg63
(lp2163
S':'
asbag56
(g77
g58
NtRp2164
(dp2165
g61
(dp2166
sg70
g2151
sg63
(lp2167
g56
(g57
g58
NtRp2168
(dp2169
g61
(dp2170
g69
I4
ssg70
g2164
sg63
(lp2171
S'8000'
p2172
asbasbasbag56
(g72
g58
NtRp2173
(dp2174
g61
(dp2175
sg70
g1404
sg63
(lp2176
g56
(g77
g58
NtRp2177
(dp2178
g61
(dp2179
g81
g82
ssg70
g2173
sg63
(lp2180
S'server_protocol'
p2181
asbag56
(g77
g58
NtRp2182
(dp2183
g61
(dp2184
g88
g89
ssg70
g2173
sg63
(lp2185
S':'
asbag56
(g77
g58
NtRp2186
(dp2187
g61
(dp2188
sg70
g2173
sg63
(lp2189
g56
(g57
g58
NtRp2190
(dp2191
g61
(dp2192
g69
I4
ssg70
g2186
sg63
(lp2193
S'HTTP/1.1'
p2194
asbasbasbag56
(g72
g58
NtRp2195
(dp2196
g61
(dp2197
sg70
g1404
sg63
(lp2198
g56
(g77
g58
NtRp2199
(dp2200
g61
(dp2201
g81
g82
ssg70
g2195
sg63
(lp2202
S'server_software'
p2203
asbag56
(g77
g58
NtRp2204
(dp2205
g61
(dp2206
g88
g89
ssg70
g2195
sg63
(lp2207
S':'
asbag56
(g77
g58
NtRp2208
(dp2209
g61
(dp2210
sg70
g2195
sg63
(lp2211
g56
(g57
g58
NtRp2212
(dp2213
g61
(dp2214
g69
I4
ssg70
g2208
sg63
(lp2215
S'Rocket 1.2.6'
p2216
asbasbasbag56
(g72
g58
NtRp2217
(dp2218
g61
(dp2219
sg70
g1404
sg63
(lp2220
g56
(g77
g58
NtRp2221
(dp2222
g61
(dp2223
g81
g82
ssg70
g2217
sg63
(lp2224
S'web2py_path'
p2225
asbag56
(g77
g58
NtRp2226
(dp2227
g61
(dp2228
g88
g89
ssg70
g2217
sg63
(lp2229
S':'
asbag56
(g77
g58
NtRp2230
(dp2231
g61
(dp2232
sg70
g2217
sg63
(lp2233
g56
(g57
g58
NtRp2234
(dp2235
g61
(dp2236
g69
I4
ssg70
g2230
sg63
(lp2237
g1451
asbasbasbag56
(g72
g58
NtRp2238
(dp2239
g61
(dp2240
sg70
g1404
sg63
(lp2241
g56
(g77
g58
NtRp2242
(dp2243
g61
(dp2244
g81
g82
ssg70
g2238
sg63
(lp2245
S'web2py_version'
p2246
asbag56
(g77
g58
NtRp2247
(dp2248
g61
(dp2249
g88
g89
ssg70
g2238
sg63
(lp2250
S':'
asbag56
(g77
g58
NtRp2251
(dp2252
g61
(dp2253
sg70
g2238
sg63
(lp2254
g56
(g57
g58
NtRp2255
(dp2256
g61
(dp2257
g69
I4
ssg70
g2251
sg63
(lp2258
g56
(g65
g58
NtRp2259
(dp2260
g61
(dp2261
g69
I3
ssg70
Nsg63
(lp2262
g56
(g72
g58
NtRp2263
(dp2264
g61
(dp2265
sg70
g2259
sg63
(lp2266
g56
(g77
g58
NtRp2267
(dp2268
g61
(dp2269
sg70
g2263
sg63
(lp2270
g56
(g57
g58
NtRp2271
(dp2272
g61
(dp2273
g69
I3
ssg70
g2267
sg63
(lp2274
S'2'
asbasbasbag56
(g72
g58
NtRp2275
(dp2276
g61
(dp2277
sg70
g2259
sg63
(lp2278
g56
(g77
g58
NtRp2279
(dp2280
g61
(dp2281
sg70
g2275
sg63
(lp2282
g56
(g57
g58
NtRp2283
(dp2284
g61
(dp2285
g69
I3
ssg70
g2279
sg63
(lp2286
S'3'
asbasbasbag56
(g72
g58
NtRp2287
(dp2288
g61
(dp2289
sg70
g2259
sg63
(lp2290
g56
(g77
g58
NtRp2291
(dp2292
g61
(dp2293
sg70
g2287
sg63
(lp2294
g56
(g57
g58
NtRp2295
(dp2296
g61
(dp2297
g69
I3
ssg70
g2291
sg63
(lp2298
S'2'
asbasbasbag56
(g72
g58
NtRp2299
(dp2300
g61
(dp2301
sg70
g2259
sg63
(lp2302
g56
(g77
g58
NtRp2303
(dp2304
g61
(dp2305
sg70
g2299
sg63
(lp2306
g56
(g57
g58
NtRp2307
(dp2308
g61
(dp2309
g69
I3
ssg70
g2303
sg63
(lp2310
S'datetime.datetime(2012, 12, 17, 15, 3, 30)'
p2311
asbasbasbag56
(g72
g58
NtRp2312
(dp2313
g61
(dp2314
sg70
g2259
sg63
(lp2315
g56
(g77
g58
NtRp2316
(dp2317
g61
(dp2318
sg70
g2312
sg63
(lp2319
g56
(g57
g58
NtRp2320
(dp2321
g61
(dp2322
g69
I3
ssg70
g2316
sg63
(lp2323
S'stable'
p2324
asbasbasbasbasbasbasbag56
(g72
g58
NtRp2325
(dp2326
g61
(dp2327
sg70
g1404
sg63
(lp2328
g56
(g77
g58
NtRp2329
(dp2330
g61
(dp2331
g81
g82
ssg70
g2325
sg63
(lp2332
S'wsgi_errors'
p2333
asbag56
(g77
g58
NtRp2334
(dp2335
g61
(dp2336
g88
g89
ssg70
g2325
sg63
(lp2337
S':'
asbag56
(g77
g58
NtRp2338
(dp2339
g61
(dp2340
sg70
g2325
sg63
(lp2341
g56
(g57
g58
NtRp2342
(dp2343
g61
(dp2344
g69
I4
ssg70
g2338
sg63
(lp2345
S"<open file '<stderr>', mode 'w' at 0x00AD50D0>"
p2346
asbasbasbag56
(g72
g58
NtRp2347
(dp2348
g61
(dp2349
sg70
g1404
sg63
(lp2350
g56
(g77
g58
NtRp2351
(dp2352
g61
(dp2353
g81
g82
ssg70
g2347
sg63
(lp2354
S'wsgi_file_wrapper'
p2355
asbag56
(g77
g58
NtRp2356
(dp2357
g61
(dp2358
g88
g89
ssg70
g2347
sg63
(lp2359
S':'
asbag56
(g77
g58
NtRp2360
(dp2361
g61
(dp2362
sg70
g2347
sg63
(lp2363
g56
(g57
g58
NtRp2364
(dp2365
g61
(dp2366
g69
I4
ssg70
g2360
sg63
(lp2367
S'<class wsgiref.util.FileWrapper at 0x01735C38>'
p2368
asbasbasbag56
(g72
g58
NtRp2369
(dp2370
g61
(dp2371
sg70
g1404
sg63
(lp2372
g56
(g77
g58
NtRp2373
(dp2374
g61
(dp2375
g81
g82
ssg70
g2369
sg63
(lp2376
S'wsgi_input'
p2377
asbag56
(g77
g58
NtRp2378
(dp2379
g61
(dp2380
g88
g89
ssg70
g2369
sg63
(lp2381
S':'
asbag56
(g77
g58
NtRp2382
(dp2383
g61
(dp2384
sg70
g2369
sg63
(lp2385
g56
(g57
g58
NtRp2386
(dp2387
g61
(dp2388
g69
I4
ssg70
g2382
sg63
(lp2389
S'<socket._fileobject object at 0x0588C8F0>'
p2390
asbasbasbag56
(g72
g58
NtRp2391
(dp2392
g61
(dp2393
sg70
g1404
sg63
(lp2394
g56
(g77
g58
NtRp2395
(dp2396
g61
(dp2397
g81
g82
ssg70
g2391
sg63
(lp2398
S'wsgi_multiprocess'
p2399
asbag56
(g77
g58
NtRp2400
(dp2401
g61
(dp2402
g88
g89
ssg70
g2391
sg63
(lp2403
S':'
asbag56
(g77
g58
NtRp2404
(dp2405
g61
(dp2406
sg70
g2391
sg63
(lp2407
g56
(g57
g58
NtRp2408
(dp2409
g61
(dp2410
g69
I4
ssg70
g2404
sg63
(lp2411
g99
asbasbasbag56
(g72
g58
NtRp2412
(dp2413
g61
(dp2414
sg70
g1404
sg63
(lp2415
g56
(g77
g58
NtRp2416
(dp2417
g61
(dp2418
g81
g82
ssg70
g2412
sg63
(lp2419
S'wsgi_multithread'
p2420
asbag56
(g77
g58
NtRp2421
(dp2422
g61
(dp2423
g88
g89
ssg70
g2412
sg63
(lp2424
S':'
asbag56
(g77
g58
NtRp2425
(dp2426
g61
(dp2427
sg70
g2412
sg63
(lp2428
g56
(g57
g58
NtRp2429
(dp2430
g61
(dp2431
g69
I4
ssg70
g2425
sg63
(lp2432
S'True'
p2433
asbasbasbag56
(g72
g58
NtRp2434
(dp2435
g61
(dp2436
sg70
g1404
sg63
(lp2437
g56
(g77
g58
NtRp2438
(dp2439
g61
(dp2440
g81
g82
ssg70
g2434
sg63
(lp2441
S'wsgi_run_once'
p2442
asbag56
(g77
g58
NtRp2443
(dp2444
g61
(dp2445
g88
g89
ssg70
g2434
sg63
(lp2446
S':'
asbag56
(g77
g58
NtRp2447
(dp2448
g61
(dp2449
sg70
g2434
sg63
(lp2450
g56
(g57
g58
NtRp2451
(dp2452
g61
(dp2453
g69
I4
ssg70
g2447
sg63
(lp2454
g99
asbasbasbag56
(g72
g58
NtRp2455
(dp2456
g61
(dp2457
sg70
g1404
sg63
(lp2458
g56
(g77
g58
NtRp2459
(dp2460
g61
(dp2461
g81
g82
ssg70
g2455
sg63
(lp2462
S'wsgi_url_scheme'
p2463
asbag56
(g77
g58
NtRp2464
(dp2465
g61
(dp2466
g88
g89
ssg70
g2455
sg63
(lp2467
S':'
asbag56
(g77
g58
NtRp2468
(dp2469
g61
(dp2470
sg70
g2455
sg63
(lp2471
g56
(g57
g58
NtRp2472
(dp2473
g61
(dp2474
g69
I4
ssg70
g2468
sg63
(lp2475
S'http'
p2476
asbasbasbag56
(g72
g58
NtRp2477
(dp2478
g61
(dp2479
sg70
g1404
sg63
(lp2480
g56
(g77
g58
NtRp2481
(dp2482
g61
(dp2483
g81
g82
ssg70
g2477
sg63
(lp2484
S'wsgi_version'
p2485
asbag56
(g77
g58
NtRp2486
(dp2487
g61
(dp2488
g88
g89
ssg70
g2477
sg63
(lp2489
S':'
asbag56
(g77
g58
NtRp2490
(dp2491
g61
(dp2492
sg70
g2477
sg63
(lp2493
g56
(g57
g58
NtRp2494
(dp2495
g61
(dp2496
g69
I4
ssg70
g2490
sg63
(lp2497
g56
(g65
g58
NtRp2498
(dp2499
g61
(dp2500
g69
I3
ssg70
Nsg63
(lp2501
g56
(g72
g58
NtRp2502
(dp2503
g61
(dp2504
sg70
g2498
sg63
(lp2505
g56
(g77
g58
NtRp2506
(dp2507
g61
(dp2508
sg70
g2502
sg63
(lp2509
g56
(g57
g58
NtRp2510
(dp2511
g61
(dp2512
g69
I3
ssg70
g2506
sg63
(lp2513
S'1'
asbasbasbag56
(g72
g58
NtRp2514
(dp2515
g61
(dp2516
sg70
g2498
sg63
(lp2517
g56
(g77
g58
NtRp2518
(dp2519
g61
(dp2520
sg70
g2514
sg63
(lp2521
g56
(g57
g58
NtRp2522
(dp2523
g61
(dp2524
g69
I3
ssg70
g2518
sg63
(lp2525
S'0'
asbasbasbasbasbasbasbasbasbasbasbag56
(g72
g58
NtRp2526
(dp2527
g61
(dp2528
sg70
g66
sg63
(lp2529
g56
(g77
g58
NtRp2530
(dp2531
g61
(dp2532
g81
g82
ssg70
g2526
sg63
(lp2533
S'extension'
p2534
asbag56
(g77
g58
NtRp2535
(dp2536
g61
(dp2537
g88
g89
ssg70
g2526
sg63
(lp2538
S':'
asbag56
(g77
g58
NtRp2539
(dp2540
g61
(dp2541
sg70
g2526
sg63
(lp2542
g56
(g57
g58
NtRp2543
(dp2544
g61
(dp2545
g69
I5
ssg70
g2539
sg63
(lp2546
S'html'
p2547
asbasbasbag56
(g72
g58
NtRp2548
(dp2549
g61
(dp2550
sg70
g66
sg63
(lp2551
g56
(g77
g58
NtRp2552
(dp2553
g61
(dp2554
g81
g82
ssg70
g2548
sg63
(lp2555
S'folder'
p2556
asbag56
(g77
g58
NtRp2557
(dp2558
g61
(dp2559
g88
g89
ssg70
g2548
sg63
(lp2560
S':'
asbag56
(g77
g58
NtRp2561
(dp2562
g61
(dp2563
sg70
g2548
sg63
(lp2564
g56
(g57
g58
NtRp2565
(dp2566
g61
(dp2567
g69
I5
ssg70
g2561
sg63
(lp2568
S'C:\\Python27\\web2py\\applications\\admin\\'
p2569
asbasbasbag56
(g72
g58
NtRp2570
(dp2571
g61
(dp2572
sg70
g66
sg63
(lp2573
g56
(g77
g58
NtRp2574
(dp2575
g61
(dp2576
g81
g82
ssg70
g2570
sg63
(lp2577
S'function'
p2578
asbag56
(g77
g58
NtRp2579
(dp2580
g61
(dp2581
g88
g89
ssg70
g2570
sg63
(lp2582
S':'
asbag56
(g77
g58
NtRp2583
(dp2584
g61
(dp2585
sg70
g2570
sg63
(lp2586
g56
(g57
g58
NtRp2587
(dp2588
g61
(dp2589
g69
I5
ssg70
g2583
sg63
(lp2590
S'step6'
p2591
asbasbasbag56
(g72
g58
NtRp2592
(dp2593
g61
(dp2594
sg70
g66
sg63
(lp2595
g56
(g77
g58
NtRp2596
(dp2597
g61
(dp2598
g81
g82
ssg70
g2592
sg63
(lp2599
S'get_vars'
p2600
asbag56
(g77
g58
NtRp2601
(dp2602
g61
(dp2603
g88
g89
ssg70
g2592
sg63
(lp2604
S':'
asbag56
(g77
g58
NtRp2605
(dp2606
g61
(dp2607
sg70
g2592
sg63
(lp2608
g56
(g57
g58
NtRp2609
(dp2610
g61
(dp2611
g69
I5
ssg70
g2605
sg63
(lp2612
g56
(g65
g58
NtRp2613
(dp2614
g61
(dp2615
g69
I4
ssg70
Nsg63
(lp2616
sbasbasbasbag56
(g72
g58
NtRp2617
(dp2618
g61
(dp2619
sg70
g66
sg63
(lp2620
g56
(g77
g58
NtRp2621
(dp2622
g61
(dp2623
g81
g82
ssg70
g2617
sg63
(lp2624
S'global_settings'
p2625
asbag56
(g77
g58
NtRp2626
(dp2627
g61
(dp2628
g88
g89
ssg70
g2617
sg63
(lp2629
S':'
asbag56
(g77
g58
NtRp2630
(dp2631
g61
(dp2632
sg70
g2617
sg63
(lp2633
g56
(g57
g58
NtRp2634
(dp2635
g61
(dp2636
g69
I5
ssg70
g2630
sg63
(lp2637
g56
(g65
g58
NtRp2638
(dp2639
g61
(dp2640
g69
I4
ssg70
Nsg63
(lp2641
g56
(g72
g58
NtRp2642
(dp2643
g61
(dp2644
sg70
g2638
sg63
(lp2645
g56
(g77
g58
NtRp2646
(dp2647
g61
(dp2648
g81
g82
ssg70
g2642
sg63
(lp2649
g1416
asbag56
(g77
g58
NtRp2650
(dp2651
g61
(dp2652
g88
g89
ssg70
g2642
sg63
(lp2653
S':'
asbag56
(g77
g58
NtRp2654
(dp2655
g61
(dp2656
sg70
g2642
sg63
(lp2657
g56
(g57
g58
NtRp2658
(dp2659
g61
(dp2660
g69
I4
ssg70
g2654
sg63
(lp2661
S"set(['C:\\\\Python27\\\\web2py\\\\applications\\\\test\\\\', 'C:\\\\Python27\\\\web2py\\\\applications\\\\regtest\\\\', 'C:\\\\Python27\\\\web2py\\\\applications\\\\welcome\\\\', 'C:\\\\Python27\\\\web2py\\\\applications\\\\wiki\\\\', 'C:\\\\Python27\\\\web2py\\\\applications\\\\admin\\\\'])"
p2662
asbasbasbag56
(g72
g58
NtRp2663
(dp2664
g61
(dp2665
sg70
g2638
sg63
(lp2666
g56
(g77
g58
NtRp2667
(dp2668
g61
(dp2669
g81
g82
ssg70
g2663
sg63
(lp2670
g1438
asbag56
(g77
g58
NtRp2671
(dp2672
g61
(dp2673
g88
g89
ssg70
g2663
sg63
(lp2674
S':'
asbag56
(g77
g58
NtRp2675
(dp2676
g61
(dp2677
sg70
g2663
sg63
(lp2678
g56
(g57
g58
NtRp2679
(dp2680
g61
(dp2681
g69
I4
ssg70
g2675
sg63
(lp2682
g1451
asbasbasbag56
(g72
g58
NtRp2683
(dp2684
g61
(dp2685
sg70
g2638
sg63
(lp2686
g56
(g77
g58
NtRp2687
(dp2688
g61
(dp2689
g81
g82
ssg70
g2683
sg63
(lp2690
g1460
asbag56
(g77
g58
NtRp2691
(dp2692
g61
(dp2693
g88
g89
ssg70
g2683
sg63
(lp2694
S':'
asbag56
(g77
g58
NtRp2695
(dp2696
g61
(dp2697
sg70
g2683
sg63
(lp2698
g56
(g57
g58
NtRp2699
(dp2700
g61
(dp2701
g69
I4
ssg70
g2695
sg63
(lp2702
g56
(g65
g58
NtRp2703
(dp2704
g61
(dp2705
g69
I3
ssg70
Nsg63
(lp2706
sbasbasbasbag56
(g72
g58
NtRp2707
(dp2708
g61
(dp2709
sg70
g2638
sg63
(lp2710
g56
(g77
g58
NtRp2711
(dp2712
g61
(dp2713
g81
g82
ssg70
g2707
sg63
(lp2714
g1485
asbag56
(g77
g58
NtRp2715
(dp2716
g61
(dp2717
g88
g89
ssg70
g2707
sg63
(lp2718
S':'
asbag56
(g77
g58
NtRp2719
(dp2720
g61
(dp2721
sg70
g2707
sg63
(lp2722
g56
(g57
g58
NtRp2723
(dp2724
g61
(dp2725
g69
I4
ssg70
g2719
sg63
(lp2726
S"<Values at 0x17c00f8: {'verbose': False, 'ip': '127.0.0.1', 'with_scheduler': False, 'ips': ['192.168.1.100'], 'shutdown_timeout': 5, 'taskbar': False, 'port': 8000, 'maxthreads': None, 'softcron': False, 'server_name': 'FREESKYC-5359CC', 'bpython': False, 'nogui': False, 'pid_filename': 'httpserver.pid', 'extcron': False, 'runcron': False, 'run_system_tests': False, 'test': None, 'folder': 'C:\\\\Python27\\\\web2py', 'config': '', 'import_models': False, 'winservice': '', 'shell': None, 'run': '', 'log_filename': 'httpserver.log', 'debuglevel': 30, 'args': [''], 'socket_timeout': 5, 'ssl_ca_certificate': None, 'scheduler': None, 'profiler_filename': None, 'ssl_private_key': '', 'scheduler_groups': None, 'password': '<ask>', 'request_queue_size': 5, 'ssl_certificate': '', 'cronjob': False, 'numthreads': None, 'quiet': False, 'interfaces': None, 'minthreads': None, 'timeout': 10, 'plain': False, 'nobanner': False}>"
p2727
asbasbasbag56
(g72
g58
NtRp2728
(dp2729
g61
(dp2730
sg70
g2638
sg63
(lp2731
g56
(g77
g58
NtRp2732
(dp2733
g61
(dp2734
g81
g82
ssg70
g2728
sg63
(lp2735
g1551
asbag56
(g77
g58
NtRp2736
(dp2737
g61
(dp2738
g88
g89
ssg70
g2728
sg63
(lp2739
S':'
asbag56
(g77
g58
NtRp2740
(dp2741
g61
(dp2742
sg70
g2728
sg63
(lp2743
g56
(g57
g58
NtRp2744
(dp2745
g61
(dp2746
g69
I4
ssg70
g2740
sg63
(lp2747
S'set([])'
p2748
asbasbasbag56
(g72
g58
NtRp2749
(dp2750
g61
(dp2751
sg70
g2638
sg63
(lp2752
g56
(g77
g58
NtRp2753
(dp2754
g61
(dp2755
g81
g82
ssg70
g2749
sg63
(lp2756
g1573
asbag56
(g77
g58
NtRp2757
(dp2758
g61
(dp2759
g88
g89
ssg70
g2749
sg63
(lp2760
S':'
asbag56
(g77
g58
NtRp2761
(dp2762
g61
(dp2763
sg70
g2749
sg63
(lp2764
g56
(g57
g58
NtRp2765
(dp2766
g61
(dp2767
g69
I4
ssg70
g2761
sg63
(lp2768
g99
asbasbasbag56
(g72
g58
NtRp2769
(dp2770
g61
(dp2771
sg70
g2638
sg63
(lp2772
g56
(g77
g58
NtRp2773
(dp2774
g61
(dp2775
g81
g82
ssg70
g2769
sg63
(lp2776
g1594
asbag56
(g77
g58
NtRp2777
(dp2778
g61
(dp2779
g88
g89
ssg70
g2769
sg63
(lp2780
S':'
asbag56
(g77
g58
NtRp2781
(dp2782
g61
(dp2783
sg70
g2769
sg63
(lp2784
g56
(g57
g58
NtRp2785
(dp2786
g61
(dp2787
g69
I4
ssg70
g2781
sg63
(lp2788
g1607
asbasbasbag56
(g72
g58
NtRp2789
(dp2790
g61
(dp2791
sg70
g2638
sg63
(lp2792
g56
(g77
g58
NtRp2793
(dp2794
g61
(dp2795
g81
g82
ssg70
g2789
sg63
(lp2796
g1855
asbag56
(g77
g58
NtRp2797
(dp2798
g61
(dp2799
g88
g89
ssg70
g2789
sg63
(lp2800
S':'
asbag56
(g77
g58
NtRp2801
(dp2802
g61
(dp2803
sg70
g2789
sg63
(lp2804
g56
(g57
g58
NtRp2805
(dp2806
g61
(dp2807
g69
I4
ssg70
g2801
sg63
(lp2808
g99
asbasbasbag56
(g72
g58
NtRp2809
(dp2810
g61
(dp2811
sg70
g2638
sg63
(lp2812
g56
(g77
g58
NtRp2813
(dp2814
g61
(dp2815
g81
g82
ssg70
g2809
sg63
(lp2816
g1876
asbag56
(g77
g58
NtRp2817
(dp2818
g61
(dp2819
g88
g89
ssg70
g2809
sg63
(lp2820
S':'
asbag56
(g77
g58
NtRp2821
(dp2822
g61
(dp2823
sg70
g2809
sg63
(lp2824
g56
(g57
g58
NtRp2825
(dp2826
g61
(dp2827
g69
I4
ssg70
g2821
sg63
(lp2828
g99
asbasbasbag56
(g72
g58
NtRp2829
(dp2830
g61
(dp2831
sg70
g2638
sg63
(lp2832
g56
(g77
g58
NtRp2833
(dp2834
g61
(dp2835
g81
g82
ssg70
g2829
sg63
(lp2836
g1897
asbag56
(g77
g58
NtRp2837
(dp2838
g61
(dp2839
g88
g89
ssg70
g2829
sg63
(lp2840
S':'
asbag56
(g77
g58
NtRp2841
(dp2842
g61
(dp2843
sg70
g2829
sg63
(lp2844
g56
(g57
g58
NtRp2845
(dp2846
g61
(dp2847
g69
I4
ssg70
g2841
sg63
(lp2848
g56
(g65
g58
NtRp2849
(dp2850
g61
(dp2851
g69
I3
ssg70
Nsg63
(lp2852
g56
(g72
g58
NtRp2853
(dp2854
g61
(dp2855
sg70
g2849
sg63
(lp2856
g56
(g77
g58
NtRp2857
(dp2858
g61
(dp2859
sg70
g2853
sg63
(lp2860
g56
(g57
g58
NtRp2861
(dp2862
g61
(dp2863
g69
I3
ssg70
g2857
sg63
(lp2864
g1926
asbasbasbag56
(g72
g58
NtRp2865
(dp2866
g61
(dp2867
sg70
g2849
sg63
(lp2868
g56
(g77
g58
NtRp2869
(dp2870
g61
(dp2871
sg70
g2865
sg63
(lp2872
g56
(g57
g58
NtRp2873
(dp2874
g61
(dp2875
g69
I3
ssg70
g2869
sg63
(lp2876
g1939
asbasbasbag56
(g72
g58
NtRp2877
(dp2878
g61
(dp2879
sg70
g2849
sg63
(lp2880
g56
(g77
g58
NtRp2881
(dp2882
g61
(dp2883
sg70
g2877
sg63
(lp2884
g56
(g57
g58
NtRp2885
(dp2886
g61
(dp2887
g69
I3
ssg70
g2881
sg63
(lp2888
g1952
asbasbasbag56
(g72
g58
NtRp2889
(dp2890
g61
(dp2891
sg70
g2849
sg63
(lp2892
g56
(g77
g58
NtRp2893
(dp2894
g61
(dp2895
sg70
g2889
sg63
(lp2896
g56
(g57
g58
NtRp2897
(dp2898
g61
(dp2899
g69
I3
ssg70
g2893
sg63
(lp2900
g1965
asbasbasbag56
(g72
g58
NtRp2901
(dp2902
g61
(dp2903
sg70
g2849
sg63
(lp2904
g56
(g77
g58
NtRp2905
(dp2906
g61
(dp2907
sg70
g2901
sg63
(lp2908
g56
(g57
g58
NtRp2909
(dp2910
g61
(dp2911
g69
I3
ssg70
g2905
sg63
(lp2912
g1978
asbasbasbasbasbasbasbag56
(g72
g58
NtRp2913
(dp2914
g61
(dp2915
sg70
g2638
sg63
(lp2916
g56
(g77
g58
NtRp2917
(dp2918
g61
(dp2919
g81
g82
ssg70
g2913
sg63
(lp2920
g2246
asbag56
(g77
g58
NtRp2921
(dp2922
g61
(dp2923
g88
g89
ssg70
g2913
sg63
(lp2924
S':'
asbag56
(g77
g58
NtRp2925
(dp2926
g61
(dp2927
sg70
g2913
sg63
(lp2928
g56
(g57
g58
NtRp2929
(dp2930
g61
(dp2931
g69
I4
ssg70
g2925
sg63
(lp2932
g56
(g65
g58
NtRp2933
(dp2934
g61
(dp2935
g69
I3
ssg70
Nsg63
(lp2936
g56
(g72
g58
NtRp2937
(dp2938
g61
(dp2939
sg70
g2933
sg63
(lp2940
g56
(g77
g58
NtRp2941
(dp2942
g61
(dp2943
sg70
g2937
sg63
(lp2944
g56
(g57
g58
NtRp2945
(dp2946
g61
(dp2947
g69
I3
ssg70
g2941
sg63
(lp2948
S'2'
asbasbasbag56
(g72
g58
NtRp2949
(dp2950
g61
(dp2951
sg70
g2933
sg63
(lp2952
g56
(g77
g58
NtRp2953
(dp2954
g61
(dp2955
sg70
g2949
sg63
(lp2956
g56
(g57
g58
NtRp2957
(dp2958
g61
(dp2959
g69
I3
ssg70
g2953
sg63
(lp2960
S'3'
asbasbasbag56
(g72
g58
NtRp2961
(dp2962
g61
(dp2963
sg70
g2933
sg63
(lp2964
g56
(g77
g58
NtRp2965
(dp2966
g61
(dp2967
sg70
g2961
sg63
(lp2968
g56
(g57
g58
NtRp2969
(dp2970
g61
(dp2971
g69
I3
ssg70
g2965
sg63
(lp2972
S'2'
asbasbasbag56
(g72
g58
NtRp2973
(dp2974
g61
(dp2975
sg70
g2933
sg63
(lp2976
g56
(g77
g58
NtRp2977
(dp2978
g61
(dp2979
sg70
g2973
sg63
(lp2980
g56
(g57
g58
NtRp2981
(dp2982
g61
(dp2983
g69
I3
ssg70
g2977
sg63
(lp2984
S'datetime.datetime(2012, 12, 17, 15, 3, 30)'
p2985
asbasbasbag56
(g72
g58
NtRp2986
(dp2987
g61
(dp2988
sg70
g2933
sg63
(lp2989
g56
(g77
g58
NtRp2990
(dp2991
g61
(dp2992
sg70
g2986
sg63
(lp2993
g56
(g57
g58
NtRp2994
(dp2995
g61
(dp2996
g69
I3
ssg70
g2990
sg63
(lp2997
g2324
asbasbasbasbasbasbasbasbasbasbasbag56
(g72
g58
NtRp2998
(dp2999
g61
(dp3000
sg70
g66
sg63
(lp3001
g56
(g77
g58
NtRp3002
(dp3003
g61
(dp3004
g81
g82
ssg70
g2998
sg63
(lp3005
S'is_https'
p3006
asbag56
(g77
g58
NtRp3007
(dp3008
g61
(dp3009
g88
g89
ssg70
g2998
sg63
(lp3010
S':'
asbag56
(g77
g58
NtRp3011
(dp3012
g61
(dp3013
sg70
g2998
sg63
(lp3014
g56
(g57
g58
NtRp3015
(dp3016
g61
(dp3017
g69
I5
ssg70
g3011
sg63
(lp3018
g99
asbasbasbag56
(g72
g58
NtRp3019
(dp3020
g61
(dp3021
sg70
g66
sg63
(lp3022
g56
(g77
g58
NtRp3023
(dp3024
g61
(dp3025
g81
g82
ssg70
g3019
sg63
(lp3026
S'is_local'
p3027
asbag56
(g77
g58
NtRp3028
(dp3029
g61
(dp3030
g88
g89
ssg70
g3019
sg63
(lp3031
S':'
asbag56
(g77
g58
NtRp3032
(dp3033
g61
(dp3034
sg70
g3019
sg63
(lp3035
g56
(g57
g58
NtRp3036
(dp3037
g61
(dp3038
g69
I5
ssg70
g3032
sg63
(lp3039
g2433
asbasbasbag56
(g72
g58
NtRp3040
(dp3041
g61
(dp3042
sg70
g66
sg63
(lp3043
g56
(g77
g58
NtRp3044
(dp3045
g61
(dp3046
g81
g82
ssg70
g3040
sg63
(lp3047
S'is_restful'
p3048
asbag56
(g77
g58
NtRp3049
(dp3050
g61
(dp3051
g88
g89
ssg70
g3040
sg63
(lp3052
S':'
asbag56
(g77
g58
NtRp3053
(dp3054
g61
(dp3055
sg70
g3040
sg63
(lp3056
g56
(g57
g58
NtRp3057
(dp3058
g61
(dp3059
g69
I5
ssg70
g3053
sg63
(lp3060
g99
asbasbasbag56
(g72
g58
NtRp3061
(dp3062
g61
(dp3063
sg70
g66
sg63
(lp3064
g56
(g77
g58
NtRp3065
(dp3066
g61
(dp3067
g81
g82
ssg70
g3061
sg63
(lp3068
S'now'
p3069
asbag56
(g77
g58
NtRp3070
(dp3071
g61
(dp3072
g88
g89
ssg70
g3061
sg63
(lp3073
S':'
asbag56
(g77
g58
NtRp3074
(dp3075
g61
(dp3076
sg70
g3061
sg63
(lp3077
g56
(g57
g58
NtRp3078
(dp3079
g61
(dp3080
g69
I5
ssg70
g3074
sg63
(lp3081
S'datetime.datetime(2013, 8, 7, 9, 52, 59, 671000)'
p3082
asbasbasbag56
(g72
g58
NtRp3083
(dp3084
g61
(dp3085
sg70
g66
sg63
(lp3086
g56
(g77
g58
NtRp3087
(dp3088
g61
(dp3089
g81
g82
ssg70
g3083
sg63
(lp3090
S'post_vars'
p3091
asbag56
(g77
g58
NtRp3092
(dp3093
g61
(dp3094
g88
g89
ssg70
g3083
sg63
(lp3095
S':'
asbag56
(g77
g58
NtRp3096
(dp3097
g61
(dp3098
sg70
g3083
sg63
(lp3099
g56
(g57
g58
NtRp3100
(dp3101
g61
(dp3102
g69
I5
ssg70
g3096
sg63
(lp3103
g56
(g65
g58
NtRp3104
(dp3105
g61
(dp3106
g69
I4
ssg70
Nsg63
(lp3107
g56
(g72
g58
NtRp3108
(dp3109
g61
(dp3110
sg70
g3104
sg63
(lp3111
g56
(g77
g58
NtRp3112
(dp3113
g61
(dp3114
g81
g82
ssg70
g3108
sg63
(lp3115
S'apply_layout'
p3116
asbag56
(g77
g58
NtRp3117
(dp3118
g61
(dp3119
g88
g89
ssg70
g3108
sg63
(lp3120
S':'
asbag56
(g77
g58
NtRp3121
(dp3122
g61
(dp3123
sg70
g3108
sg63
(lp3124
g56
(g57
g58
NtRp3125
(dp3126
g61
(dp3127
g69
I4
ssg70
g3121
sg63
(lp3128
S'on'
p3129
asbasbasbag56
(g72
g58
NtRp3130
(dp3131
g61
(dp3132
sg70
g3104
sg63
(lp3133
g56
(g77
g58
NtRp3134
(dp3135
g61
(dp3136
g81
g82
ssg70
g3130
sg63
(lp3137
S'erase_database'
p3138
asbag56
(g77
g58
NtRp3139
(dp3140
g61
(dp3141
g88
g89
ssg70
g3130
sg63
(lp3142
S':'
asbag56
(g77
g58
NtRp3143
(dp3144
g61
(dp3145
sg70
g3130
sg63
(lp3146
g56
(g57
g58
NtRp3147
(dp3148
g61
(dp3149
g69
I4
ssg70
g3143
sg63
(lp3150
S'on'
p3151
asbasbasbag56
(g72
g58
NtRp3152
(dp3153
g61
(dp3154
sg70
g3104
sg63
(lp3155
g56
(g77
g58
NtRp3156
(dp3157
g61
(dp3158
g81
g82
ssg70
g3152
sg63
(lp3159
S'generate_controller'
p3160
asbag56
(g77
g58
NtRp3161
(dp3162
g61
(dp3163
g88
g89
ssg70
g3152
sg63
(lp3164
S':'
asbag56
(g77
g58
NtRp3165
(dp3166
g61
(dp3167
sg70
g3152
sg63
(lp3168
g56
(g57
g58
NtRp3169
(dp3170
g61
(dp3171
g69
I4
ssg70
g3165
sg63
(lp3172
S'on'
p3173
asbasbasbag56
(g72
g58
NtRp3174
(dp3175
g61
(dp3176
sg70
g3104
sg63
(lp3177
g56
(g77
g58
NtRp3178
(dp3179
g61
(dp3180
g81
g82
ssg70
g3174
sg63
(lp3181
S'generate_menu'
p3182
asbag56
(g77
g58
NtRp3183
(dp3184
g61
(dp3185
g88
g89
ssg70
g3174
sg63
(lp3186
S':'
asbag56
(g77
g58
NtRp3187
(dp3188
g61
(dp3189
sg70
g3174
sg63
(lp3190
g56
(g57
g58
NtRp3191
(dp3192
g61
(dp3193
g69
I4
ssg70
g3187
sg63
(lp3194
S'on'
p3195
asbasbasbag56
(g72
g58
NtRp3196
(dp3197
g61
(dp3198
sg70
g3104
sg63
(lp3199
g56
(g77
g58
NtRp3200
(dp3201
g61
(dp3202
g81
g82
ssg70
g3196
sg63
(lp3203
S'generate_model'
p3204
asbag56
(g77
g58
NtRp3205
(dp3206
g61
(dp3207
g88
g89
ssg70
g3196
sg63
(lp3208
S':'
asbag56
(g77
g58
NtRp3209
(dp3210
g61
(dp3211
sg70
g3196
sg63
(lp3212
g56
(g57
g58
NtRp3213
(dp3214
g61
(dp3215
g69
I4
ssg70
g3209
sg63
(lp3216
S'on'
p3217
asbasbasbag56
(g72
g58
NtRp3218
(dp3219
g61
(dp3220
sg70
g3104
sg63
(lp3221
g56
(g77
g58
NtRp3222
(dp3223
g61
(dp3224
g81
g82
ssg70
g3218
sg63
(lp3225
S'generate_views'
p3226
asbag56
(g77
g58
NtRp3227
(dp3228
g61
(dp3229
g88
g89
ssg70
g3218
sg63
(lp3230
S':'
asbag56
(g77
g58
NtRp3231
(dp3232
g61
(dp3233
sg70
g3218
sg63
(lp3234
g56
(g57
g58
NtRp3235
(dp3236
g61
(dp3237
g69
I4
ssg70
g3231
sg63
(lp3238
S'on'
p3239
asbasbasbag56
(g72
g58
NtRp3240
(dp3241
g61
(dp3242
sg70
g3104
sg63
(lp3243
g56
(g77
g58
NtRp3244
(dp3245
g61
(dp3246
g81
g82
ssg70
g3240
sg63
(lp3247
S'populate_database'
p3248
asbag56
(g77
g58
NtRp3249
(dp3250
g61
(dp3251
g88
g89
ssg70
g3240
sg63
(lp3252
S':'
asbag56
(g77
g58
NtRp3253
(dp3254
g61
(dp3255
sg70
g3240
sg63
(lp3256
g56
(g57
g58
NtRp3257
(dp3258
g61
(dp3259
g69
I4
ssg70
g3253
sg63
(lp3260
S'on'
p3261
asbasbasbasbasbasbasbag56
(g72
g58
NtRp3262
(dp3263
g61
(dp3264
sg70
g66
sg63
(lp3265
g56
(g77
g58
NtRp3266
(dp3267
g61
(dp3268
g81
g82
ssg70
g3262
sg63
(lp3269
S'raw_args'
p3270
asbag56
(g77
g58
NtRp3271
(dp3272
g61
(dp3273
g88
g89
ssg70
g3262
sg63
(lp3274
S':'
asbag56
(g77
g58
NtRp3275
(dp3276
g61
(dp3277
sg70
g3262
sg63
(lp3278
g56
(g57
g58
NtRp3279
(dp3280
g61
(dp3281
g69
I5
ssg70
g3275
sg63
(lp3282
S''
asbasbasbag56
(g72
g58
NtRp3283
(dp3284
g61
(dp3285
sg70
g66
sg63
(lp3286
g56
(g77
g58
NtRp3287
(dp3288
g61
(dp3289
g81
g82
ssg70
g3283
sg63
(lp3290
S'raw_extension'
p3291
asbag56
(g77
g58
NtRp3292
(dp3293
g61
(dp3294
g88
g89
ssg70
g3283
sg63
(lp3295
S':'
asbag56
(g77
g58
NtRp3296
(dp3297
g61
(dp3298
sg70
g3283
sg63
(lp3299
g56
(g57
g58
NtRp3300
(dp3301
g61
(dp3302
g69
I5
ssg70
g3296
sg63
(lp3303
S'None'
p3304
asbasbasbag56
(g72
g58
NtRp3305
(dp3306
g61
(dp3307
sg70
g66
sg63
(lp3308
g56
(g77
g58
NtRp3309
(dp3310
g61
(dp3311
g81
g82
ssg70
g3305
sg63
(lp3312
S'url'
p3313
asbag56
(g77
g58
NtRp3314
(dp3315
g61
(dp3316
g88
g89
ssg70
g3305
sg63
(lp3317
S':'
asbag56
(g77
g58
NtRp3318
(dp3319
g61
(dp3320
sg70
g3305
sg63
(lp3321
g56
(g57
g58
NtRp3322
(dp3323
g61
(dp3324
g69
I5
ssg70
g3318
sg63
(lp3325
g2000
asbasbasbag56
(g72
g58
NtRp3326
(dp3327
g61
(dp3328
sg70
g66
sg63
(lp3329
g56
(g77
g58
NtRp3330
(dp3331
g61
(dp3332
g81
g82
ssg70
g3326
sg63
(lp3333
S'utcnow'
p3334
asbag56
(g77
g58
NtRp3335
(dp3336
g61
(dp3337
g88
g89
ssg70
g3326
sg63
(lp3338
S':'
asbag56
(g77
g58
NtRp3339
(dp3340
g61
(dp3341
sg70
g3326
sg63
(lp3342
g56
(g57
g58
NtRp3343
(dp3344
g61
(dp3345
g69
I5
ssg70
g3339
sg63
(lp3346
S'datetime.datetime(2013, 8, 7, 1, 52, 59, 671000)'
p3347
asbasbasbag56
(g72
g58
NtRp3348
(dp3349
g61
(dp3350
sg70
g66
sg63
(lp3351
g56
(g77
g58
NtRp3352
(dp3353
g61
(dp3354
g81
g82
ssg70
g3348
sg63
(lp3355
S'uuid'
p3356
asbag56
(g77
g58
NtRp3357
(dp3358
g61
(dp3359
g88
g89
ssg70
g3348
sg63
(lp3360
S':'
asbag56
(g77
g58
NtRp3361
(dp3362
g61
(dp3363
sg70
g3348
sg63
(lp3364
g56
(g57
g58
NtRp3365
(dp3366
g61
(dp3367
g69
I5
ssg70
g3361
sg63
(lp3368
S'admin/127.0.0.1.2013-08-07.09-52-59.cd96947f-34ad-44dc-81cb-fd1253c30d78'
p3369
asbasbasbag56
(g72
g58
NtRp3370
(dp3371
g61
(dp3372
sg70
g66
sg63
(lp3373
g56
(g77
g58
NtRp3374
(dp3375
g61
(dp3376
g81
g82
ssg70
g3370
sg63
(lp3377
S'vars'
p3378
asbag56
(g77
g58
NtRp3379
(dp3380
g61
(dp3381
g88
g89
ssg70
g3370
sg63
(lp3382
S':'
asbag56
(g77
g58
NtRp3383
(dp3384
g61
(dp3385
sg70
g3370
sg63
(lp3386
g56
(g57
g58
NtRp3387
(dp3388
g61
(dp3389
g69
I5
ssg70
g3383
sg63
(lp3390
g56
(g65
g58
NtRp3391
(dp3392
g61
(dp3393
g69
I4
ssg70
Nsg63
(lp3394
g56
(g72
g58
NtRp3395
(dp3396
g61
(dp3397
sg70
g3391
sg63
(lp3398
g56
(g77
g58
NtRp3399
(dp3400
g61
(dp3401
g81
g82
ssg70
g3395
sg63
(lp3402
g3116
asbag56
(g77
g58
NtRp3403
(dp3404
g61
(dp3405
g88
g89
ssg70
g3395
sg63
(lp3406
S':'
asbag56
(g77
g58
NtRp3407
(dp3408
g61
(dp3409
sg70
g3395
sg63
(lp3410
g56
(g57
g58
NtRp3411
(dp3412
g61
(dp3413
g69
I4
ssg70
g3407
sg63
(lp3414
g3129
asbasbasbag56
(g72
g58
NtRp3415
(dp3416
g61
(dp3417
sg70
g3391
sg63
(lp3418
g56
(g77
g58
NtRp3419
(dp3420
g61
(dp3421
g81
g82
ssg70
g3415
sg63
(lp3422
g3138
asbag56
(g77
g58
NtRp3423
(dp3424
g61
(dp3425
g88
g89
ssg70
g3415
sg63
(lp3426
S':'
asbag56
(g77
g58
NtRp3427
(dp3428
g61
(dp3429
sg70
g3415
sg63
(lp3430
g56
(g57
g58
NtRp3431
(dp3432
g61
(dp3433
g69
I4
ssg70
g3427
sg63
(lp3434
g3151
asbasbasbag56
(g72
g58
NtRp3435
(dp3436
g61
(dp3437
sg70
g3391
sg63
(lp3438
g56
(g77
g58
NtRp3439
(dp3440
g61
(dp3441
g81
g82
ssg70
g3435
sg63
(lp3442
g3160
asbag56
(g77
g58
NtRp3443
(dp3444
g61
(dp3445
g88
g89
ssg70
g3435
sg63
(lp3446
S':'
asbag56
(g77
g58
NtRp3447
(dp3448
g61
(dp3449
sg70
g3435
sg63
(lp3450
g56
(g57
g58
NtRp3451
(dp3452
g61
(dp3453
g69
I4
ssg70
g3447
sg63
(lp3454
g3173
asbasbasbag56
(g72
g58
NtRp3455
(dp3456
g61
(dp3457
sg70
g3391
sg63
(lp3458
g56
(g77
g58
NtRp3459
(dp3460
g61
(dp3461
g81
g82
ssg70
g3455
sg63
(lp3462
g3182
asbag56
(g77
g58
NtRp3463
(dp3464
g61
(dp3465
g88
g89
ssg70
g3455
sg63
(lp3466
S':'
asbag56
(g77
g58
NtRp3467
(dp3468
g61
(dp3469
sg70
g3455
sg63
(lp3470
g56
(g57
g58
NtRp3471
(dp3472
g61
(dp3473
g69
I4
ssg70
g3467
sg63
(lp3474
g3195
asbasbasbag56
(g72
g58
NtRp3475
(dp3476
g61
(dp3477
sg70
g3391
sg63
(lp3478
g56
(g77
g58
NtRp3479
(dp3480
g61
(dp3481
g81
g82
ssg70
g3475
sg63
(lp3482
g3204
asbag56
(g77
g58
NtRp3483
(dp3484
g61
(dp3485
g88
g89
ssg70
g3475
sg63
(lp3486
S':'
asbag56
(g77
g58
NtRp3487
(dp3488
g61
(dp3489
sg70
g3475
sg63
(lp3490
g56
(g57
g58
NtRp3491
(dp3492
g61
(dp3493
g69
I4
ssg70
g3487
sg63
(lp3494
g3217
asbasbasbag56
(g72
g58
NtRp3495
(dp3496
g61
(dp3497
sg70
g3391
sg63
(lp3498
g56
(g77
g58
NtRp3499
(dp3500
g61
(dp3501
g81
g82
ssg70
g3495
sg63
(lp3502
g3226
asbag56
(g77
g58
NtRp3503
(dp3504
g61
(dp3505
g88
g89
ssg70
g3495
sg63
(lp3506
S':'
asbag56
(g77
g58
NtRp3507
(dp3508
g61
(dp3509
sg70
g3495
sg63
(lp3510
g56
(g57
g58
NtRp3511
(dp3512
g61
(dp3513
g69
I4
ssg70
g3507
sg63
(lp3514
g3239
asbasbasbag56
(g72
g58
NtRp3515
(dp3516
g61
(dp3517
sg70
g3391
sg63
(lp3518
g56
(g77
g58
NtRp3519
(dp3520
g61
(dp3521
g81
g82
ssg70
g3515
sg63
(lp3522
g3248
asbag56
(g77
g58
NtRp3523
(dp3524
g61
(dp3525
g88
g89
ssg70
g3515
sg63
(lp3526
S':'
asbag56
(g77
g58
NtRp3527
(dp3528
g61
(dp3529
sg70
g3515
sg63
(lp3530
g56
(g57
g58
NtRp3531
(dp3532
g61
(dp3533
g69
I4
ssg70
g3527
sg63
(lp3534
g3261
asbasbasbasbasbasbasbag56
(g72
g58
NtRp3535
(dp3536
g61
(dp3537
sg70
g66
sg63
(lp3538
g56
(g77
g58
NtRp3539
(dp3540
g61
(dp3541
g81
g82
ssg70
g3535
sg63
(lp3542
S'wsgi'
p3543
asbag56
(g77
g58
NtRp3544
(dp3545
g61
(dp3546
g88
g89
ssg70
g3535
sg63
(lp3547
S':'
asbag56
(g77
g58
NtRp3548
(dp3549
g61
(dp3550
sg70
g3535
sg63
(lp3551
g56
(g57
g58
NtRp3552
(dp3553
g61
(dp3554
g69
I5
ssg70
g3548
sg63
(lp3555
g56
(g65
g58
NtRp3556
(dp3557
g61
(dp3558
g69
I4
ssg70
Nsg63
(lp3559
g56
(g72
g58
NtRp3560
(dp3561
g61
(dp3562
sg70
g3556
sg63
(lp3563
g56
(g77
g58
NtRp3564
(dp3565
g61
(dp3566
g81
g82
ssg70
g3560
sg63
(lp3567
S'environ'
p3568
asbag56
(g77
g58
NtRp3569
(dp3570
g61
(dp3571
g88
g89
ssg70
g3560
sg63
(lp3572
S':'
asbag56
(g77
g58
NtRp3573
(dp3574
g61
(dp3575
sg70
g3560
sg63
(lp3576
g56
(g57
g58
NtRp3577
(dp3578
g61
(dp3579
g69
I4
ssg70
g3573
sg63
(lp3580
g56
(g65
g58
NtRp3581
(dp3582
g61
(dp3583
g69
I3
ssg70
Nsg63
(lp3584
g56
(g72
g58
NtRp3585
(dp3586
g61
(dp3587
sg70
g3581
sg63
(lp3588
g56
(g77
g58
NtRp3589
(dp3590
g61
(dp3591
g81
g82
ssg70
g3585
sg63
(lp3592
S'CONTENT_LENGTH'
p3593
asbag56
(g77
g58
NtRp3594
(dp3595
g61
(dp3596
g88
g89
ssg70
g3585
sg63
(lp3597
S':'
asbag56
(g77
g58
NtRp3598
(dp3599
g61
(dp3600
sg70
g3585
sg63
(lp3601
g56
(g57
g58
NtRp3602
(dp3603
g61
(dp3604
g69
I3
ssg70
g3598
sg63
(lp3605
g1520
asbasbasbag56
(g72
g58
NtRp3606
(dp3607
g61
(dp3608
sg70
g3581
sg63
(lp3609
g56
(g77
g58
NtRp3610
(dp3611
g61
(dp3612
g81
g82
ssg70
g3606
sg63
(lp3613
S'CONTENT_TYPE'
p3614
asbag56
(g77
g58
NtRp3615
(dp3616
g61
(dp3617
g88
g89
ssg70
g3606
sg63
(lp3618
S':'
asbag56
(g77
g58
NtRp3619
(dp3620
g61
(dp3621
sg70
g3606
sg63
(lp3622
g56
(g57
g58
NtRp3623
(dp3624
g61
(dp3625
g69
I3
ssg70
g3619
sg63
(lp3626
g1542
asbasbasbag56
(g72
g58
NtRp3627
(dp3628
g61
(dp3629
sg70
g3581
sg63
(lp3630
g56
(g77
g58
NtRp3631
(dp3632
g61
(dp3633
g81
g82
ssg70
g3627
sg63
(lp3634
S'HTTP_ACCEPT'
p3635
asbag56
(g77
g58
NtRp3636
(dp3637
g61
(dp3638
g88
g89
ssg70
g3627
sg63
(lp3639
S':'
asbag56
(g77
g58
NtRp3640
(dp3641
g61
(dp3642
sg70
g3627
sg63
(lp3643
g56
(g57
g58
NtRp3644
(dp3645
g61
(dp3646
g69
I3
ssg70
g3640
sg63
(lp3647
g1629
asbasbasbag56
(g72
g58
NtRp3648
(dp3649
g61
(dp3650
sg70
g3581
sg63
(lp3651
g56
(g77
g58
NtRp3652
(dp3653
g61
(dp3654
g81
g82
ssg70
g3648
sg63
(lp3655
S'HTTP_ACCEPT_ENCODING'
p3656
asbag56
(g77
g58
NtRp3657
(dp3658
g61
(dp3659
g88
g89
ssg70
g3648
sg63
(lp3660
S':'
asbag56
(g77
g58
NtRp3661
(dp3662
g61
(dp3663
sg70
g3648
sg63
(lp3664
g56
(g57
g58
NtRp3665
(dp3666
g61
(dp3667
g69
I3
ssg70
g3661
sg63
(lp3668
g1651
asbasbasbag56
(g72
g58
NtRp3669
(dp3670
g61
(dp3671
sg70
g3581
sg63
(lp3672
g56
(g77
g58
NtRp3673
(dp3674
g61
(dp3675
g81
g82
ssg70
g3669
sg63
(lp3676
S'HTTP_ACCEPT_LANGUAGE'
p3677
asbag56
(g77
g58
NtRp3678
(dp3679
g61
(dp3680
g88
g89
ssg70
g3669
sg63
(lp3681
S':'
asbag56
(g77
g58
NtRp3682
(dp3683
g61
(dp3684
sg70
g3669
sg63
(lp3685
g56
(g57
g58
NtRp3686
(dp3687
g61
(dp3688
g69
I3
ssg70
g3682
sg63
(lp3689
g1673
asbasbasbag56
(g72
g58
NtRp3690
(dp3691
g61
(dp3692
sg70
g3581
sg63
(lp3693
g56
(g77
g58
NtRp3694
(dp3695
g61
(dp3696
g81
g82
ssg70
g3690
sg63
(lp3697
S'HTTP_CONNECTION'
p3698
asbag56
(g77
g58
NtRp3699
(dp3700
g61
(dp3701
g88
g89
ssg70
g3690
sg63
(lp3702
S':'
asbag56
(g77
g58
NtRp3703
(dp3704
g61
(dp3705
sg70
g3690
sg63
(lp3706
g56
(g57
g58
NtRp3707
(dp3708
g61
(dp3709
g69
I3
ssg70
g3703
sg63
(lp3710
g1695
asbasbasbag56
(g72
g58
NtRp3711
(dp3712
g61
(dp3713
sg70
g3581
sg63
(lp3714
g56
(g77
g58
NtRp3715
(dp3716
g61
(dp3717
g81
g82
ssg70
g3711
sg63
(lp3718
S'HTTP_CONTENT_LENGTH'
p3719
asbag56
(g77
g58
NtRp3720
(dp3721
g61
(dp3722
g88
g89
ssg70
g3711
sg63
(lp3723
S':'
asbag56
(g77
g58
NtRp3724
(dp3725
g61
(dp3726
sg70
g3711
sg63
(lp3727
g56
(g57
g58
NtRp3728
(dp3729
g61
(dp3730
g69
I3
ssg70
g3724
sg63
(lp3731
g1520
asbasbasbag56
(g72
g58
NtRp3732
(dp3733
g61
(dp3734
sg70
g3581
sg63
(lp3735
g56
(g77
g58
NtRp3736
(dp3737
g61
(dp3738
g81
g82
ssg70
g3732
sg63
(lp3739
S'HTTP_CONTENT_TYPE'
p3740
asbag56
(g77
g58
NtRp3741
(dp3742
g61
(dp3743
g88
g89
ssg70
g3732
sg63
(lp3744
S':'
asbag56
(g77
g58
NtRp3745
(dp3746
g61
(dp3747
sg70
g3732
sg63
(lp3748
g56
(g57
g58
NtRp3749
(dp3750
g61
(dp3751
g69
I3
ssg70
g3745
sg63
(lp3752
g1542
asbasbasbag56
(g72
g58
NtRp3753
(dp3754
g61
(dp3755
sg70
g3581
sg63
(lp3756
g56
(g77
g58
NtRp3757
(dp3758
g61
(dp3759
g81
g82
ssg70
g3753
sg63
(lp3760
S'HTTP_COOKIE'
p3761
asbag56
(g77
g58
NtRp3762
(dp3763
g61
(dp3764
g88
g89
ssg70
g3753
sg63
(lp3765
S':'
asbag56
(g77
g58
NtRp3766
(dp3767
g61
(dp3768
sg70
g3753
sg63
(lp3769
g56
(g57
g58
NtRp3770
(dp3771
g61
(dp3772
g69
I3
ssg70
g3766
sg63
(lp3773
g1759
asbasbasbag56
(g72
g58
NtRp3774
(dp3775
g61
(dp3776
sg70
g3581
sg63
(lp3777
g56
(g77
g58
NtRp3778
(dp3779
g61
(dp3780
g81
g82
ssg70
g3774
sg63
(lp3781
S'HTTP_DNT'
p3782
asbag56
(g77
g58
NtRp3783
(dp3784
g61
(dp3785
g88
g89
ssg70
g3774
sg63
(lp3786
S':'
asbag56
(g77
g58
NtRp3787
(dp3788
g61
(dp3789
sg70
g3774
sg63
(lp3790
g56
(g57
g58
NtRp3791
(dp3792
g61
(dp3793
g69
I3
ssg70
g3787
sg63
(lp3794
S'1'
asbasbasbag56
(g72
g58
NtRp3795
(dp3796
g61
(dp3797
sg70
g3581
sg63
(lp3798
g56
(g77
g58
NtRp3799
(dp3800
g61
(dp3801
g81
g82
ssg70
g3795
sg63
(lp3802
S'HTTP_HOST'
p3803
asbag56
(g77
g58
NtRp3804
(dp3805
g61
(dp3806
g88
g89
ssg70
g3795
sg63
(lp3807
S':'
asbag56
(g77
g58
NtRp3808
(dp3809
g61
(dp3810
sg70
g3795
sg63
(lp3811
g56
(g57
g58
NtRp3812
(dp3813
g61
(dp3814
g69
I3
ssg70
g3808
sg63
(lp3815
g1802
asbasbasbag56
(g72
g58
NtRp3816
(dp3817
g61
(dp3818
sg70
g3581
sg63
(lp3819
g56
(g77
g58
NtRp3820
(dp3821
g61
(dp3822
g81
g82
ssg70
g3816
sg63
(lp3823
S'HTTP_REFERER'
p3824
asbag56
(g77
g58
NtRp3825
(dp3826
g61
(dp3827
g88
g89
ssg70
g3816
sg63
(lp3828
S':'
asbag56
(g77
g58
NtRp3829
(dp3830
g61
(dp3831
sg70
g3816
sg63
(lp3832
g56
(g57
g58
NtRp3833
(dp3834
g61
(dp3835
g69
I3
ssg70
g3829
sg63
(lp3836
g1824
asbasbasbag56
(g72
g58
NtRp3837
(dp3838
g61
(dp3839
sg70
g3581
sg63
(lp3840
g56
(g77
g58
NtRp3841
(dp3842
g61
(dp3843
g81
g82
ssg70
g3837
sg63
(lp3844
S'HTTP_USER_AGENT'
p3845
asbag56
(g77
g58
NtRp3846
(dp3847
g61
(dp3848
g88
g89
ssg70
g3837
sg63
(lp3849
S':'
asbag56
(g77
g58
NtRp3850
(dp3851
g61
(dp3852
sg70
g3837
sg63
(lp3853
g56
(g57
g58
NtRp3854
(dp3855
g61
(dp3856
g69
I3
ssg70
g3850
sg63
(lp3857
g1846
asbasbasbag56
(g72
g58
NtRp3858
(dp3859
g61
(dp3860
sg70
g3581
sg63
(lp3861
g56
(g77
g58
NtRp3862
(dp3863
g61
(dp3864
g81
g82
ssg70
g3858
sg63
(lp3865
S'PATH_INFO'
p3866
asbag56
(g77
g58
NtRp3867
(dp3868
g61
(dp3869
g88
g89
ssg70
g3858
sg63
(lp3870
S':'
asbag56
(g77
g58
NtRp3871
(dp3872
g61
(dp3873
sg70
g3858
sg63
(lp3874
g56
(g57
g58
NtRp3875
(dp3876
g61
(dp3877
g69
I3
ssg70
g3871
sg63
(lp3878
g2000
asbasbasbag56
(g72
g58
NtRp3879
(dp3880
g61
(dp3881
sg70
g3581
sg63
(lp3882
g56
(g77
g58
NtRp3883
(dp3884
g61
(dp3885
g81
g82
ssg70
g3879
sg63
(lp3886
S'QUERY_STRING'
p3887
asbag56
(g77
g58
NtRp3888
(dp3889
g61
(dp3890
g88
g89
ssg70
g3879
sg63
(lp3891
S':'
asbag56
(g77
g58
NtRp3892
(dp3893
g61
(dp3894
sg70
g3879
sg63
(lp3895
g56
(g57
g58
NtRp3896
(dp3897
g61
(dp3898
g69
I3
ssg70
g3892
sg63
(lp3899
S''
asbasbasbag56
(g72
g58
NtRp3900
(dp3901
g61
(dp3902
sg70
g3581
sg63
(lp3903
g56
(g77
g58
NtRp3904
(dp3905
g61
(dp3906
g81
g82
ssg70
g3900
sg63
(lp3907
S'REMOTE_ADDR'
p3908
asbag56
(g77
g58
NtRp3909
(dp3910
g61
(dp3911
g88
g89
ssg70
g3900
sg63
(lp3912
S':'
asbag56
(g77
g58
NtRp3913
(dp3914
g61
(dp3915
sg70
g3900
sg63
(lp3916
g56
(g57
g58
NtRp3917
(dp3918
g61
(dp3919
g69
I3
ssg70
g3913
sg63
(lp3920
g211
asbasbasbag56
(g72
g58
NtRp3921
(dp3922
g61
(dp3923
sg70
g3581
sg63
(lp3924
g56
(g77
g58
NtRp3925
(dp3926
g61
(dp3927
g81
g82
ssg70
g3921
sg63
(lp3928
S'REMOTE_PORT'
p3929
asbag56
(g77
g58
NtRp3930
(dp3931
g61
(dp3932
g88
g89
ssg70
g3921
sg63
(lp3933
S':'
asbag56
(g77
g58
NtRp3934
(dp3935
g61
(dp3936
sg70
g3921
sg63
(lp3937
g56
(g57
g58
NtRp3938
(dp3939
g61
(dp3940
g69
I3
ssg70
g3934
sg63
(lp3941
g2064
asbasbasbag56
(g72
g58
NtRp3942
(dp3943
g61
(dp3944
sg70
g3581
sg63
(lp3945
g56
(g77
g58
NtRp3946
(dp3947
g61
(dp3948
g81
g82
ssg70
g3942
sg63
(lp3949
S'REQUEST_METHOD'
p3950
asbag56
(g77
g58
NtRp3951
(dp3952
g61
(dp3953
g88
g89
ssg70
g3942
sg63
(lp3954
S':'
asbag56
(g77
g58
NtRp3955
(dp3956
g61
(dp3957
sg70
g3942
sg63
(lp3958
g56
(g57
g58
NtRp3959
(dp3960
g61
(dp3961
g69
I3
ssg70
g3955
sg63
(lp3962
g2086
asbasbasbag56
(g72
g58
NtRp3963
(dp3964
g61
(dp3965
sg70
g3581
sg63
(lp3966
g56
(g77
g58
NtRp3967
(dp3968
g61
(dp3969
g81
g82
ssg70
g3963
sg63
(lp3970
S'REQUEST_URI'
p3971
asbag56
(g77
g58
NtRp3972
(dp3973
g61
(dp3974
g88
g89
ssg70
g3963
sg63
(lp3975
S':'
asbag56
(g77
g58
NtRp3976
(dp3977
g61
(dp3978
sg70
g3963
sg63
(lp3979
g56
(g57
g58
NtRp3980
(dp3981
g61
(dp3982
g69
I3
ssg70
g3976
sg63
(lp3983
g2000
asbasbasbag56
(g72
g58
NtRp3984
(dp3985
g61
(dp3986
sg70
g3581
sg63
(lp3987
g56
(g77
g58
NtRp3988
(dp3989
g61
(dp3990
g81
g82
ssg70
g3984
sg63
(lp3991
S'SCRIPT_NAME'
p3992
asbag56
(g77
g58
NtRp3993
(dp3994
g61
(dp3995
g88
g89
ssg70
g3984
sg63
(lp3996
S':'
asbag56
(g77
g58
NtRp3997
(dp3998
g61
(dp3999
sg70
g3984
sg63
(lp4000
g56
(g57
g58
NtRp4001
(dp4002
g61
(dp4003
g69
I3
ssg70
g3997
sg63
(lp4004
S''
asbasbasbag56
(g72
g58
NtRp4005
(dp4006
g61
(dp4007
sg70
g3581
sg63
(lp4008
g56
(g77
g58
NtRp4009
(dp4010
g61
(dp4011
g81
g82
ssg70
g4005
sg63
(lp4012
S'SERVER_NAME'
p4013
asbag56
(g77
g58
NtRp4014
(dp4015
g61
(dp4016
g88
g89
ssg70
g4005
sg63
(lp4017
S':'
asbag56
(g77
g58
NtRp4018
(dp4019
g61
(dp4020
sg70
g4005
sg63
(lp4021
g56
(g57
g58
NtRp4022
(dp4023
g61
(dp4024
g69
I3
ssg70
g4018
sg63
(lp4025
g2150
asbasbasbag56
(g72
g58
NtRp4026
(dp4027
g61
(dp4028
sg70
g3581
sg63
(lp4029
g56
(g77
g58
NtRp4030
(dp4031
g61
(dp4032
g81
g82
ssg70
g4026
sg63
(lp4033
S'SERVER_PORT'
p4034
asbag56
(g77
g58
NtRp4035
(dp4036
g61
(dp4037
g88
g89
ssg70
g4026
sg63
(lp4038
S':'
asbag56
(g77
g58
NtRp4039
(dp4040
g61
(dp4041
sg70
g4026
sg63
(lp4042
g56
(g57
g58
NtRp4043
(dp4044
g61
(dp4045
g69
I3
ssg70
g4039
sg63
(lp4046
g2172
asbasbasbag56
(g72
g58
NtRp4047
(dp4048
g61
(dp4049
sg70
g3581
sg63
(lp4050
g56
(g77
g58
NtRp4051
(dp4052
g61
(dp4053
g81
g82
ssg70
g4047
sg63
(lp4054
S'SERVER_PROTOCOL'
p4055
asbag56
(g77
g58
NtRp4056
(dp4057
g61
(dp4058
g88
g89
ssg70
g4047
sg63
(lp4059
S':'
asbag56
(g77
g58
NtRp4060
(dp4061
g61
(dp4062
sg70
g4047
sg63
(lp4063
g56
(g57
g58
NtRp4064
(dp4065
g61
(dp4066
g69
I3
ssg70
g4060
sg63
(lp4067
g2194
asbasbasbag56
(g72
g58
NtRp4068
(dp4069
g61
(dp4070
sg70
g3581
sg63
(lp4071
g56
(g77
g58
NtRp4072
(dp4073
g61
(dp4074
g81
g82
ssg70
g4068
sg63
(lp4075
S'SERVER_SOFTWARE'
p4076
asbag56
(g77
g58
NtRp4077
(dp4078
g61
(dp4079
g88
g89
ssg70
g4068
sg63
(lp4080
S':'
asbag56
(g77
g58
NtRp4081
(dp4082
g61
(dp4083
sg70
g4068
sg63
(lp4084
g56
(g57
g58
NtRp4085
(dp4086
g61
(dp4087
g69
I3
ssg70
g4081
sg63
(lp4088
g2216
asbasbasbag56
(g72
g58
NtRp4089
(dp4090
g61
(dp4091
sg70
g3581
sg63
(lp4092
g56
(g77
g58
NtRp4093
(dp4094
g61
(dp4095
g81
g82
ssg70
g4089
sg63
(lp4096
S'wsgi.errors'
p4097
asbag56
(g77
g58
NtRp4098
(dp4099
g61
(dp4100
g88
g89
ssg70
g4089
sg63
(lp4101
S':'
asbag56
(g77
g58
NtRp4102
(dp4103
g61
(dp4104
sg70
g4089
sg63
(lp4105
g56
(g57
g58
NtRp4106
(dp4107
g61
(dp4108
g69
I3
ssg70
g4102
sg63
(lp4109
S"<open file '<stderr>', mode 'w' at 0x00AD50D0>"
p4110
asbasbasbag56
(g72
g58
NtRp4111
(dp4112
g61
(dp4113
sg70
g3581
sg63
(lp4114
g56
(g77
g58
NtRp4115
(dp4116
g61
(dp4117
g81
g82
ssg70
g4111
sg63
(lp4118
S'wsgi.file_wrapper'
p4119
asbag56
(g77
g58
NtRp4120
(dp4121
g61
(dp4122
g88
g89
ssg70
g4111
sg63
(lp4123
S':'
asbag56
(g77
g58
NtRp4124
(dp4125
g61
(dp4126
sg70
g4111
sg63
(lp4127
g56
(g57
g58
NtRp4128
(dp4129
g61
(dp4130
g69
I3
ssg70
g4124
sg63
(lp4131
S'<class wsgiref.util.FileWrapper at 0x01735C38>'
p4132
asbasbasbag56
(g72
g58
NtRp4133
(dp4134
g61
(dp4135
sg70
g3581
sg63
(lp4136
g56
(g77
g58
NtRp4137
(dp4138
g61
(dp4139
g81
g82
ssg70
g4133
sg63
(lp4140
S'wsgi.input'
p4141
asbag56
(g77
g58
NtRp4142
(dp4143
g61
(dp4144
g88
g89
ssg70
g4133
sg63
(lp4145
S':'
asbag56
(g77
g58
NtRp4146
(dp4147
g61
(dp4148
sg70
g4133
sg63
(lp4149
g56
(g57
g58
NtRp4150
(dp4151
g61
(dp4152
g69
I3
ssg70
g4146
sg63
(lp4153
S"<open file '<fdopen>', mode 'w+b' at 0x059B2D30>"
p4154
asbasbasbag56
(g72
g58
NtRp4155
(dp4156
g61
(dp4157
sg70
g3581
sg63
(lp4158
g56
(g77
g58
NtRp4159
(dp4160
g61
(dp4161
g81
g82
ssg70
g4155
sg63
(lp4162
S'wsgi.multiprocess'
p4163
asbag56
(g77
g58
NtRp4164
(dp4165
g61
(dp4166
g88
g89
ssg70
g4155
sg63
(lp4167
S':'
asbag56
(g77
g58
NtRp4168
(dp4169
g61
(dp4170
sg70
g4155
sg63
(lp4171
g56
(g57
g58
NtRp4172
(dp4173
g61
(dp4174
g69
I3
ssg70
g4168
sg63
(lp4175
g99
asbasbasbag56
(g72
g58
NtRp4176
(dp4177
g61
(dp4178
sg70
g3581
sg63
(lp4179
g56
(g77
g58
NtRp4180
(dp4181
g61
(dp4182
g81
g82
ssg70
g4176
sg63
(lp4183
S'wsgi.multithread'
p4184
asbag56
(g77
g58
NtRp4185
(dp4186
g61
(dp4187
g88
g89
ssg70
g4176
sg63
(lp4188
S':'
asbag56
(g77
g58
NtRp4189
(dp4190
g61
(dp4191
sg70
g4176
sg63
(lp4192
g56
(g57
g58
NtRp4193
(dp4194
g61
(dp4195
g69
I3
ssg70
g4189
sg63
(lp4196
g2433
asbasbasbag56
(g72
g58
NtRp4197
(dp4198
g61
(dp4199
sg70
g3581
sg63
(lp4200
g56
(g77
g58
NtRp4201
(dp4202
g61
(dp4203
g81
g82
ssg70
g4197
sg63
(lp4204
S'wsgi.run_once'
p4205
asbag56
(g77
g58
NtRp4206
(dp4207
g61
(dp4208
g88
g89
ssg70
g4197
sg63
(lp4209
S':'
asbag56
(g77
g58
NtRp4210
(dp4211
g61
(dp4212
sg70
g4197
sg63
(lp4213
g56
(g57
g58
NtRp4214
(dp4215
g61
(dp4216
g69
I3
ssg70
g4210
sg63
(lp4217
g99
asbasbasbag56
(g72
g58
NtRp4218
(dp4219
g61
(dp4220
sg70
g3581
sg63
(lp4221
g56
(g77
g58
NtRp4222
(dp4223
g61
(dp4224
g81
g82
ssg70
g4218
sg63
(lp4225
S'wsgi.url_scheme'
p4226
asbag56
(g77
g58
NtRp4227
(dp4228
g61
(dp4229
g88
g89
ssg70
g4218
sg63
(lp4230
S':'
asbag56
(g77
g58
NtRp4231
(dp4232
g61
(dp4233
sg70
g4218
sg63
(lp4234
g56
(g57
g58
NtRp4235
(dp4236
g61
(dp4237
g69
I3
ssg70
g4231
sg63
(lp4238
g2476
asbasbasbag56
(g72
g58
NtRp4239
(dp4240
g61
(dp4241
sg70
g3581
sg63
(lp4242
g56
(g77
g58
NtRp4243
(dp4244
g61
(dp4245
g81
g82
ssg70
g4239
sg63
(lp4246
S'wsgi.version'
p4247
asbag56
(g77
g58
NtRp4248
(dp4249
g61
(dp4250
g88
g89
ssg70
g4239
sg63
(lp4251
S':'
asbag56
(g77
g58
NtRp4252
(dp4253
g61
(dp4254
sg70
g4239
sg63
(lp4255
g56
(g57
g58
NtRp4256
(dp4257
g61
(dp4258
g69
I3
ssg70
g4252
sg63
(lp4259
S'1'
asbasbasbasbasbasbasbasbasbasbasbasbasbsS'frames'
p4260
(lp4261
(dp4262
S'file'
p4263
S'C:\\Python27\\web2py\\gluon\\restricted.py'
p4264
sS'dump'
p4265
(dp4266
S'environment'
p4267
S"{'A': <class 'gluon.html.A'>, 'ALLOW_TOGGLE': 'true', 'A_button': <function A_button>, 'B': <class 'gluon.html.B'>, 'BEAUTIFY': <class 'gluon.html.BEAUTIFY'>, 'BODY': <class 'gluon.html.BODY'>, 'BR': <class 'gluon.html.BR'>, 'BUTTON': <class 'gluon.html.BUTTON'>, 'CAT': <class 'gluon.html.CAT'>, 'CENTER': <class 'gluon.html.CENTER'>, ...}"
p4268
sS'ccode'
p4269
S'<code object <module> at 056FEA88, file "C:\\Pyth...pplications\\admin\\controllers/wizard.py", line 3>'
p4270
ssS'lnum'
p4271
I212
sS'lines'
p4272
(dp4273
I207
S'    try:'
p4274
sI208
S'        if isinstance(code, types.CodeType):'
p4275
sI209
S'            ccode = code'
p4276
sI210
S'        else:'
p4277
sI211
S'            ccode = compile2(code, layer)'
p4278
sI212
S'        exec ccode in environment'
p4279
sI213
S'    except HTTP:'
p4280
sI214
S'        raise'
p4281
sI215
S'    except RestrictedError:'
p4282
sI216
S'        # do not encapsulate (obfuscate) the original RestrictedError'
p4283
ssS'call'
p4284
S"(code='# -*- coding: utf-8 -*-\\n\\nimport os\\nimport uuid\\ni...nk(file)\\n\\nresponse._vars=response._caller(step6)\\n', environment={'A': <class 'gluon.html.A'>, 'ALLOW_TOGGLE': 'true', 'A_button': <function A_button>, 'B': <class 'gluon.html.B'>, 'BEAUTIFY': <class 'gluon.html.BEAUTIFY'>, 'BODY': <class 'gluon.html.BODY'>, 'BR': <class 'gluon.html.BR'>, 'BUTTON': <class 'gluon.html.BUTTON'>, 'CAT': <class 'gluon.html.CAT'>, 'CENTER': <class 'gluon.html.CENTER'>, ...}, layer=r'C:\\Python27\\web2py\\applications\\admin\\controllers/wizard.py')"
p4285
sS'func'
p4286
S'restricted'
p4287
sa(dp4288
g4263
S'C:\\Python27\\web2py\\applications\\admin\\controllers\\wizard.py'
p4289
sg4265
(dp4290
sg4271
I607
sg4272
(dp4291
I596
S'            try:'
p4292
sI597
S'                file.write('
p4293
sI598
S"                    make_view(page, session.app.get('page_' + page, '')))"
p4294
sI599
S'            finally:'
p4295
sI600
S'                file.close()'
p4296
sI601
S''
sI602
S'    if options.erase_database:'
p4297
sI603
S"        path = os.path.join(request.folder, '..', app, 'databases', '*')"
p4298
sI604
S'        for file in glob.glob(path):'
p4299
sI605
S'            os.unlink(file)'
p4300
ssg4284
S'()'
p4301
sg4286
S'<module>'
p4302
sa(dp4303
g4263
S'C:\\Python27\\web2py\\gluon\\globals.py'
p4304
sg4265
(dp4305
S'self'
p4306
S'undefined'
p4307
sS'f'
S'<function step6>'
p4308
ssg4271
I193
sg4272
(dp4309
I192
S'        self._vars = None'
p4310
sI193
S'        self._caller = lambda f: f()'
p4311
sI194
S'        self._view_environment = None'
p4312
sI195
S'        self._custom_commit = None'
p4313
sI196
S'        self._custom_rollback = None'
p4314
sI197
S''
sI188
S'        self.menu = []             # used by the default view layout'
p4315
sI189
S'        self.files = []            # used by web2py_ajax.html'
p4316
sI190
S'        self.generic_patterns = []  # patterns to allow generic views'
p4317
sI191
S"        self.delimiters = ('{{', '}}')"
p4318
ssg4284
S'(f=<function step6>)'
p4319
sg4286
S'<lambda>'
p4320
sa(dp4321
g4263
S'C:\\Python27\\web2py\\applications\\admin\\controllers\\wizard.py'
p4322
sg4265
(dp4323
S'global create'
p4324
S'<function create>'
p4325
sS'form.vars'
p4326
S"<Storage {'generate_menu': True, 'apply_layout':...e': True, 'id': None, 'populate_database': True}>"
p4327
sS'form'
p4328
S'<gluon.sqlhtml.SQLFORM object>'
p4329
ssg4271
I250
sg4272
(dp4330
I245
S"        Field('populate_database', 'boolean', default=True))"
p4331
sI246
S'    if form.accepts(request.vars):'
p4332
sI247
S'        if DEMO_MODE:'
p4333
sI248
S"            session.flash = T('Application cannot be generated in demo mode')"
p4334
sI249
S"            redirect(URL('index'))"
p4335
sI250
S'        create(form.vars)'
p4336
sI251
S"        session.flash = 'Application %s created' % app"
p4337
sI252
S"        redirect(URL('generated'))"
p4338
sI253
S'    return dict(step=\'6: Generate app "%s"\' % app, form=form)'
p4339
sI254
S''
ssg4284
S'()'
p4340
sg4286
S'step6'
p4341
sa(dp4342
g4263
S'C:\\Python27\\web2py\\applications\\admin\\controllers\\wizard.py'
p4343
sg4265
(dp4344
S'tables'
p4345
g4307
sS'global session'
p4346
S"<Storage {'debug_commands:admin': [], '_user_age...ssion_hash': '415e8f3ca03cc11415568ebeeab96dd9'}>"
p4347
sS'session.app'
p4348
S"{'name': 'hw1', 'page_answer_manage': '## Manage answer\\n\\n{{=form}}', 'page_course_manage': '## Manage course\\n\\n{{=form}}', 'page_error': '# Error: the document does not exist', 'page_index': '# Welcome to my new app', 'page_netdiskfile_manage': '## Manage netdiskfile\\n\\n{{=form}}', 'page_question_manage': '## Manage question\\n\\n{{=form}}', 'page_score_manage': '## Manage score\\n\\n{{=form}}', 'page_work_manage': '## Manage work\\n\\n{{=form}}', 'pages': ['index', 'error', 'course_manage', 'question_manage', 'answer_manage', 'work_manage', 'score_manage', 'netdiskfile_manage'], ...}"
p4349
sS'global sort_tables'
p4350
S'<function sort_tables>'
p4351
ssg4271
I552
sg4272
(dp4352
I547
S'        model = os.path.join('
p4353
sI548
S"            request.folder, '..', app, 'models', 'db_wizard.py')"
p4354
sI549
S"        file = open(model, 'wb')"
p4355
sI550
S'        try:'
p4356
sI551
S"            file.write('### we prepend t_ to tablenames and f_ to fieldnames for disambiguity\\n\\n')"
p4357
sI552
S"            tables = sort_tables(session.app['tables'])"
p4358
sI553
S'            for table in tables:'
p4359
sI554
S"                if table == 'auth_user':"
p4360
sI555
S'                    continue'
p4361
sI556
S"                file.write(make_table(table, session.app['table_' + table]))"
p4362
ssg4284
S"(options=<Storage {'generate_menu': True, 'apply_layout':...e': True, 'id': None, 'populate_database': True}>)"
p4363
sg4286
S'create'
p4364
sa(dp4365
g4263
S'C:\\Python27\\web2py\\applications\\admin\\controllers\\wizard.py'
p4366
sg4265
(dp4367
S'table'
p4368
S"'question'"
p4369
sS'append'
p4370
S'<function append>'
p4371
ssg4271
I282
sg4272
(dp4372
I277
S'            # if not t==table: (problem, no dropdown for self references)'
p4373
sI278
S'            append(t, trail=trail + [table])'
p4374
sI279
S'        if not table in tables:'
p4375
sI280
S'            tables.append(table)'
p4376
sI281
S'    for table in d:'
p4377
sI282
S'        append(table)'
p4378
sI283
S'    return tables'
p4379
sI284
S''
sI285
S''
sI286
S'def make_table(table, fields):'
p4380
ssg4284
S"(tables=['auth_user', 'netdiskfile', 'work'])"
p4381
sg4286
S'sort_tables'
p4382
sa(dp4383
g4263
S'C:\\Python27\\web2py\\applications\\admin\\controllers\\wizard.py'
p4384
sg4265
(dp4385
S'trail'
p4386
S'[]'
p4387
sS't'
S"'answer'"
p4388
sS'append'
p4389
S'<function append>'
p4390
sS'table'
p4391
S"'question'"
p4392
ssg4271
I278
sg4272
(dp4393
I273
S'    def append(table, trail=[]):'
p4394
sI274
S'        if table in trail:'
p4395
sI275
S'            raise RuntimeError'
p4396
sI276
S'        for t in d[table]:'
p4397
sI277
S'            # if not t==table: (problem, no dropdown for self references)'
p4398
sI278
S'            append(t, trail=trail + [table])'
p4399
sI279
S'        if not table in tables:'
p4400
sI280
S'            tables.append(table)'
p4401
sI281
S'    for table in d:'
p4402
sI282
S'        append(table)'
p4403
ssg4284
S"(table='question', trail=[])"
p4404
sg4286
S'append'
p4405
sa(dp4406
g4263
S'C:\\Python27\\web2py\\applications\\admin\\controllers\\wizard.py'
p4407
sg4265
(dp4408
S'trail'
p4409
S"['question']"
p4410
sS't'
S"'question'"
p4411
sS'append'
p4412
S'<function append>'
p4413
sS'table'
p4414
S"'answer'"
p4415
ssg4271
I278
sg4272
(dp4416
I273
S'    def append(table, trail=[]):'
p4417
sI274
S'        if table in trail:'
p4418
sI275
S'            raise RuntimeError'
p4419
sI276
S'        for t in d[table]:'
p4420
sI277
S'            # if not t==table: (problem, no dropdown for self references)'
p4421
sI278
S'            append(t, trail=trail + [table])'
p4422
sI279
S'        if not table in tables:'
p4423
sI280
S'            tables.append(table)'
p4424
sI281
S'    for table in d:'
p4425
sI282
S'        append(table)'
p4426
ssg4284
S"(table='answer', trail=['question'])"
p4427
sg4286
g4405
sa(dp4428
g4263
S'C:\\Python27\\web2py\\applications\\admin\\controllers\\wizard.py'
p4429
sg4265
(dp4430
S'builtinRuntimeError'
p4431
S"<type 'exceptions.RuntimeError'>"
p4432
ssg4271
I275
sg4272
(dp4433
I270
S'    if is_auth_user:'
p4434
sI271
S"        tables.append('auth_user')"
p4435
sI272
S''
sI273
S'    def append(table, trail=[]):'
p4436
sI274
S'        if table in trail:'
p4437
sI275
S'            raise RuntimeError'
p4438
sI276
S'        for t in d[table]:'
p4439
sI277
S'            # if not t==table: (problem, no dropdown for self references)'
p4440
sI278
S'            append(t, trail=trail + [table])'
p4441
sI279
S'        if not table in tables:'
p4442
ssg4284
S"(table='question', trail=['question', 'answer'])"
p4443
sg4286
g4405
sasS'pyver'
p4444
S'Python 2.7.3: C:\\Python27\\python.exe'
p4445
sS'session'
p4446
g56
(g57
g58
NtRp4447
(dp4448
g61
(dp4449
sg63
(lp4450
g56
(g65
g58
NtRp4451
(dp4452
g61
(dp4453
g69
I5
ssg70
Nsg63
(lp4454
g56
(g72
g58
NtRp4455
(dp4456
g61
(dp4457
sg70
g4451
sg63
(lp4458
g56
(g77
g58
NtRp4459
(dp4460
g61
(dp4461
g81
g82
ssg70
g4455
sg63
(lp4462
S'app'
p4463
asbag56
(g77
g58
NtRp4464
(dp4465
g61
(dp4466
g88
g89
ssg70
g4455
sg63
(lp4467
S':'
asbag56
(g77
g58
NtRp4468
(dp4469
g61
(dp4470
sg70
g4455
sg63
(lp4471
g56
(g57
g58
NtRp4472
(dp4473
g61
(dp4474
g69
I5
ssg70
g4468
sg63
(lp4475
g56
(g65
g58
NtRp4476
(dp4477
g61
(dp4478
g69
I4
ssg70
Nsg63
(lp4479
g56
(g72
g58
NtRp4480
(dp4481
g61
(dp4482
sg70
g4476
sg63
(lp4483
g56
(g77
g58
NtRp4484
(dp4485
g61
(dp4486
g81
g82
ssg70
g4480
sg63
(lp4487
S'name'
p4488
asbag56
(g77
g58
NtRp4489
(dp4490
g61
(dp4491
g88
g89
ssg70
g4480
sg63
(lp4492
S':'
asbag56
(g77
g58
NtRp4493
(dp4494
g61
(dp4495
sg70
g4480
sg63
(lp4496
g56
(g57
g58
NtRp4497
(dp4498
g61
(dp4499
g69
I4
ssg70
g4493
sg63
(lp4500
S'hw1'
p4501
asbasbasbag56
(g72
g58
NtRp4502
(dp4503
g61
(dp4504
sg70
g4476
sg63
(lp4505
g56
(g77
g58
NtRp4506
(dp4507
g61
(dp4508
g81
g82
ssg70
g4502
sg63
(lp4509
S'page_answer_manage'
p4510
asbag56
(g77
g58
NtRp4511
(dp4512
g61
(dp4513
g88
g89
ssg70
g4502
sg63
(lp4514
S':'
asbag56
(g77
g58
NtRp4515
(dp4516
g61
(dp4517
sg70
g4502
sg63
(lp4518
g56
(g57
g58
NtRp4519
(dp4520
g61
(dp4521
g69
I4
ssg70
g4515
sg63
(lp4522
S'## Manage answer\n\n{{=form}}'
p4523
asbasbasbag56
(g72
g58
NtRp4524
(dp4525
g61
(dp4526
sg70
g4476
sg63
(lp4527
g56
(g77
g58
NtRp4528
(dp4529
g61
(dp4530
g81
g82
ssg70
g4524
sg63
(lp4531
S'page_course_manage'
p4532
asbag56
(g77
g58
NtRp4533
(dp4534
g61
(dp4535
g88
g89
ssg70
g4524
sg63
(lp4536
S':'
asbag56
(g77
g58
NtRp4537
(dp4538
g61
(dp4539
sg70
g4524
sg63
(lp4540
g56
(g57
g58
NtRp4541
(dp4542
g61
(dp4543
g69
I4
ssg70
g4537
sg63
(lp4544
S'## Manage course\n\n{{=form}}'
p4545
asbasbasbag56
(g72
g58
NtRp4546
(dp4547
g61
(dp4548
sg70
g4476
sg63
(lp4549
g56
(g77
g58
NtRp4550
(dp4551
g61
(dp4552
g81
g82
ssg70
g4546
sg63
(lp4553
S'page_error'
p4554
asbag56
(g77
g58
NtRp4555
(dp4556
g61
(dp4557
g88
g89
ssg70
g4546
sg63
(lp4558
S':'
asbag56
(g77
g58
NtRp4559
(dp4560
g61
(dp4561
sg70
g4546
sg63
(lp4562
g56
(g57
g58
NtRp4563
(dp4564
g61
(dp4565
g69
I4
ssg70
g4559
sg63
(lp4566
S'# Error: the document does not exist'
p4567
asbasbasbag56
(g72
g58
NtRp4568
(dp4569
g61
(dp4570
sg70
g4476
sg63
(lp4571
g56
(g77
g58
NtRp4572
(dp4573
g61
(dp4574
g81
g82
ssg70
g4568
sg63
(lp4575
S'page_index'
p4576
asbag56
(g77
g58
NtRp4577
(dp4578
g61
(dp4579
g88
g89
ssg70
g4568
sg63
(lp4580
S':'
asbag56
(g77
g58
NtRp4581
(dp4582
g61
(dp4583
sg70
g4568
sg63
(lp4584
g56
(g57
g58
NtRp4585
(dp4586
g61
(dp4587
g69
I4
ssg70
g4581
sg63
(lp4588
S'# Welcome to my new app'
p4589
asbasbasbag56
(g72
g58
NtRp4590
(dp4591
g61
(dp4592
sg70
g4476
sg63
(lp4593
g56
(g77
g58
NtRp4594
(dp4595
g61
(dp4596
g81
g82
ssg70
g4590
sg63
(lp4597
S'page_netdiskfile_manage'
p4598
asbag56
(g77
g58
NtRp4599
(dp4600
g61
(dp4601
g88
g89
ssg70
g4590
sg63
(lp4602
S':'
asbag56
(g77
g58
NtRp4603
(dp4604
g61
(dp4605
sg70
g4590
sg63
(lp4606
g56
(g57
g58
NtRp4607
(dp4608
g61
(dp4609
g69
I4
ssg70
g4603
sg63
(lp4610
S'## Manage netdiskfile\n\n{{=form}}'
p4611
asbasbasbag56
(g72
g58
NtRp4612
(dp4613
g61
(dp4614
sg70
g4476
sg63
(lp4615
g56
(g77
g58
NtRp4616
(dp4617
g61
(dp4618
g81
g82
ssg70
g4612
sg63
(lp4619
S'page_question_manage'
p4620
asbag56
(g77
g58
NtRp4621
(dp4622
g61
(dp4623
g88
g89
ssg70
g4612
sg63
(lp4624
S':'
asbag56
(g77
g58
NtRp4625
(dp4626
g61
(dp4627
sg70
g4612
sg63
(lp4628
g56
(g57
g58
NtRp4629
(dp4630
g61
(dp4631
g69
I4
ssg70
g4625
sg63
(lp4632
S'## Manage question\n\n{{=form}}'
p4633
asbasbasbag56
(g72
g58
NtRp4634
(dp4635
g61
(dp4636
sg70
g4476
sg63
(lp4637
g56
(g77
g58
NtRp4638
(dp4639
g61
(dp4640
g81
g82
ssg70
g4634
sg63
(lp4641
S'page_score_manage'
p4642
asbag56
(g77
g58
NtRp4643
(dp4644
g61
(dp4645
g88
g89
ssg70
g4634
sg63
(lp4646
S':'
asbag56
(g77
g58
NtRp4647
(dp4648
g61
(dp4649
sg70
g4634
sg63
(lp4650
g56
(g57
g58
NtRp4651
(dp4652
g61
(dp4653
g69
I4
ssg70
g4647
sg63
(lp4654
S'## Manage score\n\n{{=form}}'
p4655
asbasbasbag56
(g72
g58
NtRp4656
(dp4657
g61
(dp4658
sg70
g4476
sg63
(lp4659
g56
(g77
g58
NtRp4660
(dp4661
g61
(dp4662
g81
g82
ssg70
g4656
sg63
(lp4663
S'page_work_manage'
p4664
asbag56
(g77
g58
NtRp4665
(dp4666
g61
(dp4667
g88
g89
ssg70
g4656
sg63
(lp4668
S':'
asbag56
(g77
g58
NtRp4669
(dp4670
g61
(dp4671
sg70
g4656
sg63
(lp4672
g56
(g57
g58
NtRp4673
(dp4674
g61
(dp4675
g69
I4
ssg70
g4669
sg63
(lp4676
S'## Manage work\n\n{{=form}}'
p4677
asbasbasbag56
(g72
g58
NtRp4678
(dp4679
g61
(dp4680
sg70
g4476
sg63
(lp4681
g56
(g77
g58
NtRp4682
(dp4683
g61
(dp4684
g81
g82
ssg70
g4678
sg63
(lp4685
S'pages'
p4686
asbag56
(g77
g58
NtRp4687
(dp4688
g61
(dp4689
g88
g89
ssg70
g4678
sg63
(lp4690
S':'
asbag56
(g77
g58
NtRp4691
(dp4692
g61
(dp4693
sg70
g4678
sg63
(lp4694
g56
(g57
g58
NtRp4695
(dp4696
g61
(dp4697
g69
I4
ssg70
g4691
sg63
(lp4698
g56
(g65
g58
NtRp4699
(dp4700
g61
(dp4701
g69
I3
ssg70
Nsg63
(lp4702
g56
(g72
g58
NtRp4703
(dp4704
g61
(dp4705
sg70
g4699
sg63
(lp4706
g56
(g77
g58
NtRp4707
(dp4708
g61
(dp4709
sg70
g4703
sg63
(lp4710
g56
(g57
g58
NtRp4711
(dp4712
g61
(dp4713
g69
I3
ssg70
g4707
sg63
(lp4714
S'index'
p4715
asbasbasbag56
(g72
g58
NtRp4716
(dp4717
g61
(dp4718
sg70
g4699
sg63
(lp4719
g56
(g77
g58
NtRp4720
(dp4721
g61
(dp4722
sg70
g4716
sg63
(lp4723
g56
(g57
g58
NtRp4724
(dp4725
g61
(dp4726
g69
I3
ssg70
g4720
sg63
(lp4727
S'error'
p4728
asbasbasbag56
(g72
g58
NtRp4729
(dp4730
g61
(dp4731
sg70
g4699
sg63
(lp4732
g56
(g77
g58
NtRp4733
(dp4734
g61
(dp4735
sg70
g4729
sg63
(lp4736
g56
(g57
g58
NtRp4737
(dp4738
g61
(dp4739
g69
I3
ssg70
g4733
sg63
(lp4740
S'course_manage'
p4741
asbasbasbag56
(g72
g58
NtRp4742
(dp4743
g61
(dp4744
sg70
g4699
sg63
(lp4745
g56
(g77
g58
NtRp4746
(dp4747
g61
(dp4748
sg70
g4742
sg63
(lp4749
g56
(g57
g58
NtRp4750
(dp4751
g61
(dp4752
g69
I3
ssg70
g4746
sg63
(lp4753
S'question_manage'
p4754
asbasbasbag56
(g72
g58
NtRp4755
(dp4756
g61
(dp4757
sg70
g4699
sg63
(lp4758
g56
(g77
g58
NtRp4759
(dp4760
g61
(dp4761
sg70
g4755
sg63
(lp4762
g56
(g57
g58
NtRp4763
(dp4764
g61
(dp4765
g69
I3
ssg70
g4759
sg63
(lp4766
S'answer_manage'
p4767
asbasbasbag56
(g72
g58
NtRp4768
(dp4769
g61
(dp4770
sg70
g4699
sg63
(lp4771
g56
(g77
g58
NtRp4772
(dp4773
g61
(dp4774
sg70
g4768
sg63
(lp4775
g56
(g57
g58
NtRp4776
(dp4777
g61
(dp4778
g69
I3
ssg70
g4772
sg63
(lp4779
S'work_manage'
p4780
asbasbasbag56
(g72
g58
NtRp4781
(dp4782
g61
(dp4783
sg70
g4699
sg63
(lp4784
g56
(g77
g58
NtRp4785
(dp4786
g61
(dp4787
sg70
g4781
sg63
(lp4788
g56
(g57
g58
NtRp4789
(dp4790
g61
(dp4791
g69
I3
ssg70
g4785
sg63
(lp4792
S'score_manage'
p4793
asbasbasbag56
(g72
g58
NtRp4794
(dp4795
g61
(dp4796
sg70
g4699
sg63
(lp4797
g56
(g77
g58
NtRp4798
(dp4799
g61
(dp4800
sg70
g4794
sg63
(lp4801
g56
(g57
g58
NtRp4802
(dp4803
g61
(dp4804
g69
I3
ssg70
g4798
sg63
(lp4805
S'netdiskfile_manage'
p4806
asbasbasbasbasbasbasbag56
(g72
g58
NtRp4807
(dp4808
g61
(dp4809
sg70
g4476
sg63
(lp4810
g56
(g77
g58
NtRp4811
(dp4812
g61
(dp4813
g81
g82
ssg70
g4807
sg63
(lp4814
S'params'
p4815
asbag56
(g77
g58
NtRp4816
(dp4817
g61
(dp4818
g88
g89
ssg70
g4807
sg63
(lp4819
S':'
asbag56
(g77
g58
NtRp4820
(dp4821
g61
(dp4822
sg70
g4807
sg63
(lp4823
g56
(g57
g58
NtRp4824
(dp4825
g61
(dp4826
g69
I4
ssg70
g4820
sg63
(lp4827
g56
(g65
g58
NtRp4828
(dp4829
g61
(dp4830
g69
I3
ssg70
Nsg63
(lp4831
g56
(g72
g58
NtRp4832
(dp4833
g61
(dp4834
sg70
g4828
sg63
(lp4835
g56
(g77
g58
NtRp4836
(dp4837
g61
(dp4838
sg70
g4832
sg63
(lp4839
g56
(g57
g58
NtRp4840
(dp4841
g61
(dp4842
g69
I3
ssg70
g4836
sg63
(lp4843
g56
(g65
g58
NtRp4844
(dp4845
g61
(dp4846
g69
I2
ssg70
Nsg63
(lp4847
g56
(g72
g58
NtRp4848
(dp4849
g61
(dp4850
sg70
g4844
sg63
(lp4851
g56
(g77
g58
NtRp4852
(dp4853
g61
(dp4854
sg70
g4848
sg63
(lp4855
g56
(g57
g58
NtRp4856
(dp4857
g61
(dp4858
g69
I2
ssg70
g4852
sg63
(lp4859
S'title'
p4860
asbasbasbag56
(g72
g58
NtRp4861
(dp4862
g61
(dp4863
sg70
g4844
sg63
(lp4864
g56
(g77
g58
NtRp4865
(dp4866
g61
(dp4867
sg70
g4861
sg63
(lp4868
g56
(g57
g58
NtRp4869
(dp4870
g61
(dp4871
g69
I2
ssg70
g4865
sg63
(lp4872
S'it classroom'
p4873
asbasbasbasbasbasbasbag56
(g72
g58
NtRp4874
(dp4875
g61
(dp4876
sg70
g4828
sg63
(lp4877
g56
(g77
g58
NtRp4878
(dp4879
g61
(dp4880
sg70
g4874
sg63
(lp4881
g56
(g57
g58
NtRp4882
(dp4883
g61
(dp4884
g69
I3
ssg70
g4878
sg63
(lp4885
g56
(g65
g58
NtRp4886
(dp4887
g61
(dp4888
g69
I2
ssg70
Nsg63
(lp4889
g56
(g72
g58
NtRp4890
(dp4891
g61
(dp4892
sg70
g4886
sg63
(lp4893
g56
(g77
g58
NtRp4894
(dp4895
g61
(dp4896
sg70
g4890
sg63
(lp4897
g56
(g57
g58
NtRp4898
(dp4899
g61
(dp4900
g69
I2
ssg70
g4894
sg63
(lp4901
S'subtitle'
p4902
asbasbasbag56
(g72
g58
NtRp4903
(dp4904
g61
(dp4905
sg70
g4886
sg63
(lp4906
g56
(g77
g58
NtRp4907
(dp4908
g61
(dp4909
sg70
g4903
sg63
(lp4910
g56
(g57
g58
NtRp4911
(dp4912
g61
(dp4913
g69
I2
ssg70
g4907
sg63
(lp4914
S''
asbasbasbasbasbasbasbag56
(g72
g58
NtRp4915
(dp4916
g61
(dp4917
sg70
g4828
sg63
(lp4918
g56
(g77
g58
NtRp4919
(dp4920
g61
(dp4921
sg70
g4915
sg63
(lp4922
g56
(g57
g58
NtRp4923
(dp4924
g61
(dp4925
g69
I3
ssg70
g4919
sg63
(lp4926
g56
(g65
g58
NtRp4927
(dp4928
g61
(dp4929
g69
I2
ssg70
Nsg63
(lp4930
g56
(g72
g58
NtRp4931
(dp4932
g61
(dp4933
sg70
g4927
sg63
(lp4934
g56
(g77
g58
NtRp4935
(dp4936
g61
(dp4937
sg70
g4931
sg63
(lp4938
g56
(g57
g58
NtRp4939
(dp4940
g61
(dp4941
g69
I2
ssg70
g4935
sg63
(lp4942
S'author'
p4943
asbasbasbag56
(g72
g58
NtRp4944
(dp4945
g61
(dp4946
sg70
g4927
sg63
(lp4947
g56
(g77
g58
NtRp4948
(dp4949
g61
(dp4950
sg70
g4944
sg63
(lp4951
g56
(g57
g58
NtRp4952
(dp4953
g61
(dp4954
g69
I2
ssg70
g4948
sg63
(lp4955
S'teacher'
p4956
asbasbasbasbasbasbasbag56
(g72
g58
NtRp4957
(dp4958
g61
(dp4959
sg70
g4828
sg63
(lp4960
g56
(g77
g58
NtRp4961
(dp4962
g61
(dp4963
sg70
g4957
sg63
(lp4964
g56
(g57
g58
NtRp4965
(dp4966
g61
(dp4967
g69
I3
ssg70
g4961
sg63
(lp4968
g56
(g65
g58
NtRp4969
(dp4970
g61
(dp4971
g69
I2
ssg70
Nsg63
(lp4972
g56
(g72
g58
NtRp4973
(dp4974
g61
(dp4975
sg70
g4969
sg63
(lp4976
g56
(g77
g58
NtRp4977
(dp4978
g61
(dp4979
sg70
g4973
sg63
(lp4980
g56
(g57
g58
NtRp4981
(dp4982
g61
(dp4983
g69
I2
ssg70
g4977
sg63
(lp4984
S'author_email'
p4985
asbasbasbag56
(g72
g58
NtRp4986
(dp4987
g61
(dp4988
sg70
g4969
sg63
(lp4989
g56
(g77
g58
NtRp4990
(dp4991
g61
(dp4992
sg70
g4986
sg63
(lp4993
g56
(g57
g58
NtRp4994
(dp4995
g61
(dp4996
g69
I2
ssg70
g4990
sg63
(lp4997
S'you@example.com'
p4998
asbasbasbasbasbasbasbag56
(g72
g58
NtRp4999
(dp5000
g61
(dp5001
sg70
g4828
sg63
(lp5002
g56
(g77
g58
NtRp5003
(dp5004
g61
(dp5005
sg70
g4999
sg63
(lp5006
g56
(g57
g58
NtRp5007
(dp5008
g61
(dp5009
g69
I3
ssg70
g5003
sg63
(lp5010
g56
(g65
g58
NtRp5011
(dp5012
g61
(dp5013
g69
I2
ssg70
Nsg63
(lp5014
g56
(g72
g58
NtRp5015
(dp5016
g61
(dp5017
sg70
g5011
sg63
(lp5018
g56
(g77
g58
NtRp5019
(dp5020
g61
(dp5021
sg70
g5015
sg63
(lp5022
g56
(g57
g58
NtRp5023
(dp5024
g61
(dp5025
g69
I2
ssg70
g5019
sg63
(lp5026
S'keywords'
p5027
asbasbasbag56
(g72
g58
NtRp5028
(dp5029
g61
(dp5030
sg70
g5011
sg63
(lp5031
g56
(g77
g58
NtRp5032
(dp5033
g61
(dp5034
sg70
g5028
sg63
(lp5035
g56
(g57
g58
NtRp5036
(dp5037
g61
(dp5038
g69
I2
ssg70
g5032
sg63
(lp5039
S''
asbasbasbasbasbasbasbag56
(g72
g58
NtRp5040
(dp5041
g61
(dp5042
sg70
g4828
sg63
(lp5043
g56
(g77
g58
NtRp5044
(dp5045
g61
(dp5046
sg70
g5040
sg63
(lp5047
g56
(g57
g58
NtRp5048
(dp5049
g61
(dp5050
g69
I3
ssg70
g5044
sg63
(lp5051
g56
(g65
g58
NtRp5052
(dp5053
g61
(dp5054
g69
I2
ssg70
Nsg63
(lp5055
g56
(g72
g58
NtRp5056
(dp5057
g61
(dp5058
sg70
g5052
sg63
(lp5059
g56
(g77
g58
NtRp5060
(dp5061
g61
(dp5062
sg70
g5056
sg63
(lp5063
g56
(g57
g58
NtRp5064
(dp5065
g61
(dp5066
g69
I2
ssg70
g5060
sg63
(lp5067
S'description'
p5068
asbasbasbag56
(g72
g58
NtRp5069
(dp5070
g61
(dp5071
sg70
g5052
sg63
(lp5072
g56
(g77
g58
NtRp5073
(dp5074
g61
(dp5075
sg70
g5069
sg63
(lp5076
g56
(g57
g58
NtRp5077
(dp5078
g61
(dp5079
g69
I2
ssg70
g5073
sg63
(lp5080
S''
asbasbasbasbasbasbasbag56
(g72
g58
NtRp5081
(dp5082
g61
(dp5083
sg70
g4828
sg63
(lp5084
g56
(g77
g58
NtRp5085
(dp5086
g61
(dp5087
sg70
g5081
sg63
(lp5088
g56
(g57
g58
NtRp5089
(dp5090
g61
(dp5091
g69
I3
ssg70
g5085
sg63
(lp5092
g56
(g65
g58
NtRp5093
(dp5094
g61
(dp5095
g69
I2
ssg70
Nsg63
(lp5096
g56
(g72
g58
NtRp5097
(dp5098
g61
(dp5099
sg70
g5093
sg63
(lp5100
g56
(g77
g58
NtRp5101
(dp5102
g61
(dp5103
sg70
g5097
sg63
(lp5104
g56
(g57
g58
NtRp5105
(dp5106
g61
(dp5107
g69
I2
ssg70
g5101
sg63
(lp5108
S'layout_theme'
p5109
asbasbasbag56
(g72
g58
NtRp5110
(dp5111
g61
(dp5112
sg70
g5093
sg63
(lp5113
g56
(g77
g58
NtRp5114
(dp5115
g61
(dp5116
sg70
g5110
sg63
(lp5117
g56
(g57
g58
NtRp5118
(dp5119
g61
(dp5120
g69
I2
ssg70
g5114
sg63
(lp5121
S'Default'
p5122
asbasbasbasbasbasbasbag56
(g72
g58
NtRp5123
(dp5124
g61
(dp5125
sg70
g4828
sg63
(lp5126
g56
(g77
g58
NtRp5127
(dp5128
g61
(dp5129
sg70
g5123
sg63
(lp5130
g56
(g57
g58
NtRp5131
(dp5132
g61
(dp5133
g69
I3
ssg70
g5127
sg63
(lp5134
g56
(g65
g58
NtRp5135
(dp5136
g61
(dp5137
g69
I2
ssg70
Nsg63
(lp5138
g56
(g72
g58
NtRp5139
(dp5140
g61
(dp5141
sg70
g5135
sg63
(lp5142
g56
(g77
g58
NtRp5143
(dp5144
g61
(dp5145
sg70
g5139
sg63
(lp5146
g56
(g57
g58
NtRp5147
(dp5148
g61
(dp5149
g69
I2
ssg70
g5143
sg63
(lp5150
S'database_uri'
p5151
asbasbasbag56
(g72
g58
NtRp5152
(dp5153
g61
(dp5154
sg70
g5135
sg63
(lp5155
g56
(g77
g58
NtRp5156
(dp5157
g61
(dp5158
sg70
g5152
sg63
(lp5159
g56
(g57
g58
NtRp5160
(dp5161
g61
(dp5162
g69
I2
ssg70
g5156
sg63
(lp5163
S'sqlite://storage.sqlite'
p5164
asbasbasbasbasbasbasbag56
(g72
g58
NtRp5165
(dp5166
g61
(dp5167
sg70
g4828
sg63
(lp5168
g56
(g77
g58
NtRp5169
(dp5170
g61
(dp5171
sg70
g5165
sg63
(lp5172
g56
(g57
g58
NtRp5173
(dp5174
g61
(dp5175
g69
I3
ssg70
g5169
sg63
(lp5176
g56
(g65
g58
NtRp5177
(dp5178
g61
(dp5179
g69
I2
ssg70
Nsg63
(lp5180
g56
(g72
g58
NtRp5181
(dp5182
g61
(dp5183
sg70
g5177
sg63
(lp5184
g56
(g77
g58
NtRp5185
(dp5186
g61
(dp5187
sg70
g5181
sg63
(lp5188
g56
(g57
g58
NtRp5189
(dp5190
g61
(dp5191
g69
I2
ssg70
g5185
sg63
(lp5192
S'security_key'
p5193
asbasbasbag56
(g72
g58
NtRp5194
(dp5195
g61
(dp5196
sg70
g5177
sg63
(lp5197
g56
(g77
g58
NtRp5198
(dp5199
g61
(dp5200
sg70
g5194
sg63
(lp5201
g56
(g57
g58
NtRp5202
(dp5203
g61
(dp5204
g69
I2
ssg70
g5198
sg63
(lp5205
S'7860f416-6ade-4118-9b62-a283258f5da8'
p5206
asbasbasbasbasbasbasbag56
(g72
g58
NtRp5207
(dp5208
g61
(dp5209
sg70
g4828
sg63
(lp5210
g56
(g77
g58
NtRp5211
(dp5212
g61
(dp5213
sg70
g5207
sg63
(lp5214
g56
(g57
g58
NtRp5215
(dp5216
g61
(dp5217
g69
I3
ssg70
g5211
sg63
(lp5218
g56
(g65
g58
NtRp5219
(dp5220
g61
(dp5221
g69
I2
ssg70
Nsg63
(lp5222
g56
(g72
g58
NtRp5223
(dp5224
g61
(dp5225
sg70
g5219
sg63
(lp5226
g56
(g77
g58
NtRp5227
(dp5228
g61
(dp5229
sg70
g5223
sg63
(lp5230
g56
(g57
g58
NtRp5231
(dp5232
g61
(dp5233
g69
I2
ssg70
g5227
sg63
(lp5234
S'email_server'
p5235
asbasbasbag56
(g72
g58
NtRp5236
(dp5237
g61
(dp5238
sg70
g5219
sg63
(lp5239
g56
(g77
g58
NtRp5240
(dp5241
g61
(dp5242
sg70
g5236
sg63
(lp5243
g56
(g57
g58
NtRp5244
(dp5245
g61
(dp5246
g69
I2
ssg70
g5240
sg63
(lp5247
S'localhost'
p5248
asbasbasbasbasbasbasbag56
(g72
g58
NtRp5249
(dp5250
g61
(dp5251
sg70
g4828
sg63
(lp5252
g56
(g77
g58
NtRp5253
(dp5254
g61
(dp5255
sg70
g5249
sg63
(lp5256
g56
(g57
g58
NtRp5257
(dp5258
g61
(dp5259
g69
I3
ssg70
g5253
sg63
(lp5260
g56
(g65
g58
NtRp5261
(dp5262
g61
(dp5263
g69
I2
ssg70
Nsg63
(lp5264
g56
(g72
g58
NtRp5265
(dp5266
g61
(dp5267
sg70
g5261
sg63
(lp5268
g56
(g77
g58
NtRp5269
(dp5270
g61
(dp5271
sg70
g5265
sg63
(lp5272
g56
(g57
g58
NtRp5273
(dp5274
g61
(dp5275
g69
I2
ssg70
g5269
sg63
(lp5276
S'email_sender'
p5277
asbasbasbag56
(g72
g58
NtRp5278
(dp5279
g61
(dp5280
sg70
g5261
sg63
(lp5281
g56
(g77
g58
NtRp5282
(dp5283
g61
(dp5284
sg70
g5278
sg63
(lp5285
g56
(g57
g58
NtRp5286
(dp5287
g61
(dp5288
g69
I2
ssg70
g5282
sg63
(lp5289
S'you@example.com'
p5290
asbasbasbasbasbasbasbag56
(g72
g58
NtRp5291
(dp5292
g61
(dp5293
sg70
g4828
sg63
(lp5294
g56
(g77
g58
NtRp5295
(dp5296
g61
(dp5297
sg70
g5291
sg63
(lp5298
g56
(g57
g58
NtRp5299
(dp5300
g61
(dp5301
g69
I3
ssg70
g5295
sg63
(lp5302
g56
(g65
g58
NtRp5303
(dp5304
g61
(dp5305
g69
I2
ssg70
Nsg63
(lp5306
g56
(g72
g58
NtRp5307
(dp5308
g61
(dp5309
sg70
g5303
sg63
(lp5310
g56
(g77
g58
NtRp5311
(dp5312
g61
(dp5313
sg70
g5307
sg63
(lp5314
g56
(g57
g58
NtRp5315
(dp5316
g61
(dp5317
g69
I2
ssg70
g5311
sg63
(lp5318
S'email_login'
p5319
asbasbasbag56
(g72
g58
NtRp5320
(dp5321
g61
(dp5322
sg70
g5303
sg63
(lp5323
g56
(g77
g58
NtRp5324
(dp5325
g61
(dp5326
sg70
g5320
sg63
(lp5327
g56
(g57
g58
NtRp5328
(dp5329
g61
(dp5330
g69
I2
ssg70
g5324
sg63
(lp5331
S''
asbasbasbasbasbasbasbag56
(g72
g58
NtRp5332
(dp5333
g61
(dp5334
sg70
g4828
sg63
(lp5335
g56
(g77
g58
NtRp5336
(dp5337
g61
(dp5338
sg70
g5332
sg63
(lp5339
g56
(g57
g58
NtRp5340
(dp5341
g61
(dp5342
g69
I3
ssg70
g5336
sg63
(lp5343
g56
(g65
g58
NtRp5344
(dp5345
g61
(dp5346
g69
I2
ssg70
Nsg63
(lp5347
g56
(g72
g58
NtRp5348
(dp5349
g61
(dp5350
sg70
g5344
sg63
(lp5351
g56
(g77
g58
NtRp5352
(dp5353
g61
(dp5354
sg70
g5348
sg63
(lp5355
g56
(g57
g58
NtRp5356
(dp5357
g61
(dp5358
g69
I2
ssg70
g5352
sg63
(lp5359
S'login_method'
p5360
asbasbasbag56
(g72
g58
NtRp5361
(dp5362
g61
(dp5363
sg70
g5344
sg63
(lp5364
g56
(g77
g58
NtRp5365
(dp5366
g61
(dp5367
sg70
g5361
sg63
(lp5368
g56
(g57
g58
NtRp5369
(dp5370
g61
(dp5371
g69
I2
ssg70
g5365
sg63
(lp5372
S'local'
p5373
asbasbasbasbasbasbasbag56
(g72
g58
NtRp5374
(dp5375
g61
(dp5376
sg70
g4828
sg63
(lp5377
g56
(g77
g58
NtRp5378
(dp5379
g61
(dp5380
sg70
g5374
sg63
(lp5381
g56
(g57
g58
NtRp5382
(dp5383
g61
(dp5384
g69
I3
ssg70
g5378
sg63
(lp5385
g56
(g65
g58
NtRp5386
(dp5387
g61
(dp5388
g69
I2
ssg70
Nsg63
(lp5389
g56
(g72
g58
NtRp5390
(dp5391
g61
(dp5392
sg70
g5386
sg63
(lp5393
g56
(g77
g58
NtRp5394
(dp5395
g61
(dp5396
sg70
g5390
sg63
(lp5397
g56
(g57
g58
NtRp5398
(dp5399
g61
(dp5400
g69
I2
ssg70
g5394
sg63
(lp5401
S'login_config'
p5402
asbasbasbag56
(g72
g58
NtRp5403
(dp5404
g61
(dp5405
sg70
g5386
sg63
(lp5406
g56
(g77
g58
NtRp5407
(dp5408
g61
(dp5409
sg70
g5403
sg63
(lp5410
g56
(g57
g58
NtRp5411
(dp5412
g61
(dp5413
g69
I2
ssg70
g5407
sg63
(lp5414
S''
asbasbasbasbasbasbasbag56
(g72
g58
NtRp5415
(dp5416
g61
(dp5417
sg70
g4828
sg63
(lp5418
g56
(g77
g58
NtRp5419
(dp5420
g61
(dp5421
sg70
g5415
sg63
(lp5422
g56
(g57
g58
NtRp5423
(dp5424
g61
(dp5425
g69
I3
ssg70
g5419
sg63
(lp5426
g56
(g65
g58
NtRp5427
(dp5428
g61
(dp5429
g69
I2
ssg70
Nsg63
(lp5430
g56
(g72
g58
NtRp5431
(dp5432
g61
(dp5433
sg70
g5427
sg63
(lp5434
g56
(g77
g58
NtRp5435
(dp5436
g61
(dp5437
sg70
g5431
sg63
(lp5438
g56
(g57
g58
NtRp5439
(dp5440
g61
(dp5441
g69
I2
ssg70
g5435
sg63
(lp5442
S'plugins'
p5443
asbasbasbag56
(g72
g58
NtRp5444
(dp5445
g61
(dp5446
sg70
g5427
sg63
(lp5447
g56
(g77
g58
NtRp5448
(dp5449
g61
(dp5450
sg70
g5444
sg63
(lp5451
g56
(g57
g58
NtRp5452
(dp5453
g61
(dp5454
g69
I2
ssg70
g5448
sg63
(lp5455
g56
(g65
g58
NtRp5456
(dp5457
g61
(dp5458
g69
I1
ssg70
Nsg63
(lp5459
sbasbasbasbasbasbasbasbasbasbasbasbag56
(g72
g58
NtRp5460
(dp5461
g61
(dp5462
sg70
g4476
sg63
(lp5463
g56
(g77
g58
NtRp5464
(dp5465
g61
(dp5466
g81
g82
ssg70
g5460
sg63
(lp5467
S'table_answer'
p5468
asbag56
(g77
g58
NtRp5469
(dp5470
g61
(dp5471
g88
g89
ssg70
g5460
sg63
(lp5472
S':'
asbag56
(g77
g58
NtRp5473
(dp5474
g61
(dp5475
sg70
g5460
sg63
(lp5476
g56
(g57
g58
NtRp5477
(dp5478
g61
(dp5479
g69
I4
ssg70
g5473
sg63
(lp5480
g56
(g65
g58
NtRp5481
(dp5482
g61
(dp5483
g69
I3
ssg70
Nsg63
(lp5484
g56
(g72
g58
NtRp5485
(dp5486
g61
(dp5487
sg70
g5481
sg63
(lp5488
g56
(g77
g58
NtRp5489
(dp5490
g61
(dp5491
sg70
g5485
sg63
(lp5492
g56
(g57
g58
NtRp5493
(dp5494
g61
(dp5495
g69
I3
ssg70
g5489
sg63
(lp5496
S'questionid'
p5497
asbasbasbag56
(g72
g58
NtRp5498
(dp5499
g61
(dp5500
sg70
g5481
sg63
(lp5501
g56
(g77
g58
NtRp5502
(dp5503
g61
(dp5504
sg70
g5498
sg63
(lp5505
g56
(g57
g58
NtRp5506
(dp5507
g61
(dp5508
g69
I3
ssg70
g5502
sg63
(lp5509
S'bywho'
p5510
asbasbasbag56
(g72
g58
NtRp5511
(dp5512
g61
(dp5513
sg70
g5481
sg63
(lp5514
g56
(g77
g58
NtRp5515
(dp5516
g61
(dp5517
sg70
g5511
sg63
(lp5518
g56
(g57
g58
NtRp5519
(dp5520
g61
(dp5521
g69
I3
ssg70
g5515
sg63
(lp5522
S'content'
p5523
asbasbasbasbasbasbasbag56
(g72
g58
NtRp5524
(dp5525
g61
(dp5526
sg70
g4476
sg63
(lp5527
g56
(g77
g58
NtRp5528
(dp5529
g61
(dp5530
g81
g82
ssg70
g5524
sg63
(lp5531
S'table_auth_user'
p5532
asbag56
(g77
g58
NtRp5533
(dp5534
g61
(dp5535
g88
g89
ssg70
g5524
sg63
(lp5536
S':'
asbag56
(g77
g58
NtRp5537
(dp5538
g61
(dp5539
sg70
g5524
sg63
(lp5540
g56
(g57
g58
NtRp5541
(dp5542
g61
(dp5543
g69
I4
ssg70
g5537
sg63
(lp5544
g56
(g65
g58
NtRp5545
(dp5546
g61
(dp5547
g69
I3
ssg70
Nsg63
(lp5548
g56
(g72
g58
NtRp5549
(dp5550
g61
(dp5551
sg70
g5545
sg63
(lp5552
g56
(g77
g58
NtRp5553
(dp5554
g61
(dp5555
sg70
g5549
sg63
(lp5556
g56
(g57
g58
NtRp5557
(dp5558
g61
(dp5559
g69
I3
ssg70
g5553
sg63
(lp5560
S'username'
p5561
asbasbasbag56
(g72
g58
NtRp5562
(dp5563
g61
(dp5564
sg70
g5545
sg63
(lp5565
g56
(g77
g58
NtRp5566
(dp5567
g61
(dp5568
sg70
g5562
sg63
(lp5569
g56
(g57
g58
NtRp5570
(dp5571
g61
(dp5572
g69
I3
ssg70
g5566
sg63
(lp5573
S'fullname'
p5574
asbasbasbag56
(g72
g58
NtRp5575
(dp5576
g61
(dp5577
sg70
g5545
sg63
(lp5578
g56
(g77
g58
NtRp5579
(dp5580
g61
(dp5581
sg70
g5575
sg63
(lp5582
g56
(g57
g58
NtRp5583
(dp5584
g61
(dp5585
g69
I3
ssg70
g5579
sg63
(lp5586
S'grade'
p5587
asbasbasbag56
(g72
g58
NtRp5588
(dp5589
g61
(dp5590
sg70
g5545
sg63
(lp5591
g56
(g77
g58
NtRp5592
(dp5593
g61
(dp5594
sg70
g5588
sg63
(lp5595
g56
(g57
g58
NtRp5596
(dp5597
g61
(dp5598
g69
I3
ssg70
g5592
sg63
(lp5599
S'class'
p5600
asbasbasbag56
(g72
g58
NtRp5601
(dp5602
g61
(dp5603
sg70
g5545
sg63
(lp5604
g56
(g77
g58
NtRp5605
(dp5606
g61
(dp5607
sg70
g5601
sg63
(lp5608
g56
(g57
g58
NtRp5609
(dp5610
g61
(dp5611
g69
I3
ssg70
g5605
sg63
(lp5612
S'email'
p5613
asbasbasbag56
(g72
g58
NtRp5614
(dp5615
g61
(dp5616
sg70
g5545
sg63
(lp5617
g56
(g77
g58
NtRp5618
(dp5619
g61
(dp5620
sg70
g5614
sg63
(lp5621
g56
(g57
g58
NtRp5622
(dp5623
g61
(dp5624
g69
I3
ssg70
g5618
sg63
(lp5625
S'password'
p5626
asbasbasbag56
(g72
g58
NtRp5627
(dp5628
g61
(dp5629
sg70
g5545
sg63
(lp5630
g56
(g77
g58
NtRp5631
(dp5632
g61
(dp5633
sg70
g5627
sg63
(lp5634
g56
(g57
g58
NtRp5635
(dp5636
g61
(dp5637
g69
I3
ssg70
g5631
sg63
(lp5638
S'discribe'
p5639
asbasbasbag56
(g72
g58
NtRp5640
(dp5641
g61
(dp5642
sg70
g5545
sg63
(lp5643
g56
(g77
g58
NtRp5644
(dp5645
g61
(dp5646
sg70
g5640
sg63
(lp5647
g56
(g57
g58
NtRp5648
(dp5649
g61
(dp5650
g69
I3
ssg70
g5644
sg63
(lp5651
S'first_name'
p5652
asbasbasbag56
(g72
g58
NtRp5653
(dp5654
g61
(dp5655
sg70
g5545
sg63
(lp5656
g56
(g77
g58
NtRp5657
(dp5658
g61
(dp5659
sg70
g5653
sg63
(lp5660
g56
(g57
g58
NtRp5661
(dp5662
g61
(dp5663
g69
I3
ssg70
g5657
sg63
(lp5664
S'last_name'
p5665
asbasbasbasbasbasbasbag56
(g72
g58
NtRp5666
(dp5667
g61
(dp5668
sg70
g4476
sg63
(lp5669
g56
(g77
g58
NtRp5670
(dp5671
g61
(dp5672
g81
g82
ssg70
g5666
sg63
(lp5673
S'table_course'
p5674
asbag56
(g77
g58
NtRp5675
(dp5676
g61
(dp5677
g88
g89
ssg70
g5666
sg63
(lp5678
S':'
asbag56
(g77
g58
NtRp5679
(dp5680
g61
(dp5681
sg70
g5666
sg63
(lp5682
g56
(g57
g58
NtRp5683
(dp5684
g61
(dp5685
g69
I4
ssg70
g5679
sg63
(lp5686
g56
(g65
g58
NtRp5687
(dp5688
g61
(dp5689
g69
I3
ssg70
Nsg63
(lp5690
g56
(g72
g58
NtRp5691
(dp5692
g61
(dp5693
sg70
g5687
sg63
(lp5694
g56
(g77
g58
NtRp5695
(dp5696
g61
(dp5697
sg70
g5691
sg63
(lp5698
g56
(g57
g58
NtRp5699
(dp5700
g61
(dp5701
g69
I3
ssg70
g5695
sg63
(lp5702
S'name'
p5703
asbasbasbag56
(g72
g58
NtRp5704
(dp5705
g61
(dp5706
sg70
g5687
sg63
(lp5707
g56
(g77
g58
NtRp5708
(dp5709
g61
(dp5710
sg70
g5704
sg63
(lp5711
g56
(g57
g58
NtRp5712
(dp5713
g61
(dp5714
g69
I3
ssg70
g5708
sg63
(lp5715
S'grade'
p5716
asbasbasbag56
(g72
g58
NtRp5717
(dp5718
g61
(dp5719
sg70
g5687
sg63
(lp5720
g56
(g77
g58
NtRp5721
(dp5722
g61
(dp5723
sg70
g5717
sg63
(lp5724
g56
(g57
g58
NtRp5725
(dp5726
g61
(dp5727
g69
I3
ssg70
g5721
sg63
(lp5728
S'number'
p5729
asbasbasbag56
(g72
g58
NtRp5730
(dp5731
g61
(dp5732
sg70
g5687
sg63
(lp5733
g56
(g77
g58
NtRp5734
(dp5735
g61
(dp5736
sg70
g5730
sg63
(lp5737
g56
(g57
g58
NtRp5738
(dp5739
g61
(dp5740
g69
I3
ssg70
g5734
sg63
(lp5741
S'content'
p5742
asbasbasbag56
(g72
g58
NtRp5743
(dp5744
g61
(dp5745
sg70
g5687
sg63
(lp5746
g56
(g77
g58
NtRp5747
(dp5748
g61
(dp5749
sg70
g5743
sg63
(lp5750
g56
(g57
g58
NtRp5751
(dp5752
g61
(dp5753
g69
I3
ssg70
g5747
sg63
(lp5754
S'file'
p5755
asbasbasbasbasbasbasbag56
(g72
g58
NtRp5756
(dp5757
g61
(dp5758
sg70
g4476
sg63
(lp5759
g56
(g77
g58
NtRp5760
(dp5761
g61
(dp5762
g81
g82
ssg70
g5756
sg63
(lp5763
S'table_netdiskfile'
p5764
asbag56
(g77
g58
NtRp5765
(dp5766
g61
(dp5767
g88
g89
ssg70
g5756
sg63
(lp5768
S':'
asbag56
(g77
g58
NtRp5769
(dp5770
g61
(dp5771
sg70
g5756
sg63
(lp5772
g56
(g57
g58
NtRp5773
(dp5774
g61
(dp5775
g69
I4
ssg70
g5769
sg63
(lp5776
g56
(g65
g58
NtRp5777
(dp5778
g61
(dp5779
g69
I3
ssg70
Nsg63
(lp5780
g56
(g72
g58
NtRp5781
(dp5782
g61
(dp5783
sg70
g5777
sg63
(lp5784
g56
(g77
g58
NtRp5785
(dp5786
g61
(dp5787
sg70
g5781
sg63
(lp5788
g56
(g57
g58
NtRp5789
(dp5790
g61
(dp5791
g69
I3
ssg70
g5785
sg63
(lp5792
S'name'
p5793
asbasbasbasbasbasbasbag56
(g72
g58
NtRp5794
(dp5795
g61
(dp5796
sg70
g4476
sg63
(lp5797
g56
(g77
g58
NtRp5798
(dp5799
g61
(dp5800
g81
g82
ssg70
g5794
sg63
(lp5801
S'table_question'
p5802
asbag56
(g77
g58
NtRp5803
(dp5804
g61
(dp5805
g88
g89
ssg70
g5794
sg63
(lp5806
S':'
asbag56
(g77
g58
NtRp5807
(dp5808
g61
(dp5809
sg70
g5794
sg63
(lp5810
g56
(g57
g58
NtRp5811
(dp5812
g61
(dp5813
g69
I4
ssg70
g5807
sg63
(lp5814
g56
(g65
g58
NtRp5815
(dp5816
g61
(dp5817
g69
I3
ssg70
Nsg63
(lp5818
g56
(g72
g58
NtRp5819
(dp5820
g61
(dp5821
sg70
g5815
sg63
(lp5822
g56
(g77
g58
NtRp5823
(dp5824
g61
(dp5825
sg70
g5819
sg63
(lp5826
g56
(g57
g58
NtRp5827
(dp5828
g61
(dp5829
g69
I3
ssg70
g5823
sg63
(lp5830
S'title'
p5831
asbasbasbag56
(g72
g58
NtRp5832
(dp5833
g61
(dp5834
sg70
g5815
sg63
(lp5835
g56
(g77
g58
NtRp5836
(dp5837
g61
(dp5838
sg70
g5832
sg63
(lp5839
g56
(g57
g58
NtRp5840
(dp5841
g61
(dp5842
g69
I3
ssg70
g5836
sg63
(lp5843
S'number'
p5844
asbasbasbag56
(g72
g58
NtRp5845
(dp5846
g61
(dp5847
sg70
g5815
sg63
(lp5848
g56
(g77
g58
NtRp5849
(dp5850
g61
(dp5851
sg70
g5845
sg63
(lp5852
g56
(g57
g58
NtRp5853
(dp5854
g61
(dp5855
g69
I3
ssg70
g5849
sg63
(lp5856
S'content'
p5857
asbasbasbag56
(g72
g58
NtRp5858
(dp5859
g61
(dp5860
sg70
g5815
sg63
(lp5861
g56
(g77
g58
NtRp5862
(dp5863
g61
(dp5864
sg70
g5858
sg63
(lp5865
g56
(g57
g58
NtRp5866
(dp5867
g61
(dp5868
g69
I3
ssg70
g5862
sg63
(lp5869
S'isobjective'
p5870
asbasbasbag56
(g72
g58
NtRp5871
(dp5872
g61
(dp5873
sg70
g5815
sg63
(lp5874
g56
(g77
g58
NtRp5875
(dp5876
g61
(dp5877
sg70
g5871
sg63
(lp5878
g56
(g57
g58
NtRp5879
(dp5880
g61
(dp5881
g69
I3
ssg70
g5875
sg63
(lp5882
S'standardanswer'
p5883
asbasbasbasbasbasbasbag56
(g72
g58
NtRp5884
(dp5885
g61
(dp5886
sg70
g4476
sg63
(lp5887
g56
(g77
g58
NtRp5888
(dp5889
g61
(dp5890
g81
g82
ssg70
g5884
sg63
(lp5891
S'table_score'
p5892
asbag56
(g77
g58
NtRp5893
(dp5894
g61
(dp5895
g88
g89
ssg70
g5884
sg63
(lp5896
S':'
asbag56
(g77
g58
NtRp5897
(dp5898
g61
(dp5899
sg70
g5884
sg63
(lp5900
g56
(g57
g58
NtRp5901
(dp5902
g61
(dp5903
g69
I4
ssg70
g5897
sg63
(lp5904
g56
(g65
g58
NtRp5905
(dp5906
g61
(dp5907
g69
I3
ssg70
Nsg63
(lp5908
g56
(g72
g58
NtRp5909
(dp5910
g61
(dp5911
sg70
g5905
sg63
(lp5912
g56
(g77
g58
NtRp5913
(dp5914
g61
(dp5915
sg70
g5909
sg63
(lp5916
g56
(g57
g58
NtRp5917
(dp5918
g61
(dp5919
g69
I3
ssg70
g5913
sg63
(lp5920
g5793
asbasbasbasbasbasbasbag56
(g72
g58
NtRp5921
(dp5922
g61
(dp5923
sg70
g4476
sg63
(lp5924
g56
(g77
g58
NtRp5925
(dp5926
g61
(dp5927
g81
g82
ssg70
g5921
sg63
(lp5928
S'table_work'
p5929
asbag56
(g77
g58
NtRp5930
(dp5931
g61
(dp5932
g88
g89
ssg70
g5921
sg63
(lp5933
S':'
asbag56
(g77
g58
NtRp5934
(dp5935
g61
(dp5936
sg70
g5921
sg63
(lp5937
g56
(g57
g58
NtRp5938
(dp5939
g61
(dp5940
g69
I4
ssg70
g5934
sg63
(lp5941
g56
(g65
g58
NtRp5942
(dp5943
g61
(dp5944
g69
I3
ssg70
Nsg63
(lp5945
g56
(g72
g58
NtRp5946
(dp5947
g61
(dp5948
sg70
g5942
sg63
(lp5949
g56
(g77
g58
NtRp5950
(dp5951
g61
(dp5952
sg70
g5946
sg63
(lp5953
g56
(g57
g58
NtRp5954
(dp5955
g61
(dp5956
g69
I3
ssg70
g5950
sg63
(lp5957
g5793
asbasbasbasbasbasbasbag56
(g72
g58
NtRp5958
(dp5959
g61
(dp5960
sg70
g4476
sg63
(lp5961
g56
(g77
g58
NtRp5962
(dp5963
g61
(dp5964
g81
g82
ssg70
g5958
sg63
(lp5965
S'tables'
p5966
asbag56
(g77
g58
NtRp5967
(dp5968
g61
(dp5969
g88
g89
ssg70
g5958
sg63
(lp5970
S':'
asbag56
(g77
g58
NtRp5971
(dp5972
g61
(dp5973
sg70
g5958
sg63
(lp5974
g56
(g57
g58
NtRp5975
(dp5976
g61
(dp5977
g69
I4
ssg70
g5971
sg63
(lp5978
g56
(g65
g58
NtRp5979
(dp5980
g61
(dp5981
g69
I3
ssg70
Nsg63
(lp5982
g56
(g72
g58
NtRp5983
(dp5984
g61
(dp5985
sg70
g5979
sg63
(lp5986
g56
(g77
g58
NtRp5987
(dp5988
g61
(dp5989
sg70
g5983
sg63
(lp5990
g56
(g57
g58
NtRp5991
(dp5992
g61
(dp5993
g69
I3
ssg70
g5987
sg63
(lp5994
S'auth_user'
p5995
asbasbasbag56
(g72
g58
NtRp5996
(dp5997
g61
(dp5998
sg70
g5979
sg63
(lp5999
g56
(g77
g58
NtRp6000
(dp6001
g61
(dp6002
sg70
g5996
sg63
(lp6003
g56
(g57
g58
NtRp6004
(dp6005
g61
(dp6006
g69
I3
ssg70
g6000
sg63
(lp6007
S'course'
p6008
asbasbasbag56
(g72
g58
NtRp6009
(dp6010
g61
(dp6011
sg70
g5979
sg63
(lp6012
g56
(g77
g58
NtRp6013
(dp6014
g61
(dp6015
sg70
g6009
sg63
(lp6016
g56
(g57
g58
NtRp6017
(dp6018
g61
(dp6019
g69
I3
ssg70
g6013
sg63
(lp6020
S'question'
p6021
asbasbasbag56
(g72
g58
NtRp6022
(dp6023
g61
(dp6024
sg70
g5979
sg63
(lp6025
g56
(g77
g58
NtRp6026
(dp6027
g61
(dp6028
sg70
g6022
sg63
(lp6029
g56
(g57
g58
NtRp6030
(dp6031
g61
(dp6032
g69
I3
ssg70
g6026
sg63
(lp6033
S'answer'
p6034
asbasbasbag56
(g72
g58
NtRp6035
(dp6036
g61
(dp6037
sg70
g5979
sg63
(lp6038
g56
(g77
g58
NtRp6039
(dp6040
g61
(dp6041
sg70
g6035
sg63
(lp6042
g56
(g57
g58
NtRp6043
(dp6044
g61
(dp6045
g69
I3
ssg70
g6039
sg63
(lp6046
S'work'
p6047
asbasbasbag56
(g72
g58
NtRp6048
(dp6049
g61
(dp6050
sg70
g5979
sg63
(lp6051
g56
(g77
g58
NtRp6052
(dp6053
g61
(dp6054
sg70
g6048
sg63
(lp6055
g56
(g57
g58
NtRp6056
(dp6057
g61
(dp6058
g69
I3
ssg70
g6052
sg63
(lp6059
S'score'
p6060
asbasbasbag56
(g72
g58
NtRp6061
(dp6062
g61
(dp6063
sg70
g5979
sg63
(lp6064
g56
(g77
g58
NtRp6065
(dp6066
g61
(dp6067
sg70
g6061
sg63
(lp6068
g56
(g57
g58
NtRp6069
(dp6070
g61
(dp6071
g69
I3
ssg70
g6065
sg63
(lp6072
S'netdiskfile'
p6073
asbasbasbasbasbasbasbasbasbasbasbag56
(g72
g58
NtRp6074
(dp6075
g61
(dp6076
sg70
g4451
sg63
(lp6077
g56
(g77
g58
NtRp6078
(dp6079
g61
(dp6080
g81
g82
ssg70
g6074
sg63
(lp6081
S'authorized'
p6082
asbag56
(g77
g58
NtRp6083
(dp6084
g61
(dp6085
g88
g89
ssg70
g6074
sg63
(lp6086
S':'
asbag56
(g77
g58
NtRp6087
(dp6088
g61
(dp6089
sg70
g6074
sg63
(lp6090
g56
(g57
g58
NtRp6091
(dp6092
g61
(dp6093
g69
I5
ssg70
g6087
sg63
(lp6094
g2433
asbasbasbag56
(g72
g58
NtRp6095
(dp6096
g61
(dp6097
sg70
g4451
sg63
(lp6098
g56
(g77
g58
NtRp6099
(dp6100
g61
(dp6101
g81
g82
ssg70
g6095
sg63
(lp6102
S'check_version'
p6103
asbag56
(g77
g58
NtRp6104
(dp6105
g61
(dp6106
g88
g89
ssg70
g6095
sg63
(lp6107
S':'
asbag56
(g77
g58
NtRp6108
(dp6109
g61
(dp6110
sg70
g6095
sg63
(lp6111
g56
(g57
g58
NtRp6112
(dp6113
g61
(dp6114
g69
I5
ssg70
g6108
sg63
(lp6115
g99
asbasbasbag56
(g72
g58
NtRp6116
(dp6117
g61
(dp6118
sg70
g4451
sg63
(lp6119
g56
(g77
g58
NtRp6120
(dp6121
g61
(dp6122
g81
g82
ssg70
g6116
sg63
(lp6123
S'debug_commands:admin'
p6124
asbag56
(g77
g58
NtRp6125
(dp6126
g61
(dp6127
g88
g89
ssg70
g6116
sg63
(lp6128
S':'
asbag56
(g77
g58
NtRp6129
(dp6130
g61
(dp6131
sg70
g6116
sg63
(lp6132
g56
(g57
g58
NtRp6133
(dp6134
g61
(dp6135
g69
I5
ssg70
g6129
sg63
(lp6136
g56
(g65
g58
NtRp6137
(dp6138
g61
(dp6139
g69
I4
ssg70
Nsg63
(lp6140
sbasbasbasbag56
(g72
g58
NtRp6141
(dp6142
g61
(dp6143
sg70
g4451
sg63
(lp6144
g56
(g77
g58
NtRp6145
(dp6146
g61
(dp6147
g81
g82
ssg70
g6141
sg63
(lp6148
S'flash'
p6149
asbag56
(g77
g58
NtRp6150
(dp6151
g61
(dp6152
g88
g89
ssg70
g6141
sg63
(lp6153
S':'
asbag56
(g77
g58
NtRp6154
(dp6155
g61
(dp6156
sg70
g6141
sg63
(lp6157
g56
(g57
g58
NtRp6158
(dp6159
g61
(dp6160
g69
I5
ssg70
g6154
sg63
(lp6161
S'None'
p6162
asbasbasbag56
(g72
g58
NtRp6163
(dp6164
g61
(dp6165
sg70
g4451
sg63
(lp6166
g56
(g77
g58
NtRp6167
(dp6168
g61
(dp6169
g81
g82
ssg70
g6163
sg63
(lp6170
S'is_mobile'
p6171
asbag56
(g77
g58
NtRp6172
(dp6173
g61
(dp6174
g88
g89
ssg70
g6163
sg63
(lp6175
S':'
asbag56
(g77
g58
NtRp6176
(dp6177
g61
(dp6178
sg70
g6163
sg63
(lp6179
g56
(g57
g58
NtRp6180
(dp6181
g61
(dp6182
g69
I5
ssg70
g6176
sg63
(lp6183
S'auto'
p6184
asbasbasbag56
(g72
g58
NtRp6185
(dp6186
g61
(dp6187
sg70
g4451
sg63
(lp6188
g56
(g77
g58
NtRp6189
(dp6190
g61
(dp6191
g81
g82
ssg70
g6185
sg63
(lp6192
S'last_time'
p6193
asbag56
(g77
g58
NtRp6194
(dp6195
g61
(dp6196
g88
g89
ssg70
g6185
sg63
(lp6197
S':'
asbag56
(g77
g58
NtRp6198
(dp6199
g61
(dp6200
sg70
g6185
sg63
(lp6201
g56
(g57
g58
NtRp6202
(dp6203
g61
(dp6204
g69
I5
ssg70
g6198
sg63
(lp6205
S'1375840379.703'
p6206
asbasbasbag56
(g72
g58
NtRp6207
(dp6208
g61
(dp6209
sg70
g4451
sg63
(lp6210
g56
(g77
g58
NtRp6211
(dp6212
g61
(dp6213
g81
g82
ssg70
g6207
sg63
(lp6214
S'pam_user'
p6215
asbag56
(g77
g58
NtRp6216
(dp6217
g61
(dp6218
g88
g89
ssg70
g6207
sg63
(lp6219
S':'
asbag56
(g77
g58
NtRp6220
(dp6221
g61
(dp6222
sg70
g6207
sg63
(lp6223
g56
(g57
g58
NtRp6224
(dp6225
g61
(dp6226
g69
I5
ssg70
g6220
sg63
(lp6227
S'None'
p6228
asbasbasbag56
(g72
g58
NtRp6229
(dp6230
g61
(dp6231
sg70
g4451
sg63
(lp6232
g56
(g77
g58
NtRp6233
(dp6234
g61
(dp6235
g81
g82
ssg70
g6229
sg63
(lp6236
S'plugins'
p6237
asbag56
(g77
g58
NtRp6238
(dp6239
g61
(dp6240
g88
g89
ssg70
g6229
sg63
(lp6241
S':'
asbag56
(g77
g58
NtRp6242
(dp6243
g61
(dp6244
sg70
g6229
sg63
(lp6245
g56
(g57
g58
NtRp6246
(dp6247
g61
(dp6248
g69
I5
ssg70
g6242
sg63
(lp6249
g56
(g65
g58
NtRp6250
(dp6251
g61
(dp6252
g69
I4
ssg70
Nsg63
(lp6253
sbasbasbasbag56
(g72
g58
NtRp6254
(dp6255
g61
(dp6256
sg70
g4451
sg63
(lp6257
g56
(g77
g58
NtRp6258
(dp6259
g61
(dp6260
g81
g82
ssg70
g6254
sg63
(lp6261
S'themes'
p6262
asbag56
(g77
g58
NtRp6263
(dp6264
g61
(dp6265
g88
g89
ssg70
g6254
sg63
(lp6266
S':'
asbag56
(g77
g58
NtRp6267
(dp6268
g61
(dp6269
sg70
g6254
sg63
(lp6270
g56
(g57
g58
NtRp6271
(dp6272
g61
(dp6273
g69
I5
ssg70
g6267
sg63
(lp6274
g56
(g65
g58
NtRp6275
(dp6276
g61
(dp6277
g69
I4
ssg70
Nsg63
(lp6278
g56
(g72
g58
NtRp6279
(dp6280
g61
(dp6281
sg70
g6275
sg63
(lp6282
g56
(g77
g58
NtRp6283
(dp6284
g61
(dp6285
sg70
g6279
sg63
(lp6286
g56
(g57
g58
NtRp6287
(dp6288
g61
(dp6289
g69
I4
ssg70
g6283
sg63
(lp6290
S'Default'
p6291
asbasbasbag56
(g72
g58
NtRp6292
(dp6293
g61
(dp6294
sg70
g6275
sg63
(lp6295
g56
(g77
g58
NtRp6296
(dp6297
g61
(dp6298
sg70
g6292
sg63
(lp6299
g56
(g57
g58
NtRp6300
(dp6301
g61
(dp6302
g69
I4
ssg70
g6296
sg63
(lp6303
S'Customize'
p6304
asbasbasbag56
(g72
g58
NtRp6305
(dp6306
g61
(dp6307
sg70
g6275
sg63
(lp6308
g56
(g77
g58
NtRp6309
(dp6310
g61
(dp6311
sg70
g6305
sg63
(lp6312
g56
(g57
g58
NtRp6313
(dp6314
g61
(dp6315
g69
I4
ssg70
g6309
sg63
(lp6316
S'OrangeandBlack'
p6317
asbasbasbag56
(g72
g58
NtRp6318
(dp6319
g61
(dp6320
sg70
g6275
sg63
(lp6321
g56
(g77
g58
NtRp6322
(dp6323
g61
(dp6324
sg70
g6318
sg63
(lp6325
g56
(g57
g58
NtRp6326
(dp6327
g61
(dp6328
g69
I4
ssg70
g6322
sg63
(lp6329
S'solutiongreen'
p6330
asbasbasbag56
(g72
g58
NtRp6331
(dp6332
g61
(dp6333
sg70
g6275
sg63
(lp6334
g56
(g77
g58
NtRp6335
(dp6336
g61
(dp6337
sg70
g6331
sg63
(lp6338
g56
(g57
g58
NtRp6339
(dp6340
g61
(dp6341
g69
I4
ssg70
g6335
sg63
(lp6342
S'FreshLight'
p6343
asbasbasbag56
(g72
g58
NtRp6344
(dp6345
g61
(dp6346
sg70
g6275
sg63
(lp6347
g56
(g77
g58
NtRp6348
(dp6349
g61
(dp6350
sg70
g6344
sg63
(lp6351
g56
(g57
g58
NtRp6352
(dp6353
g61
(dp6354
g69
I4
ssg70
g6348
sg63
(lp6355
S'StickyBud'
p6356
asbasbasbag56
(g72
g58
NtRp6357
(dp6358
g61
(dp6359
sg70
g6275
sg63
(lp6360
g56
(g77
g58
NtRp6361
(dp6362
g61
(dp6363
sg70
g6357
sg63
(lp6364
g56
(g57
g58
NtRp6365
(dp6366
g61
(dp6367
g69
I4
ssg70
g6361
sg63
(lp6368
S'orangeflower'
p6369
asbasbasbag56
(g72
g58
NtRp6370
(dp6371
g61
(dp6372
sg70
g6275
sg63
(lp6373
g56
(g77
g58
NtRp6374
(dp6375
g61
(dp6376
sg70
g6370
sg63
(lp6377
g56
(g57
g58
NtRp6378
(dp6379
g61
(dp6380
g69
I4
ssg70
g6374
sg63
(lp6381
S'Interlude'
p6382
asbasbasbag56
(g72
g58
NtRp6383
(dp6384
g61
(dp6385
sg70
g6275
sg63
(lp6386
g56
(g77
g58
NtRp6387
(dp6388
g61
(dp6389
sg70
g6383
sg63
(lp6390
g56
(g57
g58
NtRp6391
(dp6392
g61
(dp6393
g69
I4
ssg70
g6387
sg63
(lp6394
S'Industrial'
p6395
asbasbasbag56
(g72
g58
NtRp6396
(dp6397
g61
(dp6398
sg70
g6275
sg63
(lp6399
g56
(g77
g58
NtRp6400
(dp6401
g61
(dp6402
sg70
g6396
sg63
(lp6403
g56
(g57
g58
NtRp6404
(dp6405
g61
(dp6406
g69
I4
ssg70
g6400
sg63
(lp6407
S'GreenandPlain'
p6408
asbasbasbag56
(g72
g58
NtRp6409
(dp6410
g61
(dp6411
sg70
g6275
sg63
(lp6412
g56
(g77
g58
NtRp6413
(dp6414
g61
(dp6415
sg70
g6409
sg63
(lp6416
g56
(g57
g58
NtRp6417
(dp6418
g61
(dp6419
g69
I4
ssg70
g6413
sg63
(lp6420
S'FunRide'
p6421
asbasbasbag56
(g72
g58
NtRp6422
(dp6423
g61
(dp6424
sg70
g6275
sg63
(lp6425
g56
(g77
g58
NtRp6426
(dp6427
g61
(dp6428
sg70
g6422
sg63
(lp6429
g56
(g57
g58
NtRp6430
(dp6431
g61
(dp6432
g69
I4
ssg70
g6426
sg63
(lp6433
S'CorporateOffice'
p6434
asbasbasbag56
(g72
g58
NtRp6435
(dp6436
g61
(dp6437
sg70
g6275
sg63
(lp6438
g56
(g77
g58
NtRp6439
(dp6440
g61
(dp6441
sg70
g6435
sg63
(lp6442
g56
(g57
g58
NtRp6443
(dp6444
g61
(dp6445
g69
I4
ssg70
g6439
sg63
(lp6446
S'BlogSmith'
p6447
asbasbasbag56
(g72
g58
NtRp6448
(dp6449
g61
(dp6450
sg70
g6275
sg63
(lp6451
g56
(g77
g58
NtRp6452
(dp6453
g61
(dp6454
sg70
g6448
sg63
(lp6455
g56
(g57
g58
NtRp6456
(dp6457
g61
(dp6458
g69
I4
ssg70
g6452
sg63
(lp6459
S'Hibiscus'
p6460
asbasbasbag56
(g72
g58
NtRp6461
(dp6462
g61
(dp6463
sg70
g6275
sg63
(lp6464
g56
(g77
g58
NtRp6465
(dp6466
g61
(dp6467
sg70
g6461
sg63
(lp6468
g56
(g57
g58
NtRp6469
(dp6470
g61
(dp6471
g69
I4
ssg70
g6465
sg63
(lp6472
S'VioletRay'
p6473
asbasbasbag56
(g72
g58
NtRp6474
(dp6475
g61
(dp6476
sg70
g6275
sg63
(lp6477
g56
(g77
g58
NtRp6478
(dp6479
g61
(dp6480
sg70
g6474
sg63
(lp6481
g56
(g57
g58
NtRp6482
(dp6483
g61
(dp6484
g69
I4
ssg70
g6478
sg63
(lp6485
S'Chasmogamous'
p6486
asbasbasbag56
(g72
g58
NtRp6487
(dp6488
g61
(dp6489
sg70
g6275
sg63
(lp6490
g56
(g77
g58
NtRp6491
(dp6492
g61
(dp6493
sg70
g6487
sg63
(lp6494
g56
(g57
g58
NtRp6495
(dp6496
g61
(dp6497
g69
I4
ssg70
g6491
sg63
(lp6498
S'Uncomplicated'
p6499
asbasbasbag56
(g72
g58
NtRp6500
(dp6501
g61
(dp6502
sg70
g6275
sg63
(lp6503
g56
(g77
g58
NtRp6504
(dp6505
g61
(dp6506
sg70
g6500
sg63
(lp6507
g56
(g57
g58
NtRp6508
(dp6509
g61
(dp6510
g69
I4
ssg70
g6504
sg63
(lp6511
S'RoundHouse'
p6512
asbasbasbag56
(g72
g58
NtRp6513
(dp6514
g61
(dp6515
sg70
g6275
sg63
(lp6516
g56
(g77
g58
NtRp6517
(dp6518
g61
(dp6519
sg70
g6513
sg63
(lp6520
g56
(g57
g58
NtRp6521
(dp6522
g61
(dp6523
g69
I4
ssg70
g6517
sg63
(lp6524
S'CupofCoffee'
p6525
asbasbasbag56
(g72
g58
NtRp6526
(dp6527
g61
(dp6528
sg70
g6275
sg63
(lp6529
g56
(g77
g58
NtRp6530
(dp6531
g61
(dp6532
sg70
g6526
sg63
(lp6533
g56
(g57
g58
NtRp6534
(dp6535
g61
(dp6536
g69
I4
ssg70
g6530
sg63
(lp6537
S'Transient'
p6538
asbasbasbag56
(g72
g58
NtRp6539
(dp6540
g61
(dp6541
sg70
g6275
sg63
(lp6542
g56
(g77
g58
NtRp6543
(dp6544
g61
(dp6545
sg70
g6539
sg63
(lp6546
g56
(g57
g58
NtRp6547
(dp6548
g61
(dp6549
g69
I4
ssg70
g6543
sg63
(lp6550
S'Flourish'
p6551
asbasbasbag56
(g72
g58
NtRp6552
(dp6553
g61
(dp6554
sg70
g6275
sg63
(lp6555
g56
(g77
g58
NtRp6556
(dp6557
g61
(dp6558
sg70
g6552
sg63
(lp6559
g56
(g57
g58
NtRp6560
(dp6561
g61
(dp6562
g69
I4
ssg70
g6556
sg63
(lp6563
S'Astroturfd'
p6564
asbasbasbag56
(g72
g58
NtRp6565
(dp6566
g61
(dp6567
sg70
g6275
sg63
(lp6568
g56
(g77
g58
NtRp6569
(dp6570
g61
(dp6571
sg70
g6565
sg63
(lp6572
g56
(g57
g58
NtRp6573
(dp6574
g61
(dp6575
g69
I4
ssg70
g6569
sg63
(lp6576
S'EfflorescenceGreen'
p6577
asbasbasbag56
(g72
g58
NtRp6578
(dp6579
g61
(dp6580
sg70
g6275
sg63
(lp6581
g56
(g77
g58
NtRp6582
(dp6583
g61
(dp6584
sg70
g6578
sg63
(lp6585
g56
(g57
g58
NtRp6586
(dp6587
g61
(dp6588
g69
I4
ssg70
g6582
sg63
(lp6589
S'Instant'
p6590
asbasbasbag56
(g72
g58
NtRp6591
(dp6592
g61
(dp6593
sg70
g6275
sg63
(lp6594
g56
(g77
g58
NtRp6595
(dp6596
g61
(dp6597
sg70
g6591
sg63
(lp6598
g56
(g57
g58
NtRp6599
(dp6600
g61
(dp6601
g69
I4
ssg70
g6595
sg63
(lp6602
S'solutionblue'
p6603
asbasbasbag56
(g72
g58
NtRp6604
(dp6605
g61
(dp6606
sg70
g6275
sg63
(lp6607
g56
(g77
g58
NtRp6608
(dp6609
g61
(dp6610
sg70
g6604
sg63
(lp6611
g56
(g57
g58
NtRp6612
(dp6613
g61
(dp6614
g69
I4
ssg70
g6608
sg63
(lp6615
S'Balanced'
p6616
asbasbasbag56
(g72
g58
NtRp6617
(dp6618
g61
(dp6619
sg70
g6275
sg63
(lp6620
g56
(g77
g58
NtRp6621
(dp6622
g61
(dp6623
sg70
g6617
sg63
(lp6624
g56
(g57
g58
NtRp6625
(dp6626
g61
(dp6627
g69
I4
ssg70
g6621
sg63
(lp6628
S'RedCity'
p6629
asbasbasbag56
(g72
g58
NtRp6630
(dp6631
g61
(dp6632
sg70
g6275
sg63
(lp6633
g56
(g77
g58
NtRp6634
(dp6635
g61
(dp6636
sg70
g6630
sg63
(lp6637
g56
(g57
g58
NtRp6638
(dp6639
g61
(dp6640
g69
I4
ssg70
g6634
sg63
(lp6641
S'Stardust'
p6642
asbasbasbag56
(g72
g58
NtRp6643
(dp6644
g61
(dp6645
sg70
g6275
sg63
(lp6646
g56
(g77
g58
NtRp6647
(dp6648
g61
(dp6649
sg70
g6643
sg63
(lp6650
g56
(g57
g58
NtRp6651
(dp6652
g61
(dp6653
g69
I4
ssg70
g6647
sg63
(lp6654
S'EfflorescenceBlue'
p6655
asbasbasbag56
(g72
g58
NtRp6656
(dp6657
g61
(dp6658
sg70
g6275
sg63
(lp6659
g56
(g77
g58
NtRp6660
(dp6661
g61
(dp6662
sg70
g6656
sg63
(lp6663
g56
(g57
g58
NtRp6664
(dp6665
g61
(dp6666
g69
I4
ssg70
g6660
sg63
(lp6667
S'FlashyWeb'
p6668
asbasbasbag56
(g72
g58
NtRp6669
(dp6670
g61
(dp6671
sg70
g6275
sg63
(lp6672
g56
(g77
g58
NtRp6673
(dp6674
g61
(dp6675
sg70
g6669
sg63
(lp6676
g56
(g57
g58
NtRp6677
(dp6678
g61
(dp6679
g69
I4
ssg70
g6673
sg63
(lp6680
S'Spaced'
p6681
asbasbasbag56
(g72
g58
NtRp6682
(dp6683
g61
(dp6684
sg70
g6275
sg63
(lp6685
g56
(g77
g58
NtRp6686
(dp6687
g61
(dp6688
sg70
g6682
sg63
(lp6689
g56
(g57
g58
NtRp6690
(dp6691
g61
(dp6692
g69
I4
ssg70
g6686
sg63
(lp6693
S'EfflorescencePurple'
p6694
asbasbasbag56
(g72
g58
NtRp6695
(dp6696
g61
(dp6697
sg70
g6275
sg63
(lp6698
g56
(g77
g58
NtRp6699
(dp6700
g61
(dp6701
sg70
g6695
sg63
(lp6702
g56
(g57
g58
NtRp6703
(dp6704
g61
(dp6705
g69
I4
ssg70
g6699
sg63
(lp6706
S'TheMissingPiece'
p6707
asbasbasbag56
(g72
g58
NtRp6708
(dp6709
g61
(dp6710
sg70
g6275
sg63
(lp6711
g56
(g77
g58
NtRp6712
(dp6713
g61
(dp6714
sg70
g6708
sg63
(lp6715
g56
(g57
g58
NtRp6716
(dp6717
g61
(dp6718
g69
I4
ssg70
g6712
sg63
(lp6719
S'PremiumSeries'
p6720
asbasbasbag56
(g72
g58
NtRp6721
(dp6722
g61
(dp6723
sg70
g6275
sg63
(lp6724
g56
(g77
g58
NtRp6725
(dp6726
g61
(dp6727
sg70
g6721
sg63
(lp6728
g56
(g57
g58
NtRp6729
(dp6730
g61
(dp6731
g69
I4
ssg70
g6725
sg63
(lp6732
S'Abrasive'
p6733
asbasbasbag56
(g72
g58
NtRp6734
(dp6735
g61
(dp6736
sg70
g6275
sg63
(lp6737
g56
(g77
g58
NtRp6738
(dp6739
g61
(dp6740
sg70
g6734
sg63
(lp6741
g56
(g57
g58
NtRp6742
(dp6743
g61
(dp6744
g69
I4
ssg70
g6738
sg63
(lp6745
S'Simpletex'
p6746
asbasbasbag56
(g72
g58
NtRp6747
(dp6748
g61
(dp6749
sg70
g6275
sg63
(lp6750
g56
(g77
g58
NtRp6751
(dp6752
g61
(dp6753
sg70
g6747
sg63
(lp6754
g56
(g57
g58
NtRp6755
(dp6756
g61
(dp6757
g69
I4
ssg70
g6751
sg63
(lp6758
S'PinkFloat'
p6759
asbasbasbag56
(g72
g58
NtRp6760
(dp6761
g61
(dp6762
sg70
g6275
sg63
(lp6763
g56
(g77
g58
NtRp6764
(dp6765
g61
(dp6766
sg70
g6760
sg63
(lp6767
g56
(g57
g58
NtRp6768
(dp6769
g61
(dp6770
g69
I4
ssg70
g6764
sg63
(lp6771
S'FCTHarvest'
p6772
asbasbasbag56
(g72
g58
NtRp6773
(dp6774
g61
(dp6775
sg70
g6275
sg63
(lp6776
g56
(g77
g58
NtRp6777
(dp6778
g61
(dp6779
sg70
g6773
sg63
(lp6780
g56
(g57
g58
NtRp6781
(dp6782
g61
(dp6783
g69
I4
ssg70
g6777
sg63
(lp6784
S'Bounderies'
p6785
asbasbasbag56
(g72
g58
NtRp6786
(dp6787
g61
(dp6788
sg70
g6275
sg63
(lp6789
g56
(g77
g58
NtRp6790
(dp6791
g61
(dp6792
sg70
g6786
sg63
(lp6793
g56
(g57
g58
NtRp6794
(dp6795
g61
(dp6796
g69
I4
ssg70
g6790
sg63
(lp6797
S'BackgroundBlue'
p6798
asbasbasbag56
(g72
g58
NtRp6799
(dp6800
g61
(dp6801
sg70
g6275
sg63
(lp6802
g56
(g77
g58
NtRp6803
(dp6804
g61
(dp6805
sg70
g6799
sg63
(lp6806
g56
(g57
g58
NtRp6807
(dp6808
g61
(dp6809
g69
I4
ssg70
g6803
sg63
(lp6810
S'Tastelessly'
p6811
asbasbasbag56
(g72
g58
NtRp6812
(dp6813
g61
(dp6814
sg70
g6275
sg63
(lp6815
g56
(g77
g58
NtRp6816
(dp6817
g61
(dp6818
sg70
g6812
sg63
(lp6819
g56
(g57
g58
NtRp6820
(dp6821
g61
(dp6822
g69
I4
ssg70
g6816
sg63
(lp6823
S'Settings'
p6824
asbasbasbag56
(g72
g58
NtRp6825
(dp6826
g61
(dp6827
sg70
g6275
sg63
(lp6828
g56
(g77
g58
NtRp6829
(dp6830
g61
(dp6831
sg70
g6825
sg63
(lp6832
g56
(g57
g58
NtRp6833
(dp6834
g61
(dp6835
g69
I4
ssg70
g6829
sg63
(lp6836
S'Colorus'
p6837
asbasbasbag56
(g72
g58
NtRp6838
(dp6839
g61
(dp6840
sg70
g6275
sg63
(lp6841
g56
(g77
g58
NtRp6842
(dp6843
g61
(dp6844
sg70
g6838
sg63
(lp6845
g56
(g57
g58
NtRp6846
(dp6847
g61
(dp6848
g69
I4
ssg70
g6842
sg63
(lp6849
S'BackgroundGreen'
p6850
asbasbasbag56
(g72
g58
NtRp6851
(dp6852
g61
(dp6853
sg70
g6275
sg63
(lp6854
g56
(g77
g58
NtRp6855
(dp6856
g61
(dp6857
sg70
g6851
sg63
(lp6858
g56
(g57
g58
NtRp6859
(dp6860
g61
(dp6861
g69
I4
ssg70
g6855
sg63
(lp6862
S'TheIsland'
p6863
asbasbasbag56
(g72
g58
NtRp6864
(dp6865
g61
(dp6866
sg70
g6275
sg63
(lp6867
g56
(g77
g58
NtRp6868
(dp6869
g61
(dp6870
sg70
g6864
sg63
(lp6871
g56
(g57
g58
NtRp6872
(dp6873
g61
(dp6874
g69
I4
ssg70
g6868
sg63
(lp6875
S'TinyBlue'
p6876
asbasbasbag56
(g72
g58
NtRp6877
(dp6878
g61
(dp6879
sg70
g6275
sg63
(lp6880
g56
(g77
g58
NtRp6881
(dp6882
g61
(dp6883
sg70
g6877
sg63
(lp6884
g56
(g57
g58
NtRp6885
(dp6886
g61
(dp6887
g69
I4
ssg70
g6881
sg63
(lp6888
S'hexahedron'
p6889
asbasbasbag56
(g72
g58
NtRp6890
(dp6891
g61
(dp6892
sg70
g6275
sg63
(lp6893
g56
(g77
g58
NtRp6894
(dp6895
g61
(dp6896
sg70
g6890
sg63
(lp6897
g56
(g57
g58
NtRp6898
(dp6899
g61
(dp6900
g69
I4
ssg70
g6894
sg63
(lp6901
S'PetCharms'
p6902
asbasbasbag56
(g72
g58
NtRp6903
(dp6904
g61
(dp6905
sg70
g6275
sg63
(lp6906
g56
(g77
g58
NtRp6907
(dp6908
g61
(dp6909
sg70
g6903
sg63
(lp6910
g56
(g57
g58
NtRp6911
(dp6912
g61
(dp6913
g69
I4
ssg70
g6907
sg63
(lp6914
S'Subordinate'
p6915
asbasbasbag56
(g72
g58
NtRp6916
(dp6917
g61
(dp6918
sg70
g6275
sg63
(lp6919
g56
(g77
g58
NtRp6920
(dp6921
g61
(dp6922
sg70
g6916
sg63
(lp6923
g56
(g57
g58
NtRp6924
(dp6925
g61
(dp6926
g69
I4
ssg70
g6920
sg63
(lp6927
S'Voyage'
p6928
asbasbasbag56
(g72
g58
NtRp6929
(dp6930
g61
(dp6931
sg70
g6275
sg63
(lp6932
g56
(g77
g58
NtRp6933
(dp6934
g61
(dp6935
sg70
g6929
sg63
(lp6936
g56
(g57
g58
NtRp6937
(dp6938
g61
(dp6939
g69
I4
ssg70
g6933
sg63
(lp6940
S'Replenish'
p6941
asbasbasbag56
(g72
g58
NtRp6942
(dp6943
g61
(dp6944
sg70
g6275
sg63
(lp6945
g56
(g77
g58
NtRp6946
(dp6947
g61
(dp6948
sg70
g6942
sg63
(lp6949
g56
(g57
g58
NtRp6950
(dp6951
g61
(dp6952
g69
I4
ssg70
g6946
sg63
(lp6953
S'sliced'
p6954
asbasbasbag56
(g72
g58
NtRp6955
(dp6956
g61
(dp6957
sg70
g6275
sg63
(lp6958
g56
(g77
g58
NtRp6959
(dp6960
g61
(dp6961
sg70
g6955
sg63
(lp6962
g56
(g57
g58
NtRp6963
(dp6964
g61
(dp6965
g69
I4
ssg70
g6959
sg63
(lp6966
S'Papira'
p6967
asbasbasbag56
(g72
g58
NtRp6968
(dp6969
g61
(dp6970
sg70
g6275
sg63
(lp6971
g56
(g77
g58
NtRp6972
(dp6973
g61
(dp6974
sg70
g6968
sg63
(lp6975
g56
(g57
g58
NtRp6976
(dp6977
g61
(dp6978
g69
I4
ssg70
g6972
sg63
(lp6979
S'NewsFlash'
p6980
asbasbasbag56
(g72
g58
NtRp6981
(dp6982
g61
(dp6983
sg70
g6275
sg63
(lp6984
g56
(g77
g58
NtRp6985
(dp6986
g61
(dp6987
sg70
g6981
sg63
(lp6988
g56
(g57
g58
NtRp6989
(dp6990
g61
(dp6991
g69
I4
ssg70
g6985
sg63
(lp6992
S'Reference'
p6993
asbasbasbag56
(g72
g58
NtRp6994
(dp6995
g61
(dp6996
sg70
g6275
sg63
(lp6997
g56
(g77
g58
NtRp6998
(dp6999
g61
(dp7000
sg70
g6994
sg63
(lp7001
g56
(g57
g58
NtRp7002
(dp7003
g61
(dp7004
g69
I4
ssg70
g6998
sg63
(lp7005
S'Unqualified'
p7006
asbasbasbag56
(g72
g58
NtRp7007
(dp7008
g61
(dp7009
sg70
g6275
sg63
(lp7010
g56
(g77
g58
NtRp7011
(dp7012
g61
(dp7013
sg70
g7007
sg63
(lp7014
g56
(g57
g58
NtRp7015
(dp7016
g61
(dp7017
g69
I4
ssg70
g7011
sg63
(lp7018
S'Branches'
p7019
asbasbasbag56
(g72
g58
NtRp7020
(dp7021
g61
(dp7022
sg70
g6275
sg63
(lp7023
g56
(g77
g58
NtRp7024
(dp7025
g61
(dp7026
sg70
g7020
sg63
(lp7027
g56
(g57
g58
NtRp7028
(dp7029
g61
(dp7030
g69
I4
ssg70
g7024
sg63
(lp7031
S'Glazed'
p7032
asbasbasbag56
(g72
g58
NtRp7033
(dp7034
g61
(dp7035
sg70
g6275
sg63
(lp7036
g56
(g77
g58
NtRp7037
(dp7038
g61
(dp7039
sg70
g7033
sg63
(lp7040
g56
(g57
g58
NtRp7041
(dp7042
g61
(dp7043
g69
I4
ssg70
g7037
sg63
(lp7044
S'Excess'
p7045
asbasbasbag56
(g72
g58
NtRp7046
(dp7047
g61
(dp7048
sg70
g6275
sg63
(lp7049
g56
(g77
g58
NtRp7050
(dp7051
g61
(dp7052
sg70
g7046
sg63
(lp7053
g56
(g57
g58
NtRp7054
(dp7055
g61
(dp7056
g69
I4
ssg70
g7050
sg63
(lp7057
S'Commission'
p7058
asbasbasbag56
(g72
g58
NtRp7059
(dp7060
g61
(dp7061
sg70
g6275
sg63
(lp7062
g56
(g77
g58
NtRp7063
(dp7064
g61
(dp7065
sg70
g7059
sg63
(lp7066
g56
(g57
g58
NtRp7067
(dp7068
g61
(dp7069
g69
I4
ssg70
g7063
sg63
(lp7070
S'Frozenage'
p7071
asbasbasbag56
(g72
g58
NtRp7072
(dp7073
g61
(dp7074
sg70
g6275
sg63
(lp7075
g56
(g77
g58
NtRp7076
(dp7077
g61
(dp7078
sg70
g7072
sg63
(lp7079
g56
(g57
g58
NtRp7080
(dp7081
g61
(dp7082
g69
I4
ssg70
g7076
sg63
(lp7083
S'Blogging'
p7084
asbasbasbag56
(g72
g58
NtRp7085
(dp7086
g61
(dp7087
sg70
g6275
sg63
(lp7088
g56
(g77
g58
NtRp7089
(dp7090
g61
(dp7091
sg70
g7085
sg63
(lp7092
g56
(g57
g58
NtRp7093
(dp7094
g61
(dp7095
g69
I4
ssg70
g7089
sg63
(lp7096
S'Extracts'
p7097
asbasbasbag56
(g72
g58
NtRp7098
(dp7099
g61
(dp7100
sg70
g6275
sg63
(lp7101
g56
(g77
g58
NtRp7102
(dp7103
g61
(dp7104
sg70
g7098
sg63
(lp7105
g56
(g57
g58
NtRp7106
(dp7107
g61
(dp7108
g69
I4
ssg70
g7102
sg63
(lp7109
S'Rambling'
p7110
asbasbasbag56
(g72
g58
NtRp7111
(dp7112
g61
(dp7113
sg70
g6275
sg63
(lp7114
g56
(g77
g58
NtRp7115
(dp7116
g61
(dp7117
sg70
g7111
sg63
(lp7118
g56
(g57
g58
NtRp7119
(dp7120
g61
(dp7121
g69
I4
ssg70
g7115
sg63
(lp7122
S'OldArchitecture'
p7123
asbasbasbag56
(g72
g58
NtRp7124
(dp7125
g61
(dp7126
sg70
g6275
sg63
(lp7127
g56
(g77
g58
NtRp7128
(dp7129
g61
(dp7130
sg70
g7124
sg63
(lp7131
g56
(g57
g58
NtRp7132
(dp7133
g61
(dp7134
g69
I4
ssg70
g7128
sg63
(lp7135
S'Miscellaneous'
p7136
asbasbasbag56
(g72
g58
NtRp7137
(dp7138
g61
(dp7139
sg70
g6275
sg63
(lp7140
g56
(g77
g58
NtRp7141
(dp7142
g61
(dp7143
sg70
g7137
sg63
(lp7144
g56
(g57
g58
NtRp7145
(dp7146
g61
(dp7147
g69
I4
ssg70
g7141
sg63
(lp7148
S'Blend'
p7149
asbasbasbag56
(g72
g58
NtRp7150
(dp7151
g61
(dp7152
sg70
g6275
sg63
(lp7153
g56
(g77
g58
NtRp7154
(dp7155
g61
(dp7156
sg70
g7150
sg63
(lp7157
g56
(g57
g58
NtRp7158
(dp7159
g61
(dp7160
g69
I4
ssg70
g7154
sg63
(lp7161
S'Squarely'
p7162
asbasbasbag56
(g72
g58
NtRp7163
(dp7164
g61
(dp7165
sg70
g6275
sg63
(lp7166
g56
(g77
g58
NtRp7167
(dp7168
g61
(dp7169
sg70
g7163
sg63
(lp7170
g56
(g57
g58
NtRp7171
(dp7172
g61
(dp7173
g69
I4
ssg70
g7167
sg63
(lp7174
S'SnowCrystals'
p7175
asbasbasbag56
(g72
g58
NtRp7176
(dp7177
g61
(dp7178
sg70
g6275
sg63
(lp7179
g56
(g77
g58
NtRp7180
(dp7181
g61
(dp7182
sg70
g7176
sg63
(lp7183
g56
(g57
g58
NtRp7184
(dp7185
g61
(dp7186
g69
I4
ssg70
g7180
sg63
(lp7187
S'Emporium'
p7188
asbasbasbag56
(g72
g58
NtRp7189
(dp7190
g61
(dp7191
sg70
g6275
sg63
(lp7192
g56
(g77
g58
NtRp7193
(dp7194
g61
(dp7195
sg70
g7189
sg63
(lp7196
g56
(g57
g58
NtRp7197
(dp7198
g61
(dp7199
g69
I4
ssg70
g7193
sg63
(lp7200
S'Clicker'
p7201
asbasbasbag56
(g72
g58
NtRp7202
(dp7203
g61
(dp7204
sg70
g6275
sg63
(lp7205
g56
(g77
g58
NtRp7206
(dp7207
g61
(dp7208
sg70
g7202
sg63
(lp7209
g56
(g57
g58
NtRp7210
(dp7211
g61
(dp7212
g69
I4
ssg70
g7206
sg63
(lp7213
S'ConcreteV2'
p7214
asbasbasbag56
(g72
g58
NtRp7215
(dp7216
g61
(dp7217
sg70
g6275
sg63
(lp7218
g56
(g77
g58
NtRp7219
(dp7220
g61
(dp7221
sg70
g7215
sg63
(lp7222
g56
(g57
g58
NtRp7223
(dp7224
g61
(dp7225
g69
I4
ssg70
g7219
sg63
(lp7226
S'Neutral'
p7227
asbasbasbag56
(g72
g58
NtRp7228
(dp7229
g61
(dp7230
sg70
g6275
sg63
(lp7231
g56
(g77
g58
NtRp7232
(dp7233
g61
(dp7234
sg70
g7228
sg63
(lp7235
g56
(g57
g58
NtRp7236
(dp7237
g61
(dp7238
g69
I4
ssg70
g7232
sg63
(lp7239
S'EfflorescenceOrange'
p7240
asbasbasbag56
(g72
g58
NtRp7241
(dp7242
g61
(dp7243
sg70
g6275
sg63
(lp7244
g56
(g77
g58
NtRp7245
(dp7246
g61
(dp7247
sg70
g7241
sg63
(lp7248
g56
(g57
g58
NtRp7249
(dp7250
g61
(dp7251
g69
I4
ssg70
g7245
sg63
(lp7252
S'Boorish'
p7253
asbasbasbag56
(g72
g58
NtRp7254
(dp7255
g61
(dp7256
sg70
g6275
sg63
(lp7257
g56
(g77
g58
NtRp7258
(dp7259
g61
(dp7260
sg70
g7254
sg63
(lp7261
g56
(g57
g58
NtRp7262
(dp7263
g61
(dp7264
g69
I4
ssg70
g7258
sg63
(lp7265
S'Experience'
p7266
asbasbasbag56
(g72
g58
NtRp7267
(dp7268
g61
(dp7269
sg70
g6275
sg63
(lp7270
g56
(g77
g58
NtRp7271
(dp7272
g61
(dp7273
sg70
g7267
sg63
(lp7274
g56
(g57
g58
NtRp7275
(dp7276
g61
(dp7277
g69
I4
ssg70
g7271
sg63
(lp7278
S'CityLights'
p7279
asbasbasbag56
(g72
g58
NtRp7280
(dp7281
g61
(dp7282
sg70
g6275
sg63
(lp7283
g56
(g77
g58
NtRp7284
(dp7285
g61
(dp7286
sg70
g7280
sg63
(lp7287
g56
(g57
g58
NtRp7288
(dp7289
g61
(dp7290
g69
I4
ssg70
g7284
sg63
(lp7291
S'Incorporated'
p7292
asbasbasbag56
(g72
g58
NtRp7293
(dp7294
g61
(dp7295
sg70
g6275
sg63
(lp7296
g56
(g77
g58
NtRp7297
(dp7298
g61
(dp7299
sg70
g7293
sg63
(lp7300
g56
(g57
g58
NtRp7301
(dp7302
g61
(dp7303
g69
I4
ssg70
g7297
sg63
(lp7304
S'Thingreenline'
p7305
asbasbasbag56
(g72
g58
NtRp7306
(dp7307
g61
(dp7308
sg70
g6275
sg63
(lp7309
g56
(g77
g58
NtRp7310
(dp7311
g61
(dp7312
sg70
g7306
sg63
(lp7313
g56
(g57
g58
NtRp7314
(dp7315
g61
(dp7316
g69
I4
ssg70
g7310
sg63
(lp7317
S'HotAirBalloons'
p7318
asbasbasbag56
(g72
g58
NtRp7319
(dp7320
g61
(dp7321
sg70
g6275
sg63
(lp7322
g56
(g77
g58
NtRp7323
(dp7324
g61
(dp7325
sg70
g7319
sg63
(lp7326
g56
(g57
g58
NtRp7327
(dp7328
g61
(dp7329
g69
I4
ssg70
g7323
sg63
(lp7330
S'Optimism'
p7331
asbasbasbag56
(g72
g58
NtRp7332
(dp7333
g61
(dp7334
sg70
g6275
sg63
(lp7335
g56
(g77
g58
NtRp7336
(dp7337
g61
(dp7338
sg70
g7332
sg63
(lp7339
g56
(g57
g58
NtRp7340
(dp7341
g61
(dp7342
g69
I4
ssg70
g7336
sg63
(lp7343
S'Sampling'
p7344
asbasbasbag56
(g72
g58
NtRp7345
(dp7346
g61
(dp7347
sg70
g6275
sg63
(lp7348
g56
(g77
g58
NtRp7349
(dp7350
g61
(dp7351
sg70
g7345
sg63
(lp7352
g56
(g57
g58
NtRp7353
(dp7354
g61
(dp7355
g69
I4
ssg70
g7349
sg63
(lp7356
S'Oxidation'
p7357
asbasbasbag56
(g72
g58
NtRp7358
(dp7359
g61
(dp7360
sg70
g6275
sg63
(lp7361
g56
(g77
g58
NtRp7362
(dp7363
g61
(dp7364
sg70
g7358
sg63
(lp7365
g56
(g57
g58
NtRp7366
(dp7367
g61
(dp7368
g69
I4
ssg70
g7362
sg63
(lp7369
S'External'
p7370
asbasbasbag56
(g72
g58
NtRp7371
(dp7372
g61
(dp7373
sg70
g6275
sg63
(lp7374
g56
(g77
g58
NtRp7375
(dp7376
g61
(dp7377
sg70
g7371
sg63
(lp7378
g56
(g57
g58
NtRp7379
(dp7380
g61
(dp7381
g69
I4
ssg70
g7375
sg63
(lp7382
S'FCTInnovation'
p7383
asbasbasbag56
(g72
g58
NtRp7384
(dp7385
g61
(dp7386
sg70
g6275
sg63
(lp7387
g56
(g77
g58
NtRp7388
(dp7389
g61
(dp7390
sg70
g7384
sg63
(lp7391
g56
(g57
g58
NtRp7392
(dp7393
g61
(dp7394
g69
I4
ssg70
g7388
sg63
(lp7395
S'BlueStatic'
p7396
asbasbasbag56
(g72
g58
NtRp7397
(dp7398
g61
(dp7399
sg70
g6275
sg63
(lp7400
g56
(g77
g58
NtRp7401
(dp7402
g61
(dp7403
sg70
g7397
sg63
(lp7404
g56
(g57
g58
NtRp7405
(dp7406
g61
(dp7407
g69
I4
ssg70
g7401
sg63
(lp7408
S'Compromise'
p7409
asbasbasbag56
(g72
g58
NtRp7410
(dp7411
g61
(dp7412
sg70
g6275
sg63
(lp7413
g56
(g77
g58
NtRp7414
(dp7415
g61
(dp7416
sg70
g7410
sg63
(lp7417
g56
(g57
g58
NtRp7418
(dp7419
g61
(dp7420
g69
I4
ssg70
g7414
sg63
(lp7421
S'LongBeach'
p7422
asbasbasbag56
(g72
g58
NtRp7423
(dp7424
g61
(dp7425
sg70
g6275
sg63
(lp7426
g56
(g77
g58
NtRp7427
(dp7428
g61
(dp7429
sg70
g7423
sg63
(lp7430
g56
(g57
g58
NtRp7431
(dp7432
g61
(dp7433
g69
I4
ssg70
g7427
sg63
(lp7434
S'Efflorescence'
p7435
asbasbasbag56
(g72
g58
NtRp7436
(dp7437
g61
(dp7438
sg70
g6275
sg63
(lp7439
g56
(g77
g58
NtRp7440
(dp7441
g61
(dp7442
sg70
g7436
sg63
(lp7443
g56
(g57
g58
NtRp7444
(dp7445
g61
(dp7446
g69
I4
ssg70
g7440
sg63
(lp7447
S'KeepitSimple'
p7448
asbasbasbag56
(g72
g58
NtRp7449
(dp7450
g61
(dp7451
sg70
g6275
sg63
(lp7452
g56
(g77
g58
NtRp7453
(dp7454
g61
(dp7455
sg70
g7449
sg63
(lp7456
g56
(g57
g58
NtRp7457
(dp7458
g61
(dp7459
g69
I4
ssg70
g7453
sg63
(lp7460
S'Pressurized'
p7461
asbasbasbag56
(g72
g58
NtRp7462
(dp7463
g61
(dp7464
sg70
g6275
sg63
(lp7465
g56
(g77
g58
NtRp7466
(dp7467
g61
(dp7468
sg70
g7462
sg63
(lp7469
g56
(g57
g58
NtRp7470
(dp7471
g61
(dp7472
g69
I4
ssg70
g7466
sg63
(lp7473
S'FCTPuzzled'
p7474
asbasbasbag56
(g72
g58
NtRp7475
(dp7476
g61
(dp7477
sg70
g6275
sg63
(lp7478
g56
(g77
g58
NtRp7479
(dp7480
g61
(dp7481
sg70
g7475
sg63
(lp7482
g56
(g57
g58
NtRp7483
(dp7484
g61
(dp7485
g69
I4
ssg70
g7479
sg63
(lp7486
S'Embouteillage'
p7487
asbasbasbag56
(g72
g58
NtRp7488
(dp7489
g61
(dp7490
sg70
g6275
sg63
(lp7491
g56
(g77
g58
NtRp7492
(dp7493
g61
(dp7494
sg70
g7488
sg63
(lp7495
g56
(g57
g58
NtRp7496
(dp7497
g61
(dp7498
g69
I4
ssg70
g7492
sg63
(lp7499
S'Whitelight'
p7500
asbasbasbag56
(g72
g58
NtRp7501
(dp7502
g61
(dp7503
sg70
g6275
sg63
(lp7504
g56
(g77
g58
NtRp7505
(dp7506
g61
(dp7507
sg70
g7501
sg63
(lp7508
g56
(g57
g58
NtRp7509
(dp7510
g61
(dp7511
g69
I4
ssg70
g7505
sg63
(lp7512
S'Pluralism'
p7513
asbasbasbag56
(g72
g58
NtRp7514
(dp7515
g61
(dp7516
sg70
g6275
sg63
(lp7517
g56
(g77
g58
NtRp7518
(dp7519
g61
(dp7520
sg70
g7514
sg63
(lp7521
g56
(g57
g58
NtRp7522
(dp7523
g61
(dp7524
g69
I4
ssg70
g7518
sg63
(lp7525
S'solutionorange'
p7526
asbasbasbasbasbasbasbag56
(g72
g58
NtRp7527
(dp7528
g61
(dp7529
sg70
g4451
sg63
(lp7530
g56
(g77
g58
NtRp7531
(dp7532
g61
(dp7533
g81
g82
ssg70
g7527
sg63
(lp7534
S'token'
p7535
asbag56
(g77
g58
NtRp7536
(dp7537
g61
(dp7538
g88
g89
ssg70
g7527
sg63
(lp7539
S':'
asbag56
(g77
g58
NtRp7540
(dp7541
g61
(dp7542
sg70
g7527
sg63
(lp7543
g56
(g57
g58
NtRp7544
(dp7545
g61
(dp7546
g69
I5
ssg70
g7540
sg63
(lp7547
S'1f1c31a8-c011-415f-883b-136f5502aa2d'
p7548
asbasbasbasbasbsS'etype'
p7549
S"<type 'exceptions.RuntimeError'>"
p7550
sS'date'
p7551
S'Wed Aug 07 09:53:00 2013'
p7552
sS'response'
p7553
g56
(g57
g58
NtRp7554
(dp7555
g61
(dp7556
sg63
(lp7557
g56
(g65
g58
NtRp7558
(dp7559
g61
(dp7560
g69
I5
ssg70
Nsg63
(lp7561
g56
(g72
g58
NtRp7562
(dp7563
g61
(dp7564
sg70
g7558
sg63
(lp7565
g56
(g77
g58
NtRp7566
(dp7567
g61
(dp7568
g81
g82
ssg70
g7562
sg63
(lp7569
g154
asbag56
(g77
g58
NtRp7570
(dp7571
g61
(dp7572
g88
g89
ssg70
g7562
sg63
(lp7573
S':'
asbag56
(g77
g58
NtRp7574
(dp7575
g61
(dp7576
sg70
g7562
sg63
(lp7577
g56
(g57
g58
NtRp7578
(dp7579
g61
(dp7580
g69
I5
ssg70
g7574
sg63
(lp7581
S'<cStringIO.StringO object at 0x0602FDA0>'
p7582
asbasbasbag56
(g72
g58
NtRp7583
(dp7584
g61
(dp7585
sg70
g7558
sg63
(lp7586
g56
(g77
g58
NtRp7587
(dp7588
g61
(dp7589
g81
g82
ssg70
g7583
sg63
(lp7590
g242
asbag56
(g77
g58
NtRp7591
(dp7592
g61
(dp7593
g88
g89
ssg70
g7583
sg63
(lp7594
S':'
asbag56
(g77
g58
NtRp7595
(dp7596
g61
(dp7597
sg70
g7583
sg63
(lp7598
g56
(g57
g58
NtRp7599
(dp7600
g61
(dp7601
g69
I5
ssg70
g7595
sg63
(lp7602
g56
(g65
g58
NtRp7603
(dp7604
g61
(dp7605
g69
I4
ssg70
Nsg63
(lp7606
g56
(g72
g58
NtRp7607
(dp7608
g61
(dp7609
sg70
g7603
sg63
(lp7610
g56
(g77
g58
NtRp7611
(dp7612
g61
(dp7613
g81
g82
ssg70
g7607
sg63
(lp7614
S'session_id_admin'
p7615
asbag56
(g77
g58
NtRp7616
(dp7617
g61
(dp7618
g88
g89
ssg70
g7607
sg63
(lp7619
S':'
asbag56
(g77
g58
NtRp7620
(dp7621
g61
(dp7622
sg70
g7607
sg63
(lp7623
g56
(g57
g58
NtRp7624
(dp7625
g61
(dp7626
g69
I4
ssg70
g7620
sg63
(lp7627
g280
ag56
(g65
g58
NtRp7628
(dp7629
g61
(dp7630
g69
I3
ssg70
Nsg63
(lp7631
g56
(g72
g58
NtRp7632
(dp7633
g61
(dp7634
sg70
g7628
sg63
(lp7635
g56
(g77
g58
NtRp7636
(dp7637
g61
(dp7638
g81
g82
ssg70
g7632
sg63
(lp7639
g293
asbag56
(g77
g58
NtRp7640
(dp7641
g61
(dp7642
g88
g89
ssg70
g7632
sg63
(lp7643
S':'
asbag56
(g77
g58
NtRp7644
(dp7645
g61
(dp7646
sg70
g7632
sg63
(lp7647
g56
(g57
g58
NtRp7648
(dp7649
g61
(dp7650
g69
I3
ssg70
g7644
sg63
(lp7651
S''
asbasbasbag56
(g72
g58
NtRp7652
(dp7653
g61
(dp7654
sg70
g7628
sg63
(lp7655
g56
(g77
g58
NtRp7656
(dp7657
g61
(dp7658
g81
g82
ssg70
g7652
sg63
(lp7659
g314
asbag56
(g77
g58
NtRp7660
(dp7661
g61
(dp7662
g88
g89
ssg70
g7652
sg63
(lp7663
S':'
asbag56
(g77
g58
NtRp7664
(dp7665
g61
(dp7666
sg70
g7652
sg63
(lp7667
g56
(g57
g58
NtRp7668
(dp7669
g61
(dp7670
g69
I3
ssg70
g7664
sg63
(lp7671
S''
asbasbasbag56
(g72
g58
NtRp7672
(dp7673
g61
(dp7674
sg70
g7628
sg63
(lp7675
g56
(g77
g58
NtRp7676
(dp7677
g61
(dp7678
g81
g82
ssg70
g7672
sg63
(lp7679
g335
asbag56
(g77
g58
NtRp7680
(dp7681
g61
(dp7682
g88
g89
ssg70
g7672
sg63
(lp7683
S':'
asbag56
(g77
g58
NtRp7684
(dp7685
g61
(dp7686
sg70
g7672
sg63
(lp7687
g56
(g57
g58
NtRp7688
(dp7689
g61
(dp7690
g69
I3
ssg70
g7684
sg63
(lp7691
S''
asbasbasbag56
(g72
g58
NtRp7692
(dp7693
g61
(dp7694
sg70
g7628
sg63
(lp7695
g56
(g77
g58
NtRp7696
(dp7697
g61
(dp7698
g81
g82
ssg70
g7692
sg63
(lp7699
g356
asbag56
(g77
g58
NtRp7700
(dp7701
g61
(dp7702
g88
g89
ssg70
g7692
sg63
(lp7703
S':'
asbag56
(g77
g58
NtRp7704
(dp7705
g61
(dp7706
sg70
g7692
sg63
(lp7707
g56
(g57
g58
NtRp7708
(dp7709
g61
(dp7710
g69
I3
ssg70
g7704
sg63
(lp7711
S''
asbasbasbag56
(g72
g58
NtRp7712
(dp7713
g61
(dp7714
sg70
g7628
sg63
(lp7715
g56
(g77
g58
NtRp7716
(dp7717
g61
(dp7718
g81
g82
ssg70
g7712
sg63
(lp7719
g377
asbag56
(g77
g58
NtRp7720
(dp7721
g61
(dp7722
g88
g89
ssg70
g7712
sg63
(lp7723
S':'
asbag56
(g77
g58
NtRp7724
(dp7725
g61
(dp7726
sg70
g7712
sg63
(lp7727
g56
(g57
g58
NtRp7728
(dp7729
g61
(dp7730
g69
I3
ssg70
g7724
sg63
(lp7731
S''
asbasbasbag56
(g72
g58
NtRp7732
(dp7733
g61
(dp7734
sg70
g7628
sg63
(lp7735
g56
(g77
g58
NtRp7736
(dp7737
g61
(dp7738
g81
g82
ssg70
g7732
sg63
(lp7739
g398
asbag56
(g77
g58
NtRp7740
(dp7741
g61
(dp7742
g88
g89
ssg70
g7732
sg63
(lp7743
S':'
asbag56
(g77
g58
NtRp7744
(dp7745
g61
(dp7746
sg70
g7732
sg63
(lp7747
g56
(g57
g58
NtRp7748
(dp7749
g61
(dp7750
g69
I3
ssg70
g7744
sg63
(lp7751
S'/'
asbasbasbag56
(g72
g58
NtRp7752
(dp7753
g61
(dp7754
sg70
g7628
sg63
(lp7755
g56
(g77
g58
NtRp7756
(dp7757
g61
(dp7758
g81
g82
ssg70
g7752
sg63
(lp7759
g419
asbag56
(g77
g58
NtRp7760
(dp7761
g61
(dp7762
g88
g89
ssg70
g7752
sg63
(lp7763
S':'
asbag56
(g77
g58
NtRp7764
(dp7765
g61
(dp7766
sg70
g7752
sg63
(lp7767
g56
(g57
g58
NtRp7768
(dp7769
g61
(dp7770
g69
I3
ssg70
g7764
sg63
(lp7771
S''
asbasbasbag56
(g72
g58
NtRp7772
(dp7773
g61
(dp7774
sg70
g7628
sg63
(lp7775
g56
(g77
g58
NtRp7776
(dp7777
g61
(dp7778
g81
g82
ssg70
g7772
sg63
(lp7779
g440
asbag56
(g77
g58
NtRp7780
(dp7781
g61
(dp7782
g88
g89
ssg70
g7772
sg63
(lp7783
S':'
asbag56
(g77
g58
NtRp7784
(dp7785
g61
(dp7786
sg70
g7772
sg63
(lp7787
g56
(g57
g58
NtRp7788
(dp7789
g61
(dp7790
g69
I3
ssg70
g7784
sg63
(lp7791
S''
asbasbasbasbasbasbasbasbasbasbasbag56
(g72
g58
NtRp7792
(dp7793
g61
(dp7794
sg70
g7558
sg63
(lp7795
g56
(g77
g58
NtRp7796
(dp7797
g61
(dp7798
g81
g82
ssg70
g7792
sg63
(lp7799
S'delimiters'
p7800
asbag56
(g77
g58
NtRp7801
(dp7802
g61
(dp7803
g88
g89
ssg70
g7792
sg63
(lp7804
S':'
asbag56
(g77
g58
NtRp7805
(dp7806
g61
(dp7807
sg70
g7792
sg63
(lp7808
g56
(g57
g58
NtRp7809
(dp7810
g61
(dp7811
g69
I5
ssg70
g7805
sg63
(lp7812
g56
(g65
g58
NtRp7813
(dp7814
g61
(dp7815
g69
I4
ssg70
Nsg63
(lp7816
g56
(g72
g58
NtRp7817
(dp7818
g61
(dp7819
sg70
g7813
sg63
(lp7820
g56
(g77
g58
NtRp7821
(dp7822
g61
(dp7823
sg70
g7817
sg63
(lp7824
g56
(g57
g58
NtRp7825
(dp7826
g61
(dp7827
g69
I4
ssg70
g7821
sg63
(lp7828
S'{{'
p7829
asbasbasbag56
(g72
g58
NtRp7830
(dp7831
g61
(dp7832
sg70
g7813
sg63
(lp7833
g56
(g77
g58
NtRp7834
(dp7835
g61
(dp7836
sg70
g7830
sg63
(lp7837
g56
(g57
g58
NtRp7838
(dp7839
g61
(dp7840
g69
I4
ssg70
g7834
sg63
(lp7841
S'}}'
p7842
asbasbasbasbasbasbasbag56
(g72
g58
NtRp7843
(dp7844
g61
(dp7845
sg70
g7558
sg63
(lp7846
g56
(g77
g58
NtRp7847
(dp7848
g61
(dp7849
g81
g82
ssg70
g7843
sg63
(lp7850
S'files'
p7851
asbag56
(g77
g58
NtRp7852
(dp7853
g61
(dp7854
g88
g89
ssg70
g7843
sg63
(lp7855
S':'
asbag56
(g77
g58
NtRp7856
(dp7857
g61
(dp7858
sg70
g7843
sg63
(lp7859
g56
(g57
g58
NtRp7860
(dp7861
g61
(dp7862
g69
I5
ssg70
g7856
sg63
(lp7863
g56
(g65
g58
NtRp7864
(dp7865
g61
(dp7866
g69
I4
ssg70
Nsg63
(lp7867
g56
(g72
g58
NtRp7868
(dp7869
g61
(dp7870
sg70
g7864
sg63
(lp7871
g56
(g77
g58
NtRp7872
(dp7873
g61
(dp7874
sg70
g7868
sg63
(lp7875
g56
(g57
g58
NtRp7876
(dp7877
g61
(dp7878
g69
I4
ssg70
g7872
sg63
(lp7879
S'/admin/static/plugin_multiselect/jquery.multi-select.js'
p7880
asbasbasbag56
(g72
g58
NtRp7881
(dp7882
g61
(dp7883
sg70
g7864
sg63
(lp7884
g56
(g77
g58
NtRp7885
(dp7886
g61
(dp7887
sg70
g7881
sg63
(lp7888
g56
(g57
g58
NtRp7889
(dp7890
g61
(dp7891
g69
I4
ssg70
g7885
sg63
(lp7892
S'/admin/static/plugin_multiselect/multi-select.css'
p7893
asbasbasbag56
(g72
g58
NtRp7894
(dp7895
g61
(dp7896
sg70
g7864
sg63
(lp7897
g56
(g77
g58
NtRp7898
(dp7899
g61
(dp7900
sg70
g7894
sg63
(lp7901
g56
(g57
g58
NtRp7902
(dp7903
g61
(dp7904
g69
I4
ssg70
g7898
sg63
(lp7905
S'/admin/static/plugin_multiselect/start.js'
p7906
asbasbasbasbasbasbasbag56
(g72
g58
NtRp7907
(dp7908
g61
(dp7909
sg70
g7558
sg63
(lp7910
g56
(g77
g58
NtRp7911
(dp7912
g61
(dp7913
g81
g82
ssg70
g7907
sg63
(lp7914
S'flash'
p7915
asbag56
(g77
g58
NtRp7916
(dp7917
g61
(dp7918
g88
g89
ssg70
g7907
sg63
(lp7919
S':'
asbag56
(g77
g58
NtRp7920
(dp7921
g61
(dp7922
sg70
g7907
sg63
(lp7923
g56
(g57
g58
NtRp7924
(dp7925
g61
(dp7926
g69
I5
ssg70
g7920
sg63
(lp7927
S''
asbasbasbag56
(g72
g58
NtRp7928
(dp7929
g61
(dp7930
sg70
g7558
sg63
(lp7931
g56
(g77
g58
NtRp7932
(dp7933
g61
(dp7934
g81
g82
ssg70
g7928
sg63
(lp7935
S'generic_patterns'
p7936
asbag56
(g77
g58
NtRp7937
(dp7938
g61
(dp7939
g88
g89
ssg70
g7928
sg63
(lp7940
S':'
asbag56
(g77
g58
NtRp7941
(dp7942
g61
(dp7943
sg70
g7928
sg63
(lp7944
g56
(g57
g58
NtRp7945
(dp7946
g61
(dp7947
g69
I5
ssg70
g7941
sg63
(lp7948
g56
(g65
g58
NtRp7949
(dp7950
g61
(dp7951
g69
I4
ssg70
Nsg63
(lp7952
sbasbasbasbag56
(g72
g58
NtRp7953
(dp7954
g61
(dp7955
sg70
g7558
sg63
(lp7956
g56
(g77
g58
NtRp7957
(dp7958
g61
(dp7959
g81
g82
ssg70
g7953
sg63
(lp7960
S'headers'
p7961
asbag56
(g77
g58
NtRp7962
(dp7963
g61
(dp7964
g88
g89
ssg70
g7953
sg63
(lp7965
S':'
asbag56
(g77
g58
NtRp7966
(dp7967
g61
(dp7968
sg70
g7953
sg63
(lp7969
g56
(g57
g58
NtRp7970
(dp7971
g61
(dp7972
g69
I5
ssg70
g7966
sg63
(lp7973
g56
(g65
g58
NtRp7974
(dp7975
g61
(dp7976
g69
I4
ssg70
Nsg63
(lp7977
g56
(g72
g58
NtRp7978
(dp7979
g61
(dp7980
sg70
g7974
sg63
(lp7981
g56
(g77
g58
NtRp7982
(dp7983
g61
(dp7984
g81
g82
ssg70
g7978
sg63
(lp7985
S'X-Powered-By'
p7986
asbag56
(g77
g58
NtRp7987
(dp7988
g61
(dp7989
g88
g89
ssg70
g7978
sg63
(lp7990
S':'
asbag56
(g77
g58
NtRp7991
(dp7992
g61
(dp7993
sg70
g7978
sg63
(lp7994
g56
(g57
g58
NtRp7995
(dp7996
g61
(dp7997
g69
I4
ssg70
g7991
sg63
(lp7998
S'web2py'
p7999
asbasbasbasbasbasbasbag56
(g72
g58
NtRp8000
(dp8001
g61
(dp8002
sg70
g7558
sg63
(lp8003
g56
(g77
g58
NtRp8004
(dp8005
g61
(dp8006
g81
g82
ssg70
g8000
sg63
(lp8007
S'menu'
p8008
asbag56
(g77
g58
NtRp8009
(dp8010
g61
(dp8011
g88
g89
ssg70
g8000
sg63
(lp8012
S':'
asbag56
(g77
g58
NtRp8013
(dp8014
g61
(dp8015
sg70
g8000
sg63
(lp8016
g56
(g57
g58
NtRp8017
(dp8018
g61
(dp8019
g69
I5
ssg70
g8013
sg63
(lp8020
g56
(g65
g58
NtRp8021
(dp8022
g61
(dp8023
g69
I4
ssg70
Nsg63
(lp8024
g56
(g72
g58
NtRp8025
(dp8026
g61
(dp8027
sg70
g8021
sg63
(lp8028
g56
(g77
g58
NtRp8029
(dp8030
g61
(dp8031
sg70
g8025
sg63
(lp8032
g56
(g57
g58
NtRp8033
(dp8034
g61
(dp8035
g69
I4
ssg70
g8029
sg63
(lp8036
g56
(g65
g58
NtRp8037
(dp8038
g61
(dp8039
g69
I3
ssg70
Nsg63
(lp8040
g56
(g72
g58
NtRp8041
(dp8042
g61
(dp8043
sg70
g8037
sg63
(lp8044
g56
(g77
g58
NtRp8045
(dp8046
g61
(dp8047
sg70
g8041
sg63
(lp8048
g56
(g57
g58
NtRp8049
(dp8050
g61
(dp8051
g69
I3
ssg70
g8045
sg63
(lp8052
cgluon.languages
lazyT_unpickle
p8053
(S's\x06\x00\x00\x00\xe6\x80\xbb\xe7\xab\x99'
tRp8054
asbasbasbag56
(g72
g58
NtRp8055
(dp8056
g61
(dp8057
sg70
g8037
sg63
(lp8058
g56
(g77
g58
NtRp8059
(dp8060
g61
(dp8061
sg70
g8055
sg63
(lp8062
g56
(g57
g58
NtRp8063
(dp8064
g61
(dp8065
g69
I3
ssg70
g8059
sg63
(lp8066
g99
asbasbasbag56
(g72
g58
NtRp8067
(dp8068
g61
(dp8069
sg70
g8037
sg63
(lp8070
g56
(g77
g58
NtRp8071
(dp8072
g61
(dp8073
sg70
g8067
sg63
(lp8074
g56
(g57
g58
NtRp8075
(dp8076
g61
(dp8077
g69
I3
ssg70
g8071
sg63
(lp8078
S'/admin/default/site'
p8079
asbasbasbasbasbasbasbag56
(g72
g58
NtRp8080
(dp8081
g61
(dp8082
sg70
g8021
sg63
(lp8083
g56
(g77
g58
NtRp8084
(dp8085
g61
(dp8086
sg70
g8080
sg63
(lp8087
g56
(g57
g58
NtRp8088
(dp8089
g61
(dp8090
g69
I4
ssg70
g8084
sg63
(lp8091
g56
(g65
g58
NtRp8092
(dp8093
g61
(dp8094
g69
I3
ssg70
Nsg63
(lp8095
g56
(g72
g58
NtRp8096
(dp8097
g61
(dp8098
sg70
g8092
sg63
(lp8099
g56
(g77
g58
NtRp8100
(dp8101
g61
(dp8102
sg70
g8096
sg63
(lp8103
g56
(g57
g58
NtRp8104
(dp8105
g61
(dp8106
g69
I3
ssg70
g8100
sg63
(lp8107
g8053
(S's\x06\x00\x00\x00\xe6\xb3\xa8\xe9\x94\x80'
tRp8108
asbasbasbag56
(g72
g58
NtRp8109
(dp8110
g61
(dp8111
sg70
g8092
sg63
(lp8112
g56
(g77
g58
NtRp8113
(dp8114
g61
(dp8115
sg70
g8109
sg63
(lp8116
g56
(g57
g58
NtRp8117
(dp8118
g61
(dp8119
g69
I3
ssg70
g8113
sg63
(lp8120
g99
asbasbasbag56
(g72
g58
NtRp8121
(dp8122
g61
(dp8123
sg70
g8092
sg63
(lp8124
g56
(g77
g58
NtRp8125
(dp8126
g61
(dp8127
sg70
g8121
sg63
(lp8128
g56
(g57
g58
NtRp8129
(dp8130
g61
(dp8131
g69
I3
ssg70
g8125
sg63
(lp8132
S'/admin/default/logout'
p8133
asbasbasbasbasbasbasbag56
(g72
g58
NtRp8134
(dp8135
g61
(dp8136
sg70
g8021
sg63
(lp8137
g56
(g77
g58
NtRp8138
(dp8139
g61
(dp8140
sg70
g8134
sg63
(lp8141
g56
(g57
g58
NtRp8142
(dp8143
g61
(dp8144
g69
I4
ssg70
g8138
sg63
(lp8145
g56
(g65
g58
NtRp8146
(dp8147
g61
(dp8148
g69
I3
ssg70
Nsg63
(lp8149
g56
(g72
g58
NtRp8150
(dp8151
g61
(dp8152
sg70
g8146
sg63
(lp8153
g56
(g77
g58
NtRp8154
(dp8155
g61
(dp8156
sg70
g8150
sg63
(lp8157
g56
(g57
g58
NtRp8158
(dp8159
g61
(dp8160
g69
I3
ssg70
g8154
sg63
(lp8161
g8053
(S's\x05\x00\x00\x00Debug'
tRp8162
asbasbasbag56
(g72
g58
NtRp8163
(dp8164
g61
(dp8165
sg70
g8146
sg63
(lp8166
g56
(g77
g58
NtRp8167
(dp8168
g61
(dp8169
sg70
g8163
sg63
(lp8170
g56
(g57
g58
NtRp8171
(dp8172
g61
(dp8173
g69
I3
ssg70
g8167
sg63
(lp8174
g99
asbasbasbag56
(g72
g58
NtRp8175
(dp8176
g61
(dp8177
sg70
g8146
sg63
(lp8178
g56
(g77
g58
NtRp8179
(dp8180
g61
(dp8181
sg70
g8175
sg63
(lp8182
g56
(g57
g58
NtRp8183
(dp8184
g61
(dp8185
g69
I3
ssg70
g8179
sg63
(lp8186
S'/admin/debug/interact'
p8187
asbasbasbasbasbasbasbag56
(g72
g58
NtRp8188
(dp8189
g61
(dp8190
sg70
g8021
sg63
(lp8191
g56
(g77
g58
NtRp8192
(dp8193
g61
(dp8194
sg70
g8188
sg63
(lp8195
g56
(g57
g58
NtRp8196
(dp8197
g61
(dp8198
g69
I4
ssg70
g8192
sg63
(lp8199
g56
(g65
g58
NtRp8200
(dp8201
g61
(dp8202
g69
I3
ssg70
Nsg63
(lp8203
g56
(g72
g58
NtRp8204
(dp8205
g61
(dp8206
sg70
g8200
sg63
(lp8207
g56
(g77
g58
NtRp8208
(dp8209
g61
(dp8210
sg70
g8204
sg63
(lp8211
g56
(g57
g58
NtRp8212
(dp8213
g61
(dp8214
g69
I3
ssg70
g8208
sg63
(lp8215
g8053
(S's\x06\x00\x00\x00\xe5\xb8\xae\xe5\x8a\xa9'
tRp8216
asbasbasbag56
(g72
g58
NtRp8217
(dp8218
g61
(dp8219
sg70
g8200
sg63
(lp8220
g56
(g77
g58
NtRp8221
(dp8222
g61
(dp8223
sg70
g8217
sg63
(lp8224
g56
(g57
g58
NtRp8225
(dp8226
g61
(dp8227
g69
I3
ssg70
g8221
sg63
(lp8228
g99
asbasbasbag56
(g72
g58
NtRp8229
(dp8230
g61
(dp8231
sg70
g8200
sg63
(lp8232
g56
(g77
g58
NtRp8233
(dp8234
g61
(dp8235
sg70
g8229
sg63
(lp8236
g56
(g57
g58
NtRp8237
(dp8238
g61
(dp8239
g69
I3
ssg70
g8233
sg63
(lp8240
S'/examples/default/index'
p8241
asbasbasbasbasbasbasbasbasbasbasbag56
(g72
g58
NtRp8242
(dp8243
g61
(dp8244
sg70
g7558
sg63
(lp8245
g56
(g77
g58
NtRp8246
(dp8247
g61
(dp8248
g81
g82
ssg70
g8242
sg63
(lp8249
S'meta'
p8250
asbag56
(g77
g58
NtRp8251
(dp8252
g61
(dp8253
g88
g89
ssg70
g8242
sg63
(lp8254
S':'
asbag56
(g77
g58
NtRp8255
(dp8256
g61
(dp8257
sg70
g8242
sg63
(lp8258
g56
(g57
g58
NtRp8259
(dp8260
g61
(dp8261
g69
I5
ssg70
g8255
sg63
(lp8262
g56
(g65
g58
NtRp8263
(dp8264
g61
(dp8265
g69
I4
ssg70
Nsg63
(lp8266
sbasbasbasbag56
(g72
g58
NtRp8267
(dp8268
g61
(dp8269
sg70
g7558
sg63
(lp8270
g56
(g77
g58
NtRp8271
(dp8272
g61
(dp8273
g81
g82
ssg70
g8267
sg63
(lp8274
S'models_to_run'
p8275
asbag56
(g77
g58
NtRp8276
(dp8277
g61
(dp8278
g88
g89
ssg70
g8267
sg63
(lp8279
S':'
asbag56
(g77
g58
NtRp8280
(dp8281
g61
(dp8282
sg70
g8267
sg63
(lp8283
g56
(g57
g58
NtRp8284
(dp8285
g61
(dp8286
g69
I5
ssg70
g8280
sg63
(lp8287
g56
(g65
g58
NtRp8288
(dp8289
g61
(dp8290
g69
I4
ssg70
Nsg63
(lp8291
g56
(g72
g58
NtRp8292
(dp8293
g61
(dp8294
sg70
g8288
sg63
(lp8295
g56
(g77
g58
NtRp8296
(dp8297
g61
(dp8298
sg70
g8292
sg63
(lp8299
g56
(g57
g58
NtRp8300
(dp8301
g61
(dp8302
g69
I4
ssg70
g8296
sg63
(lp8303
S'^\\w+\\.py$'
p8304
asbasbasbag56
(g72
g58
NtRp8305
(dp8306
g61
(dp8307
sg70
g8288
sg63
(lp8308
g56
(g77
g58
NtRp8309
(dp8310
g61
(dp8311
sg70
g8305
sg63
(lp8312
g56
(g57
g58
NtRp8313
(dp8314
g61
(dp8315
g69
I4
ssg70
g8309
sg63
(lp8316
S'^wizard/\\w+\\.py$'
p8317
asbasbasbag56
(g72
g58
NtRp8318
(dp8319
g61
(dp8320
sg70
g8288
sg63
(lp8321
g56
(g77
g58
NtRp8322
(dp8323
g61
(dp8324
sg70
g8318
sg63
(lp8325
g56
(g57
g58
NtRp8326
(dp8327
g61
(dp8328
g69
I4
ssg70
g8322
sg63
(lp8329
S'^wizard/step6/\\w+\\.py$'
p8330
asbasbasbasbasbasbasbag56
(g72
g58
NtRp8331
(dp8332
g61
(dp8333
sg70
g7558
sg63
(lp8334
g56
(g77
g58
NtRp8335
(dp8336
g61
(dp8337
g81
g82
ssg70
g8331
sg63
(lp8338
S'postprocessing'
p8339
asbag56
(g77
g58
NtRp8340
(dp8341
g61
(dp8342
g88
g89
ssg70
g8331
sg63
(lp8343
S':'
asbag56
(g77
g58
NtRp8344
(dp8345
g61
(dp8346
sg70
g8331
sg63
(lp8347
g56
(g57
g58
NtRp8348
(dp8349
g61
(dp8350
g69
I5
ssg70
g8344
sg63
(lp8351
g56
(g65
g58
NtRp8352
(dp8353
g61
(dp8354
g69
I4
ssg70
Nsg63
(lp8355
sbasbasbasbag56
(g72
g58
NtRp8356
(dp8357
g61
(dp8358
sg70
g7558
sg63
(lp8359
g56
(g77
g58
NtRp8360
(dp8361
g61
(dp8362
g81
g82
ssg70
g8356
sg63
(lp8363
S'session_cookie_expires'
p8364
asbag56
(g77
g58
NtRp8365
(dp8366
g61
(dp8367
g88
g89
ssg70
g8356
sg63
(lp8368
S':'
asbag56
(g77
g58
NtRp8369
(dp8370
g61
(dp8371
sg70
g8356
sg63
(lp8372
g56
(g57
g58
NtRp8373
(dp8374
g61
(dp8375
g69
I5
ssg70
g8369
sg63
(lp8376
S'None'
p8377
asbasbasbag56
(g72
g58
NtRp8378
(dp8379
g61
(dp8380
sg70
g7558
sg63
(lp8381
g56
(g77
g58
NtRp8382
(dp8383
g61
(dp8384
g81
g82
ssg70
g8378
sg63
(lp8385
S'session_data_name'
p8386
asbag56
(g77
g58
NtRp8387
(dp8388
g61
(dp8389
g88
g89
ssg70
g8378
sg63
(lp8390
S':'
asbag56
(g77
g58
NtRp8391
(dp8392
g61
(dp8393
sg70
g8378
sg63
(lp8394
g56
(g57
g58
NtRp8395
(dp8396
g61
(dp8397
g69
I5
ssg70
g8391
sg63
(lp8398
S'session_data_admin'
p8399
asbasbasbag56
(g72
g58
NtRp8400
(dp8401
g61
(dp8402
sg70
g7558
sg63
(lp8403
g56
(g77
g58
NtRp8404
(dp8405
g61
(dp8406
g81
g82
ssg70
g8400
sg63
(lp8407
S'session_file'
p8408
asbag56
(g77
g58
NtRp8409
(dp8410
g61
(dp8411
g88
g89
ssg70
g8400
sg63
(lp8412
S':'
asbag56
(g77
g58
NtRp8413
(dp8414
g61
(dp8415
sg70
g8400
sg63
(lp8416
g56
(g57
g58
NtRp8417
(dp8418
g61
(dp8419
g69
I5
ssg70
g8413
sg63
(lp8420
S"<open file 'C:\\Python27\\web2py\\applications\\admin\\sessions\\127.0.0.1-2d1464ce-f29b-4e42-92ce-a409d3257b63', mode 'rb+' at 0x059B21D8>"
p8421
asbasbasbag56
(g72
g58
NtRp8422
(dp8423
g61
(dp8424
sg70
g7558
sg63
(lp8425
g56
(g77
g58
NtRp8426
(dp8427
g61
(dp8428
g81
g82
ssg70
g8422
sg63
(lp8429
S'session_filename'
p8430
asbag56
(g77
g58
NtRp8431
(dp8432
g61
(dp8433
g88
g89
ssg70
g8422
sg63
(lp8434
S':'
asbag56
(g77
g58
NtRp8435
(dp8436
g61
(dp8437
sg70
g8422
sg63
(lp8438
g56
(g57
g58
NtRp8439
(dp8440
g61
(dp8441
g69
I5
ssg70
g8435
sg63
(lp8442
S'C:\\Python27\\web2py\\applications\\admin\\sessions\\127.0.0.1-2d1464ce-f29b-4e42-92ce-a409d3257b63'
p8443
asbasbasbag56
(g72
g58
NtRp8444
(dp8445
g61
(dp8446
sg70
g7558
sg63
(lp8447
g56
(g77
g58
NtRp8448
(dp8449
g61
(dp8450
g81
g82
ssg70
g8444
sg63
(lp8451
S'session_id'
p8452
asbag56
(g77
g58
NtRp8453
(dp8454
g61
(dp8455
g88
g89
ssg70
g8444
sg63
(lp8456
S':'
asbag56
(g77
g58
NtRp8457
(dp8458
g61
(dp8459
sg70
g8444
sg63
(lp8460
g56
(g57
g58
NtRp8461
(dp8462
g61
(dp8463
g69
I5
ssg70
g8457
sg63
(lp8464
g280
asbasbasbag56
(g72
g58
NtRp8465
(dp8466
g61
(dp8467
sg70
g7558
sg63
(lp8468
g56
(g77
g58
NtRp8469
(dp8470
g61
(dp8471
g81
g82
ssg70
g8465
sg63
(lp8472
S'session_id_name'
p8473
asbag56
(g77
g58
NtRp8474
(dp8475
g61
(dp8476
g88
g89
ssg70
g8465
sg63
(lp8477
S':'
asbag56
(g77
g58
NtRp8478
(dp8479
g61
(dp8480
sg70
g8465
sg63
(lp8481
g56
(g57
g58
NtRp8482
(dp8483
g61
(dp8484
g69
I5
ssg70
g8478
sg63
(lp8485
g7615
asbasbasbag56
(g72
g58
NtRp8486
(dp8487
g61
(dp8488
sg70
g7558
sg63
(lp8489
g56
(g77
g58
NtRp8490
(dp8491
g61
(dp8492
g81
g82
ssg70
g8486
sg63
(lp8493
S'session_locked'
p8494
asbag56
(g77
g58
NtRp8495
(dp8496
g61
(dp8497
g88
g89
ssg70
g8486
sg63
(lp8498
S':'
asbag56
(g77
g58
NtRp8499
(dp8500
g61
(dp8501
sg70
g8486
sg63
(lp8502
g56
(g57
g58
NtRp8503
(dp8504
g61
(dp8505
g69
I5
ssg70
g8499
sg63
(lp8506
g2433
asbasbasbag56
(g72
g58
NtRp8507
(dp8508
g61
(dp8509
sg70
g7558
sg63
(lp8510
g56
(g77
g58
NtRp8511
(dp8512
g61
(dp8513
g81
g82
ssg70
g8507
sg63
(lp8514
S'session_new'
p8515
asbag56
(g77
g58
NtRp8516
(dp8517
g61
(dp8518
g88
g89
ssg70
g8507
sg63
(lp8519
S':'
asbag56
(g77
g58
NtRp8520
(dp8521
g61
(dp8522
sg70
g8507
sg63
(lp8523
g56
(g57
g58
NtRp8524
(dp8525
g61
(dp8526
g69
I5
ssg70
g8520
sg63
(lp8527
g99
asbasbasbag56
(g72
g58
NtRp8528
(dp8529
g61
(dp8530
sg70
g7558
sg63
(lp8531
g56
(g77
g58
NtRp8532
(dp8533
g61
(dp8534
g81
g82
ssg70
g8528
sg63
(lp8535
S'session_storage_type'
p8536
asbag56
(g77
g58
NtRp8537
(dp8538
g61
(dp8539
g88
g89
ssg70
g8528
sg63
(lp8540
S':'
asbag56
(g77
g58
NtRp8541
(dp8542
g61
(dp8543
sg70
g8528
sg63
(lp8544
g56
(g57
g58
NtRp8545
(dp8546
g61
(dp8547
g69
I5
ssg70
g8541
sg63
(lp8548
g4263
asbasbasbag56
(g72
g58
NtRp8549
(dp8550
g61
(dp8551
sg70
g7558
sg63
(lp8552
g56
(g77
g58
NtRp8553
(dp8554
g61
(dp8555
g81
g82
ssg70
g8549
sg63
(lp8556
S'status'
p8557
asbag56
(g77
g58
NtRp8558
(dp8559
g61
(dp8560
g88
g89
ssg70
g8549
sg63
(lp8561
S':'
asbag56
(g77
g58
NtRp8562
(dp8563
g61
(dp8564
sg70
g8549
sg63
(lp8565
g56
(g57
g58
NtRp8566
(dp8567
g61
(dp8568
g69
I5
ssg70
g8562
sg63
(lp8569
S'200'
p8570
asbasbasbag56
(g72
g58
NtRp8571
(dp8572
g61
(dp8573
sg70
g7558
sg63
(lp8574
g56
(g77
g58
NtRp8575
(dp8576
g61
(dp8577
g81
g82
ssg70
g8571
sg63
(lp8578
S'subtitle'
p8579
asbag56
(g77
g58
NtRp8580
(dp8581
g61
(dp8582
g88
g89
ssg70
g8571
sg63
(lp8583
S':'
asbag56
(g77
g58
NtRp8584
(dp8585
g61
(dp8586
sg70
g8571
sg63
(lp8587
g56
(g57
g58
NtRp8588
(dp8589
g61
(dp8590
g69
I5
ssg70
g8584
sg63
(lp8591
S'admin'
p8592
asbasbasbag56
(g72
g58
NtRp8593
(dp8594
g61
(dp8595
sg70
g7558
sg63
(lp8596
g56
(g77
g58
NtRp8597
(dp8598
g61
(dp8599
g81
g82
ssg70
g8593
sg63
(lp8600
S'title'
p8601
asbag56
(g77
g58
NtRp8602
(dp8603
g61
(dp8604
g88
g89
ssg70
g8593
sg63
(lp8605
S':'
asbag56
(g77
g58
NtRp8606
(dp8607
g61
(dp8608
sg70
g8593
sg63
(lp8609
g56
(g57
g58
NtRp8610
(dp8611
g61
(dp8612
g69
I5
ssg70
g8606
sg63
(lp8613
S'step6 '
p8614
asbasbasbag56
(g72
g58
NtRp8615
(dp8616
g61
(dp8617
sg70
g7558
sg63
(lp8618
g56
(g77
g58
NtRp8619
(dp8620
g61
(dp8621
g81
g82
ssg70
g8615
sg63
(lp8622
S'view'
p8623
asbag56
(g77
g58
NtRp8624
(dp8625
g61
(dp8626
g88
g89
ssg70
g8615
sg63
(lp8627
S':'
asbag56
(g77
g58
NtRp8628
(dp8629
g61
(dp8630
sg70
g8615
sg63
(lp8631
g56
(g57
g58
NtRp8632
(dp8633
g61
(dp8634
g69
I5
ssg70
g8628
sg63
(lp8635
S'wizard/step.html'
p8636
asbasbasbasbasbsS'locals'
p8637
(dp8638
S'trail'
p8639
S"['question', 'answer']"
p8640
sS'table'
p8641
S"'question'"
p8642
sS'd'
S"{'answer': ['question'], 'auth_user': [], 'course': [], 'netdiskfile': [], 'question': ['answer'], 'score': [], 'work': []}"
p8643
sg4405
S'<function append>'
p8644
sS'tables'
p8645
S"['auth_user', 'netdiskfile', 'work']"
p8646
sssS'traceback'
p8647
S'Traceback (most recent call last):\n  File "C:\\Python27\\web2py\\gluon\\restricted.py", line 212, in restricted\n    exec ccode in environment\n  File "C:\\Python27\\web2py\\applications\\admin\\controllers/wizard.py", line 607, in <module>\n  File "C:\\Python27\\web2py\\gluon\\globals.py", line 193, in <lambda>\n    self._caller = lambda f: f()\n  File "C:\\Python27\\web2py\\applications\\admin\\controllers/wizard.py", line 250, in step6\n    create(form.vars)\n  File "C:\\Python27\\web2py\\applications\\admin\\controllers/wizard.py", line 552, in create\n    tables = sort_tables(session.app[\'tables\'])\n  File "C:\\Python27\\web2py\\applications\\admin\\controllers/wizard.py", line 282, in sort_tables\n    append(table)\n  File "C:\\Python27\\web2py\\applications\\admin\\controllers/wizard.py", line 278, in append\n    append(t, trail=trail + [table])\n  File "C:\\Python27\\web2py\\applications\\admin\\controllers/wizard.py", line 278, in append\n    append(t, trail=trail + [table])\n  File "C:\\Python27\\web2py\\applications\\admin\\controllers/wizard.py", line 275, in append\n    raise RuntimeError\nRuntimeError\n'
p8648
s.