(dp1
S'output'
p2
S"<type 'exceptions.NameError'> global name 'disk_db' is not defined"
p3
sS'layer'
p4
S'D:\\My Documents\\Documents\\Aptana Studio 3 Workspace\\hw2\\applications\\hw4\\controllers/plugin_elrte_widget.py'
p5
sS'code'
p6
S'# -*- coding: utf-8 -*-\nfrom plugin_elrte_widget import ElrteWidget\nfrom plugin_dialog import DIALOG\nfrom plugin_uploadify_widget import (\n    uploadify_widget, IS_UPLOADIFY_IMAGE, IS_UPLOADIFY_LENGTH\n)\n\n\n\ndef index():\n    # set language\n    try:\n        lang = T.accepted_language.split(\'-\')[0].replace(\'ja\', \'jp\')\n    except:\n        lang = \'en\'\n\n    image_chooser = DIALOG(title=T(\'Select an image\'), close=T(\'close\'), renderstyle=True,\n                           content=LOAD(\'plugin_elrte_widget\', \'image_upload_or_choose\', ajax=True))\n    file_chooser = DIALOG(title=T(\'Select a file\'), close=T(\'close\'), renderstyle=True,\n                          content=LOAD(\'plugin_elrte_widget\', \'file_upload_or_choose\', ajax=True))\n    fm_open = """function(callback, kind){\nif (kind == \'elfinder\') {%s;} else {%s;}\njQuery.data(document.body, \'elrte_callback\', callback)\n}""" % (file_chooser.show(), image_chooser.show())\n\n    cssfiles = [URL(\'static\', \'css/base.css\')]\n    \n    ################################ The core ######################################\n    # Inject the elrte widget\n    # You can specify the language for the editor, and include your image chooser.\n    # In this demo, the image chooser uses the uploadify plugin.\n    # If you want to edit contents with css applied, pass the css file urls for an argument.\n    db.course.neirong.widget = ElrteWidget()\n    db.course.neirong.widget.settings.lang = lang\n    db.course.neirong.widget.settings.fm_open = fm_open\n    db.course.neirong.widget.settings.cssfiles = cssfiles\n    ################################################################################\n\n    form = SQLFORM(db.course)\n    if form.accepts(request.vars, session):\n        session.flash = \'submitted %s\' % form.vars\n        redirect(URL(\'index\'))\n        \n    return dict(form=form)\n\n\ndef image_upload_or_choose():\n    form = SQLFORM(image_table, upload=URL(\'download\'))\n    info = \'\'\n    if form.accepts(request.vars, session):\n        info = \'submitted %s\' % form.vars\n    \n    records = db(image_table.id > 0).select(orderby=~image_table.id, limitby=(0, 3))\n    _get_src = lambda r: URL(request.controller, \'download\', args=r.image)\n    records = DIV([IMG(_src=_get_src(r),\n                       _onclick="""\njQuery.data(document.body, \'elrte_callback\')(\'%s\');jQuery(\'.dialog\').hide(); return false;\n""" % _get_src(r), _style=\'max-width:50px;max-height:50px;margin:5px;cursor:pointer;\')\n                    for r in records])\n    return BEAUTIFY(dict(form=form, info=info, records=records))\n\n\ndef file_upload_or_choose():\n    form = SQLFORM(file_table, upload=URL(\'download\'))\n    info = \'\'\n    if form.accepts(request.vars, session):\n        info = \'submitted %s\' % form.vars\n    \n    def _get_icon(v):\n        ext = v.split(\'.\')[-1]\n        if ext in (\'pdf\',):\n            filename = \'icon_pdf.gif\'\n        elif ext in (\'doc\', \'docx\', \'rst\'):\n            filename = \'icon_doc.gif\'\n        elif ext in (\'xls\', \'xlsx\'):\n            filename = \'icon_xls.gif\'\n        elif ext in (\'ppt\', \'pptx\', \'pps\'):\n            filename = \'icon_pps.gif\'\n        elif ext in (\'jpg\', \'gif\', \'png\', \'bmp\', \'svg\', \'eps\'):\n            filename = \'icon_pic.gif\'\n        elif ext in (\'swf\', \'fla\'):\n            filename = \'icon_flash.gif\'\n        elif ext in (\'mp3\', \'wav\', \'ogg\', \'wma\', \'m4a\'):\n            filename = \'icon_music.gif\'\n        elif ext in (\'mov\', \'wmv\', \'mp4\', \'api\', \'mpg\', \'flv\'):\n            filename = \'icon_film.gif\'\n        elif ext in (\'zip\', \'rar\', \'gzip\', \'bzip\', \'ace\', \'gz\'):\n            filename = \'icon_archive.gif\'\n        else:\n            filename = \'icon_txt.gif\'\n        return IMG(_src=URL(\'static\', \'plugin_elrte_widget/custom/icons/%s\' % filename),\n                   _style=\'cursor:pointer;margin-right:5px;\')\n    \n    records = disk_db(file_table.id > 0).select(orderby=~file_table.id, limitby=(0, 3))\n    records = DIV([DIV(A(_get_icon(r.myfile), r.name, _href=\'#\', _onclick="""\njQuery.data(document.body, \'elrte_callback\')(\'%s\');jQuery(\'.dialog\').hide(); return false;\n""" % A(_get_icon(r.myfile), r.name, _href=URL(request.controller, \'download\', args=r.myfile)).xml()),\n                       _style=\'margin-bottom:5px;\') for r in records])\n    \n    return BEAUTIFY(dict(form=form, info=info, records=records))\n\n\ndef download():\n    return response.download(request, db)\n\nresponse._vars=response._caller(file_upload_or_choose)\n'
p7
sS'snapshot'
p8
(dp9
S'exception'
p10
(dp11
S'__hash__'
p12
S"<method-wrapper '__hash__' of exceptions.NameError object>"
p13
sS'__setattr__'
p14
S"<method-wrapper '__setattr__' of exceptions.NameError object>"
p15
sS'__reduce_ex__'
p16
S'<built-in method __reduce_ex__ of exceptions.NameError object>'
p17
sS'__getslice__'
p18
S"<method-wrapper '__getslice__' of exceptions.NameError object>"
p19
sS'__getitem__'
p20
S"<method-wrapper '__getitem__' of exceptions.NameError object>"
p21
sS'__setstate__'
p22
S'<built-in method __setstate__ of exceptions.NameError object>'
p23
sS'__reduce__'
p24
S'<built-in method __reduce__ of exceptions.NameError object>'
p25
sS'__str__'
p26
S"<method-wrapper '__str__' of exceptions.NameError object>"
p27
sS'__format__'
p28
S'<built-in method __format__ of exceptions.NameError object>'
p29
sS'__getattribute__'
p30
S"<method-wrapper '__getattribute__' of exceptions.NameError object>"
p31
sS'__class__'
p32
S"<type 'exceptions.NameError'>"
p33
sS'__unicode__'
p34
S'<built-in method __unicode__ of exceptions.NameError object>'
p35
sS'__delattr__'
p36
S"<method-wrapper '__delattr__' of exceptions.NameError object>"
p37
sS'__subclasshook__'
p38
S'<built-in method __subclasshook__ of type object>'
p39
sS'__repr__'
p40
S"<method-wrapper '__repr__' of exceptions.NameError object>"
p41
sS'args'
p42
S'("global name \'disk_db\' is not defined",)'
p43
sS'__dict__'
p44
S'{}'
p45
sS'__sizeof__'
p46
S'<built-in method __sizeof__ of exceptions.NameError object>'
p47
sS'__doc__'
p48
S"'Name not found globally.'"
p49
sS'__init__'
p50
S"<method-wrapper '__init__' of exceptions.NameError object>"
p51
sS'__new__'
p52
S'<built-in method __new__ of type object>'
p53
ssS'evalue'
p54
S"global name 'disk_db' is not defined"
p55
sS'request'
p56
ccopy_reg
_reconstructor
p57
(cgluon.html
BEAUTIFY
p58
c__builtin__
object
p59
NtRp60
(dp61
S'attributes'
p62
(dp63
sS'components'
p64
(lp65
g57
(cgluon.html
TABLE
p66
g59
NtRp67
(dp68
g62
(dp69
S'level'
p70
I5
ssS'parent'
p71
Nsg64
(lp72
g57
(cgluon.html
TR
p73
g59
NtRp74
(dp75
g62
(dp76
sg71
g67
sg64
(lp77
g57
(cgluon.html
TD
p78
g59
NtRp79
(dp80
g62
(dp81
S'_style'
p82
S'font-weight:bold;vertical-align:top'
p83
ssg71
g74
sg64
(lp84
S'ajax'
p85
asbag57
(g78
g59
NtRp86
(dp87
g62
(dp88
S'_valign'
p89
S'top'
p90
ssg71
g74
sg64
(lp91
S':'
asbag57
(g78
g59
NtRp92
(dp93
g62
(dp94
sg71
g74
sg64
(lp95
g57
(g58
g59
NtRp96
(dp97
g62
(dp98
g70
I5
ssg71
g92
sg64
(lp99
S'True'
p100
asbasbasbag57
(g73
g59
NtRp101
(dp102
g62
(dp103
sg71
g67
sg64
(lp104
g57
(g78
g59
NtRp105
(dp106
g62
(dp107
g82
g83
ssg71
g101
sg64
(lp108
S'application'
p109
asbag57
(g78
g59
NtRp110
(dp111
g62
(dp112
g89
g90
ssg71
g101
sg64
(lp113
S':'
asbag57
(g78
g59
NtRp114
(dp115
g62
(dp116
sg71
g101
sg64
(lp117
g57
(g58
g59
NtRp118
(dp119
g62
(dp120
g70
I5
ssg71
g114
sg64
(lp121
S'hw4'
p122
asbasbasbag57
(g73
g59
NtRp123
(dp124
g62
(dp125
sg71
g67
sg64
(lp126
g57
(g78
g59
NtRp127
(dp128
g62
(dp129
g82
g83
ssg71
g123
sg64
(lp130
g42
asbag57
(g78
g59
NtRp131
(dp132
g62
(dp133
g89
g90
ssg71
g123
sg64
(lp134
S':'
asbag57
(g78
g59
NtRp135
(dp136
g62
(dp137
sg71
g123
sg64
(lp138
g57
(g58
g59
NtRp139
(dp140
g62
(dp141
g70
I5
ssg71
g135
sg64
(lp142
g57
(g66
g59
NtRp143
(dp144
g62
(dp145
g70
I4
ssg71
Nsg64
(lp146
sbasbasbasbag57
(g73
g59
NtRp147
(dp148
g62
(dp149
sg71
g67
sg64
(lp150
g57
(g78
g59
NtRp151
(dp152
g62
(dp153
g82
g83
ssg71
g147
sg64
(lp154
S'body'
p155
asbag57
(g78
g59
NtRp156
(dp157
g62
(dp158
g89
g90
ssg71
g147
sg64
(lp159
S':'
asbag57
(g78
g59
NtRp160
(dp161
g62
(dp162
sg71
g147
sg64
(lp163
g57
(g58
g59
NtRp164
(dp165
g62
(dp166
g70
I5
ssg71
g160
sg64
(lp167
S'<cStringIO.StringO object at 0x04C8DAC0>'
p168
asbasbasbag57
(g73
g59
NtRp169
(dp170
g62
(dp171
sg71
g67
sg64
(lp172
g57
(g78
g59
NtRp173
(dp174
g62
(dp175
g82
g83
ssg71
g169
sg64
(lp176
S'cid'
p177
asbag57
(g78
g59
NtRp178
(dp179
g62
(dp180
g89
g90
ssg71
g169
sg64
(lp181
S':'
asbag57
(g78
g59
NtRp182
(dp183
g62
(dp184
sg71
g169
sg64
(lp185
g57
(g58
g59
NtRp186
(dp187
g62
(dp188
g70
I5
ssg71
g182
sg64
(lp189
S'c529674397786'
p190
asbasbasbag57
(g73
g59
NtRp191
(dp192
g62
(dp193
sg71
g67
sg64
(lp194
g57
(g78
g59
NtRp195
(dp196
g62
(dp197
g82
g83
ssg71
g191
sg64
(lp198
S'client'
p199
asbag57
(g78
g59
NtRp200
(dp201
g62
(dp202
g89
g90
ssg71
g191
sg64
(lp203
S':'
asbag57
(g78
g59
NtRp204
(dp205
g62
(dp206
sg71
g191
sg64
(lp207
g57
(g58
g59
NtRp208
(dp209
g62
(dp210
g70
I5
ssg71
g204
sg64
(lp211
S'127.0.0.1'
p212
asbasbasbag57
(g73
g59
NtRp213
(dp214
g62
(dp215
sg71
g67
sg64
(lp216
g57
(g78
g59
NtRp217
(dp218
g62
(dp219
g82
g83
ssg71
g213
sg64
(lp220
S'controller'
p221
asbag57
(g78
g59
NtRp222
(dp223
g62
(dp224
g89
g90
ssg71
g213
sg64
(lp225
S':'
asbag57
(g78
g59
NtRp226
(dp227
g62
(dp228
sg71
g213
sg64
(lp229
g57
(g58
g59
NtRp230
(dp231
g62
(dp232
g70
I5
ssg71
g226
sg64
(lp233
S'plugin_elrte_widget'
p234
asbasbasbag57
(g73
g59
NtRp235
(dp236
g62
(dp237
sg71
g67
sg64
(lp238
g57
(g78
g59
NtRp239
(dp240
g62
(dp241
g82
g83
ssg71
g235
sg64
(lp242
S'cookies'
p243
asbag57
(g78
g59
NtRp244
(dp245
g62
(dp246
g89
g90
ssg71
g235
sg64
(lp247
S':'
asbag57
(g78
g59
NtRp248
(dp249
g62
(dp250
sg71
g235
sg64
(lp251
g57
(g58
g59
NtRp252
(dp253
g62
(dp254
g70
I5
ssg71
g248
sg64
(lp255
g57
(g66
g59
NtRp256
(dp257
g62
(dp258
g70
I4
ssg71
Nsg64
(lp259
g57
(g73
g59
NtRp260
(dp261
g62
(dp262
sg71
g256
sg64
(lp263
g57
(g78
g59
NtRp264
(dp265
g62
(dp266
g82
g83
ssg71
g260
sg64
(lp267
S'session_id_admin'
p268
asbag57
(g78
g59
NtRp269
(dp270
g62
(dp271
g89
g90
ssg71
g260
sg64
(lp272
S':'
asbag57
(g78
g59
NtRp273
(dp274
g62
(dp275
sg71
g260
sg64
(lp276
g57
(g58
g59
NtRp277
(dp278
g62
(dp279
g70
I4
ssg71
g273
sg64
(lp280
S'127.0.0.1-085758b8-8bcc-4b19-a5fa-3f370d105c70'
p281
ag57
(g66
g59
NtRp282
(dp283
g62
(dp284
g70
I3
ssg71
Nsg64
(lp285
g57
(g73
g59
NtRp286
(dp287
g62
(dp288
sg71
g282
sg64
(lp289
g57
(g78
g59
NtRp290
(dp291
g62
(dp292
g82
g83
ssg71
g286
sg64
(lp293
S'comment'
p294
asbag57
(g78
g59
NtRp295
(dp296
g62
(dp297
g89
g90
ssg71
g286
sg64
(lp298
S':'
asbag57
(g78
g59
NtRp299
(dp300
g62
(dp301
sg71
g286
sg64
(lp302
g57
(g58
g59
NtRp303
(dp304
g62
(dp305
g70
I3
ssg71
g299
sg64
(lp306
S''
asbasbasbag57
(g73
g59
NtRp307
(dp308
g62
(dp309
sg71
g282
sg64
(lp310
g57
(g78
g59
NtRp311
(dp312
g62
(dp313
g82
g83
ssg71
g307
sg64
(lp314
S'domain'
p315
asbag57
(g78
g59
NtRp316
(dp317
g62
(dp318
g89
g90
ssg71
g307
sg64
(lp319
S':'
asbag57
(g78
g59
NtRp320
(dp321
g62
(dp322
sg71
g307
sg64
(lp323
g57
(g58
g59
NtRp324
(dp325
g62
(dp326
g70
I3
ssg71
g320
sg64
(lp327
S''
asbasbasbag57
(g73
g59
NtRp328
(dp329
g62
(dp330
sg71
g282
sg64
(lp331
g57
(g78
g59
NtRp332
(dp333
g62
(dp334
g82
g83
ssg71
g328
sg64
(lp335
S'expires'
p336
asbag57
(g78
g59
NtRp337
(dp338
g62
(dp339
g89
g90
ssg71
g328
sg64
(lp340
S':'
asbag57
(g78
g59
NtRp341
(dp342
g62
(dp343
sg71
g328
sg64
(lp344
g57
(g58
g59
NtRp345
(dp346
g62
(dp347
g70
I3
ssg71
g341
sg64
(lp348
S''
asbasbasbag57
(g73
g59
NtRp349
(dp350
g62
(dp351
sg71
g282
sg64
(lp352
g57
(g78
g59
NtRp353
(dp354
g62
(dp355
g82
g83
ssg71
g349
sg64
(lp356
S'httponly'
p357
asbag57
(g78
g59
NtRp358
(dp359
g62
(dp360
g89
g90
ssg71
g349
sg64
(lp361
S':'
asbag57
(g78
g59
NtRp362
(dp363
g62
(dp364
sg71
g349
sg64
(lp365
g57
(g58
g59
NtRp366
(dp367
g62
(dp368
g70
I3
ssg71
g362
sg64
(lp369
S''
asbasbasbag57
(g73
g59
NtRp370
(dp371
g62
(dp372
sg71
g282
sg64
(lp373
g57
(g78
g59
NtRp374
(dp375
g62
(dp376
g82
g83
ssg71
g370
sg64
(lp377
S'max-age'
p378
asbag57
(g78
g59
NtRp379
(dp380
g62
(dp381
g89
g90
ssg71
g370
sg64
(lp382
S':'
asbag57
(g78
g59
NtRp383
(dp384
g62
(dp385
sg71
g370
sg64
(lp386
g57
(g58
g59
NtRp387
(dp388
g62
(dp389
g70
I3
ssg71
g383
sg64
(lp390
S''
asbasbasbag57
(g73
g59
NtRp391
(dp392
g62
(dp393
sg71
g282
sg64
(lp394
g57
(g78
g59
NtRp395
(dp396
g62
(dp397
g82
g83
ssg71
g391
sg64
(lp398
S'path'
p399
asbag57
(g78
g59
NtRp400
(dp401
g62
(dp402
g89
g90
ssg71
g391
sg64
(lp403
S':'
asbag57
(g78
g59
NtRp404
(dp405
g62
(dp406
sg71
g391
sg64
(lp407
g57
(g58
g59
NtRp408
(dp409
g62
(dp410
g70
I3
ssg71
g404
sg64
(lp411
S''
asbasbasbag57
(g73
g59
NtRp412
(dp413
g62
(dp414
sg71
g282
sg64
(lp415
g57
(g78
g59
NtRp416
(dp417
g62
(dp418
g82
g83
ssg71
g412
sg64
(lp419
S'secure'
p420
asbag57
(g78
g59
NtRp421
(dp422
g62
(dp423
g89
g90
ssg71
g412
sg64
(lp424
S':'
asbag57
(g78
g59
NtRp425
(dp426
g62
(dp427
sg71
g412
sg64
(lp428
g57
(g58
g59
NtRp429
(dp430
g62
(dp431
g70
I3
ssg71
g425
sg64
(lp432
S''
asbasbasbag57
(g73
g59
NtRp433
(dp434
g62
(dp435
sg71
g282
sg64
(lp436
g57
(g78
g59
NtRp437
(dp438
g62
(dp439
g82
g83
ssg71
g433
sg64
(lp440
S'version'
p441
asbag57
(g78
g59
NtRp442
(dp443
g62
(dp444
g89
g90
ssg71
g433
sg64
(lp445
S':'
asbag57
(g78
g59
NtRp446
(dp447
g62
(dp448
sg71
g433
sg64
(lp449
g57
(g58
g59
NtRp450
(dp451
g62
(dp452
g70
I3
ssg71
g446
sg64
(lp453
S''
asbasbasbasbasbasbasbag57
(g73
g59
NtRp454
(dp455
g62
(dp456
sg71
g256
sg64
(lp457
g57
(g78
g59
NtRp458
(dp459
g62
(dp460
g82
g83
ssg71
g454
sg64
(lp461
S'session_id_hw4'
p462
asbag57
(g78
g59
NtRp463
(dp464
g62
(dp465
g89
g90
ssg71
g454
sg64
(lp466
S':'
asbag57
(g78
g59
NtRp467
(dp468
g62
(dp469
sg71
g454
sg64
(lp470
g57
(g58
g59
NtRp471
(dp472
g62
(dp473
g70
I4
ssg71
g467
sg64
(lp474
S'127.0.0.1-181e70b6-28ab-405f-bb11-c9eeb9b68ae3'
p475
ag57
(g66
g59
NtRp476
(dp477
g62
(dp478
g70
I3
ssg71
Nsg64
(lp479
g57
(g73
g59
NtRp480
(dp481
g62
(dp482
sg71
g476
sg64
(lp483
g57
(g78
g59
NtRp484
(dp485
g62
(dp486
g82
g83
ssg71
g480
sg64
(lp487
g294
asbag57
(g78
g59
NtRp488
(dp489
g62
(dp490
g89
g90
ssg71
g480
sg64
(lp491
S':'
asbag57
(g78
g59
NtRp492
(dp493
g62
(dp494
sg71
g480
sg64
(lp495
g57
(g58
g59
NtRp496
(dp497
g62
(dp498
g70
I3
ssg71
g492
sg64
(lp499
S''
asbasbasbag57
(g73
g59
NtRp500
(dp501
g62
(dp502
sg71
g476
sg64
(lp503
g57
(g78
g59
NtRp504
(dp505
g62
(dp506
g82
g83
ssg71
g500
sg64
(lp507
g315
asbag57
(g78
g59
NtRp508
(dp509
g62
(dp510
g89
g90
ssg71
g500
sg64
(lp511
S':'
asbag57
(g78
g59
NtRp512
(dp513
g62
(dp514
sg71
g500
sg64
(lp515
g57
(g58
g59
NtRp516
(dp517
g62
(dp518
g70
I3
ssg71
g512
sg64
(lp519
S''
asbasbasbag57
(g73
g59
NtRp520
(dp521
g62
(dp522
sg71
g476
sg64
(lp523
g57
(g78
g59
NtRp524
(dp525
g62
(dp526
g82
g83
ssg71
g520
sg64
(lp527
g336
asbag57
(g78
g59
NtRp528
(dp529
g62
(dp530
g89
g90
ssg71
g520
sg64
(lp531
S':'
asbag57
(g78
g59
NtRp532
(dp533
g62
(dp534
sg71
g520
sg64
(lp535
g57
(g58
g59
NtRp536
(dp537
g62
(dp538
g70
I3
ssg71
g532
sg64
(lp539
S''
asbasbasbag57
(g73
g59
NtRp540
(dp541
g62
(dp542
sg71
g476
sg64
(lp543
g57
(g78
g59
NtRp544
(dp545
g62
(dp546
g82
g83
ssg71
g540
sg64
(lp547
g357
asbag57
(g78
g59
NtRp548
(dp549
g62
(dp550
g89
g90
ssg71
g540
sg64
(lp551
S':'
asbag57
(g78
g59
NtRp552
(dp553
g62
(dp554
sg71
g540
sg64
(lp555
g57
(g58
g59
NtRp556
(dp557
g62
(dp558
g70
I3
ssg71
g552
sg64
(lp559
S''
asbasbasbag57
(g73
g59
NtRp560
(dp561
g62
(dp562
sg71
g476
sg64
(lp563
g57
(g78
g59
NtRp564
(dp565
g62
(dp566
g82
g83
ssg71
g560
sg64
(lp567
g378
asbag57
(g78
g59
NtRp568
(dp569
g62
(dp570
g89
g90
ssg71
g560
sg64
(lp571
S':'
asbag57
(g78
g59
NtRp572
(dp573
g62
(dp574
sg71
g560
sg64
(lp575
g57
(g58
g59
NtRp576
(dp577
g62
(dp578
g70
I3
ssg71
g572
sg64
(lp579
S''
asbasbasbag57
(g73
g59
NtRp580
(dp581
g62
(dp582
sg71
g476
sg64
(lp583
g57
(g78
g59
NtRp584
(dp585
g62
(dp586
g82
g83
ssg71
g580
sg64
(lp587
g399
asbag57
(g78
g59
NtRp588
(dp589
g62
(dp590
g89
g90
ssg71
g580
sg64
(lp591
S':'
asbag57
(g78
g59
NtRp592
(dp593
g62
(dp594
sg71
g580
sg64
(lp595
g57
(g58
g59
NtRp596
(dp597
g62
(dp598
g70
I3
ssg71
g592
sg64
(lp599
S''
asbasbasbag57
(g73
g59
NtRp600
(dp601
g62
(dp602
sg71
g476
sg64
(lp603
g57
(g78
g59
NtRp604
(dp605
g62
(dp606
g82
g83
ssg71
g600
sg64
(lp607
g420
asbag57
(g78
g59
NtRp608
(dp609
g62
(dp610
g89
g90
ssg71
g600
sg64
(lp611
S':'
asbag57
(g78
g59
NtRp612
(dp613
g62
(dp614
sg71
g600
sg64
(lp615
g57
(g58
g59
NtRp616
(dp617
g62
(dp618
g70
I3
ssg71
g612
sg64
(lp619
S''
asbasbasbag57
(g73
g59
NtRp620
(dp621
g62
(dp622
sg71
g476
sg64
(lp623
g57
(g78
g59
NtRp624
(dp625
g62
(dp626
g82
g83
ssg71
g620
sg64
(lp627
g441
asbag57
(g78
g59
NtRp628
(dp629
g62
(dp630
g89
g90
ssg71
g620
sg64
(lp631
S':'
asbag57
(g78
g59
NtRp632
(dp633
g62
(dp634
sg71
g620
sg64
(lp635
g57
(g58
g59
NtRp636
(dp637
g62
(dp638
g70
I3
ssg71
g632
sg64
(lp639
S''
asbasbasbasbasbasbasbag57
(g73
g59
NtRp640
(dp641
g62
(dp642
sg71
g256
sg64
(lp643
g57
(g78
g59
NtRp644
(dp645
g62
(dp646
g82
g83
ssg71
g640
sg64
(lp647
S'session_id_welcome'
p648
asbag57
(g78
g59
NtRp649
(dp650
g62
(dp651
g89
g90
ssg71
g640
sg64
(lp652
S':'
asbag57
(g78
g59
NtRp653
(dp654
g62
(dp655
sg71
g640
sg64
(lp656
g57
(g58
g59
NtRp657
(dp658
g62
(dp659
g70
I4
ssg71
g653
sg64
(lp660
S'127.0.0.1-951e80a4-3e2b-43af-b536-85e3a12bdc3c'
p661
ag57
(g66
g59
NtRp662
(dp663
g62
(dp664
g70
I3
ssg71
Nsg64
(lp665
g57
(g73
g59
NtRp666
(dp667
g62
(dp668
sg71
g662
sg64
(lp669
g57
(g78
g59
NtRp670
(dp671
g62
(dp672
g82
g83
ssg71
g666
sg64
(lp673
g294
asbag57
(g78
g59
NtRp674
(dp675
g62
(dp676
g89
g90
ssg71
g666
sg64
(lp677
S':'
asbag57
(g78
g59
NtRp678
(dp679
g62
(dp680
sg71
g666
sg64
(lp681
g57
(g58
g59
NtRp682
(dp683
g62
(dp684
g70
I3
ssg71
g678
sg64
(lp685
S''
asbasbasbag57
(g73
g59
NtRp686
(dp687
g62
(dp688
sg71
g662
sg64
(lp689
g57
(g78
g59
NtRp690
(dp691
g62
(dp692
g82
g83
ssg71
g686
sg64
(lp693
g315
asbag57
(g78
g59
NtRp694
(dp695
g62
(dp696
g89
g90
ssg71
g686
sg64
(lp697
S':'
asbag57
(g78
g59
NtRp698
(dp699
g62
(dp700
sg71
g686
sg64
(lp701
g57
(g58
g59
NtRp702
(dp703
g62
(dp704
g70
I3
ssg71
g698
sg64
(lp705
S''
asbasbasbag57
(g73
g59
NtRp706
(dp707
g62
(dp708
sg71
g662
sg64
(lp709
g57
(g78
g59
NtRp710
(dp711
g62
(dp712
g82
g83
ssg71
g706
sg64
(lp713
g336
asbag57
(g78
g59
NtRp714
(dp715
g62
(dp716
g89
g90
ssg71
g706
sg64
(lp717
S':'
asbag57
(g78
g59
NtRp718
(dp719
g62
(dp720
sg71
g706
sg64
(lp721
g57
(g58
g59
NtRp722
(dp723
g62
(dp724
g70
I3
ssg71
g718
sg64
(lp725
S''
asbasbasbag57
(g73
g59
NtRp726
(dp727
g62
(dp728
sg71
g662
sg64
(lp729
g57
(g78
g59
NtRp730
(dp731
g62
(dp732
g82
g83
ssg71
g726
sg64
(lp733
g357
asbag57
(g78
g59
NtRp734
(dp735
g62
(dp736
g89
g90
ssg71
g726
sg64
(lp737
S':'
asbag57
(g78
g59
NtRp738
(dp739
g62
(dp740
sg71
g726
sg64
(lp741
g57
(g58
g59
NtRp742
(dp743
g62
(dp744
g70
I3
ssg71
g738
sg64
(lp745
S''
asbasbasbag57
(g73
g59
NtRp746
(dp747
g62
(dp748
sg71
g662
sg64
(lp749
g57
(g78
g59
NtRp750
(dp751
g62
(dp752
g82
g83
ssg71
g746
sg64
(lp753
g378
asbag57
(g78
g59
NtRp754
(dp755
g62
(dp756
g89
g90
ssg71
g746
sg64
(lp757
S':'
asbag57
(g78
g59
NtRp758
(dp759
g62
(dp760
sg71
g746
sg64
(lp761
g57
(g58
g59
NtRp762
(dp763
g62
(dp764
g70
I3
ssg71
g758
sg64
(lp765
S''
asbasbasbag57
(g73
g59
NtRp766
(dp767
g62
(dp768
sg71
g662
sg64
(lp769
g57
(g78
g59
NtRp770
(dp771
g62
(dp772
g82
g83
ssg71
g766
sg64
(lp773
g399
asbag57
(g78
g59
NtRp774
(dp775
g62
(dp776
g89
g90
ssg71
g766
sg64
(lp777
S':'
asbag57
(g78
g59
NtRp778
(dp779
g62
(dp780
sg71
g766
sg64
(lp781
g57
(g58
g59
NtRp782
(dp783
g62
(dp784
g70
I3
ssg71
g778
sg64
(lp785
S''
asbasbasbag57
(g73
g59
NtRp786
(dp787
g62
(dp788
sg71
g662
sg64
(lp789
g57
(g78
g59
NtRp790
(dp791
g62
(dp792
g82
g83
ssg71
g786
sg64
(lp793
g420
asbag57
(g78
g59
NtRp794
(dp795
g62
(dp796
g89
g90
ssg71
g786
sg64
(lp797
S':'
asbag57
(g78
g59
NtRp798
(dp799
g62
(dp800
sg71
g786
sg64
(lp801
g57
(g58
g59
NtRp802
(dp803
g62
(dp804
g70
I3
ssg71
g798
sg64
(lp805
S''
asbasbasbag57
(g73
g59
NtRp806
(dp807
g62
(dp808
sg71
g662
sg64
(lp809
g57
(g78
g59
NtRp810
(dp811
g62
(dp812
g82
g83
ssg71
g806
sg64
(lp813
g441
asbag57
(g78
g59
NtRp814
(dp815
g62
(dp816
g89
g90
ssg71
g806
sg64
(lp817
S':'
asbag57
(g78
g59
NtRp818
(dp819
g62
(dp820
sg71
g806
sg64
(lp821
g57
(g58
g59
NtRp822
(dp823
g62
(dp824
g70
I3
ssg71
g818
sg64
(lp825
S''
asbasbasbasbasbasbasbasbasbasbasbag57
(g73
g59
NtRp826
(dp827
g62
(dp828
sg71
g67
sg64
(lp829
g57
(g78
g59
NtRp830
(dp831
g62
(dp832
g82
g83
ssg71
g826
sg64
(lp833
S'env'
p834
asbag57
(g78
g59
NtRp835
(dp836
g62
(dp837
g89
g90
ssg71
g826
sg64
(lp838
S':'
asbag57
(g78
g59
NtRp839
(dp840
g62
(dp841
sg71
g826
sg64
(lp842
g57
(g58
g59
NtRp843
(dp844
g62
(dp845
g70
I5
ssg71
g839
sg64
(lp846
g57
(g66
g59
NtRp847
(dp848
g62
(dp849
g70
I4
ssg71
Nsg64
(lp850
g57
(g73
g59
NtRp851
(dp852
g62
(dp853
sg71
g847
sg64
(lp854
g57
(g78
g59
NtRp855
(dp856
g62
(dp857
g82
g83
ssg71
g851
sg64
(lp858
S'app_folders'
p859
asbag57
(g78
g59
NtRp860
(dp861
g62
(dp862
g89
g90
ssg71
g851
sg64
(lp863
S':'
asbag57
(g78
g59
NtRp864
(dp865
g62
(dp866
sg71
g851
sg64
(lp867
g57
(g58
g59
NtRp868
(dp869
g62
(dp870
g70
I4
ssg71
g864
sg64
(lp871
S"set(['D:\\\\My Documents\\\\Documents\\\\Aptana Studio 3 Workspace\\\\hw2\\\\applications\\\\welcome\\\\', 'D:\\\\My Documents\\\\Documents\\\\Aptana Studio 3 Workspace\\\\hw2\\\\applications\\\\admin\\\\', 'D:\\\\My Documents\\\\Documents\\\\Aptana Studio 3 Workspace\\\\hw2\\\\applications\\\\hw4\\\\'])"
p872
asbasbasbag57
(g73
g59
NtRp873
(dp874
g62
(dp875
sg71
g847
sg64
(lp876
g57
(g78
g59
NtRp877
(dp878
g62
(dp879
g82
g83
ssg71
g873
sg64
(lp880
S'applications_parent'
p881
asbag57
(g78
g59
NtRp882
(dp883
g62
(dp884
g89
g90
ssg71
g873
sg64
(lp885
S':'
asbag57
(g78
g59
NtRp886
(dp887
g62
(dp888
sg71
g873
sg64
(lp889
g57
(g58
g59
NtRp890
(dp891
g62
(dp892
g70
I4
ssg71
g886
sg64
(lp893
S'D:\\My Documents\\Documents\\Aptana Studio 3 Workspace\\hw2'
p894
asbasbasbag57
(g73
g59
NtRp895
(dp896
g62
(dp897
sg71
g847
sg64
(lp898
g57
(g78
g59
NtRp899
(dp900
g62
(dp901
g82
g83
ssg71
g895
sg64
(lp902
S'cmd_args'
p903
asbag57
(g78
g59
NtRp904
(dp905
g62
(dp906
g89
g90
ssg71
g895
sg64
(lp907
S':'
asbag57
(g78
g59
NtRp908
(dp909
g62
(dp910
sg71
g895
sg64
(lp911
g57
(g58
g59
NtRp912
(dp913
g62
(dp914
g70
I4
ssg71
g908
sg64
(lp915
g57
(g66
g59
NtRp916
(dp917
g62
(dp918
g70
I3
ssg71
Nsg64
(lp919
sbasbasbasbag57
(g73
g59
NtRp920
(dp921
g62
(dp922
sg71
g847
sg64
(lp923
g57
(g78
g59
NtRp924
(dp925
g62
(dp926
g82
g83
ssg71
g920
sg64
(lp927
S'cmd_options'
p928
asbag57
(g78
g59
NtRp929
(dp930
g62
(dp931
g89
g90
ssg71
g920
sg64
(lp932
S':'
asbag57
(g78
g59
NtRp933
(dp934
g62
(dp935
sg71
g920
sg64
(lp936
g57
(g58
g59
NtRp937
(dp938
g62
(dp939
g70
I4
ssg71
g933
sg64
(lp940
S"<Values at 0x1523c88: {'verbose': False, 'ip': '127.0.0.1', 'with_scheduler': False, 'ips': ['192.168.201.200'], 'shutdown_timeout': 5, 'taskbar': False, 'port': 8000, 'maxthreads': None, 'softcron': False, 'server_name': 'cateacher', 'bpython': False, 'nogui': False, 'pid_filename': 'httpserver.pid', 'extcron': False, 'runcron': False, 'run_system_tests': False, 'test': None, 'folder': 'D:\\\\My Documents\\\\Documents\\\\Aptana Studio 3 Workspace\\\\hw2', 'config': '', 'import_models': False, 'winservice': '', 'shell': None, 'run': '', 'log_filename': 'httpserver.log', 'debuglevel': 30, 'args': [''], 'socket_timeout': 5, 'ssl_ca_certificate': None, 'scheduler': None, 'profiler_filename': None, 'ssl_private_key': '', 'scheduler_groups': None, 'password': '<ask>', 'request_queue_size': 5, 'ssl_certificate': '', 'cronjob': False, 'numthreads': None, 'quiet': False, 'interfaces': None, 'minthreads': None, 'timeout': 10, 'plain': False, 'nobanner': False}>"
p941
asbasbasbag57
(g73
g59
NtRp942
(dp943
g62
(dp944
sg71
g847
sg64
(lp945
g57
(g78
g59
NtRp946
(dp947
g62
(dp948
g82
g83
ssg71
g942
sg64
(lp949
S'db_sessions'
p950
asbag57
(g78
g59
NtRp951
(dp952
g62
(dp953
g89
g90
ssg71
g942
sg64
(lp954
S':'
asbag57
(g78
g59
NtRp955
(dp956
g62
(dp957
sg71
g942
sg64
(lp958
g57
(g58
g59
NtRp959
(dp960
g62
(dp961
g70
I4
ssg71
g955
sg64
(lp962
S'set([])'
p963
asbasbasbag57
(g73
g59
NtRp964
(dp965
g62
(dp966
sg71
g847
sg64
(lp967
g57
(g78
g59
NtRp968
(dp969
g62
(dp970
g82
g83
ssg71
g964
sg64
(lp971
S'debugging'
p972
asbag57
(g78
g59
NtRp973
(dp974
g62
(dp975
g89
g90
ssg71
g964
sg64
(lp976
S':'
asbag57
(g78
g59
NtRp977
(dp978
g62
(dp979
sg71
g964
sg64
(lp980
g57
(g58
g59
NtRp981
(dp982
g62
(dp983
g70
I4
ssg71
g977
sg64
(lp984
S'False'
p985
asbasbasbag57
(g73
g59
NtRp986
(dp987
g62
(dp988
sg71
g847
sg64
(lp989
g57
(g78
g59
NtRp990
(dp991
g62
(dp992
g82
g83
ssg71
g986
sg64
(lp993
S'gluon_parent'
p994
asbag57
(g78
g59
NtRp995
(dp996
g62
(dp997
g89
g90
ssg71
g986
sg64
(lp998
S':'
asbag57
(g78
g59
NtRp999
(dp1000
g62
(dp1001
sg71
g986
sg64
(lp1002
g57
(g58
g59
NtRp1003
(dp1004
g62
(dp1005
g70
I4
ssg71
g999
sg64
(lp1006
S'D:\\My Documents\\Documents\\Aptana Studio 3 Workspace\\hw2'
p1007
asbasbasbag57
(g73
g59
NtRp1008
(dp1009
g62
(dp1010
sg71
g847
sg64
(lp1011
g57
(g78
g59
NtRp1012
(dp1013
g62
(dp1014
g82
g83
ssg71
g1008
sg64
(lp1015
S'http_accept'
p1016
asbag57
(g78
g59
NtRp1017
(dp1018
g62
(dp1019
g89
g90
ssg71
g1008
sg64
(lp1020
S':'
asbag57
(g78
g59
NtRp1021
(dp1022
g62
(dp1023
sg71
g1008
sg64
(lp1024
g57
(g58
g59
NtRp1025
(dp1026
g62
(dp1027
g70
I4
ssg71
g1021
sg64
(lp1028
S'*/*'
p1029
asbasbasbag57
(g73
g59
NtRp1030
(dp1031
g62
(dp1032
sg71
g847
sg64
(lp1033
g57
(g78
g59
NtRp1034
(dp1035
g62
(dp1036
g82
g83
ssg71
g1030
sg64
(lp1037
S'http_accept_encoding'
p1038
asbag57
(g78
g59
NtRp1039
(dp1040
g62
(dp1041
g89
g90
ssg71
g1030
sg64
(lp1042
S':'
asbag57
(g78
g59
NtRp1043
(dp1044
g62
(dp1045
sg71
g1030
sg64
(lp1046
g57
(g58
g59
NtRp1047
(dp1048
g62
(dp1049
g70
I4
ssg71
g1043
sg64
(lp1050
S'gzip, deflate'
p1051
asbasbasbag57
(g73
g59
NtRp1052
(dp1053
g62
(dp1054
sg71
g847
sg64
(lp1055
g57
(g78
g59
NtRp1056
(dp1057
g62
(dp1058
g82
g83
ssg71
g1052
sg64
(lp1059
S'http_accept_language'
p1060
asbag57
(g78
g59
NtRp1061
(dp1062
g62
(dp1063
g89
g90
ssg71
g1052
sg64
(lp1064
S':'
asbag57
(g78
g59
NtRp1065
(dp1066
g62
(dp1067
sg71
g1052
sg64
(lp1068
g57
(g58
g59
NtRp1069
(dp1070
g62
(dp1071
g70
I4
ssg71
g1065
sg64
(lp1072
S'zh-cn'
p1073
asbasbasbag57
(g73
g59
NtRp1074
(dp1075
g62
(dp1076
sg71
g847
sg64
(lp1077
g57
(g78
g59
NtRp1078
(dp1079
g62
(dp1080
g82
g83
ssg71
g1074
sg64
(lp1081
S'http_connection'
p1082
asbag57
(g78
g59
NtRp1083
(dp1084
g62
(dp1085
g89
g90
ssg71
g1074
sg64
(lp1086
S':'
asbag57
(g78
g59
NtRp1087
(dp1088
g62
(dp1089
sg71
g1074
sg64
(lp1090
g57
(g58
g59
NtRp1091
(dp1092
g62
(dp1093
g70
I4
ssg71
g1087
sg64
(lp1094
S'Keep-Alive'
p1095
asbasbasbag57
(g73
g59
NtRp1096
(dp1097
g62
(dp1098
sg71
g847
sg64
(lp1099
g57
(g78
g59
NtRp1100
(dp1101
g62
(dp1102
g82
g83
ssg71
g1096
sg64
(lp1103
S'http_cookie'
p1104
asbag57
(g78
g59
NtRp1105
(dp1106
g62
(dp1107
g89
g90
ssg71
g1096
sg64
(lp1108
S':'
asbag57
(g78
g59
NtRp1109
(dp1110
g62
(dp1111
sg71
g1096
sg64
(lp1112
g57
(g58
g59
NtRp1113
(dp1114
g62
(dp1115
g70
I4
ssg71
g1109
sg64
(lp1116
S'session_id_welcome=127.0.0.1-951e80a4-3e2b-43af-b536-85e3a12bdc3c; session_id_admin=127.0.0.1-085758b8-8bcc-4b19-a5fa-3f370d105c70; session_id_hw4=127.0.0.1-181e70b6-28ab-405f-bb11-c9eeb9b68ae3'
p1117
asbasbasbag57
(g73
g59
NtRp1118
(dp1119
g62
(dp1120
sg71
g847
sg64
(lp1121
g57
(g78
g59
NtRp1122
(dp1123
g62
(dp1124
g82
g83
ssg71
g1118
sg64
(lp1125
S'http_host'
p1126
asbag57
(g78
g59
NtRp1127
(dp1128
g62
(dp1129
g89
g90
ssg71
g1118
sg64
(lp1130
S':'
asbag57
(g78
g59
NtRp1131
(dp1132
g62
(dp1133
sg71
g1118
sg64
(lp1134
g57
(g58
g59
NtRp1135
(dp1136
g62
(dp1137
g70
I4
ssg71
g1131
sg64
(lp1138
S'127.0.0.1:8000'
p1139
asbasbasbag57
(g73
g59
NtRp1140
(dp1141
g62
(dp1142
sg71
g847
sg64
(lp1143
g57
(g78
g59
NtRp1144
(dp1145
g62
(dp1146
g82
g83
ssg71
g1140
sg64
(lp1147
S'http_referer'
p1148
asbag57
(g78
g59
NtRp1149
(dp1150
g62
(dp1151
g89
g90
ssg71
g1140
sg64
(lp1152
S':'
asbag57
(g78
g59
NtRp1153
(dp1154
g62
(dp1155
sg71
g1140
sg64
(lp1156
g57
(g58
g59
NtRp1157
(dp1158
g62
(dp1159
g70
I4
ssg71
g1153
sg64
(lp1160
S'http://127.0.0.1:8000/hw4/plugin_elrte_widget/index'
p1161
asbasbasbag57
(g73
g59
NtRp1162
(dp1163
g62
(dp1164
sg71
g847
sg64
(lp1165
g57
(g78
g59
NtRp1166
(dp1167
g62
(dp1168
g82
g83
ssg71
g1162
sg64
(lp1169
S'http_user_agent'
p1170
asbag57
(g78
g59
NtRp1171
(dp1172
g62
(dp1173
g89
g90
ssg71
g1162
sg64
(lp1174
S':'
asbag57
(g78
g59
NtRp1175
(dp1176
g62
(dp1177
sg71
g1162
sg64
(lp1178
g57
(g58
g59
NtRp1179
(dp1180
g62
(dp1181
g70
I4
ssg71
g1175
sg64
(lp1182
S'Mozilla/4.0 (compatible; MSIE 8.0; Windows NT 5.1; Trident/4.0; Maxthon; Foxy/1; .NET CLR 2.0.50727; InfoPath.1)'
p1183
asbasbasbag57
(g73
g59
NtRp1184
(dp1185
g62
(dp1186
sg71
g847
sg64
(lp1187
g57
(g78
g59
NtRp1188
(dp1189
g62
(dp1190
g82
g83
ssg71
g1184
sg64
(lp1191
S'http_web2py_component_element'
p1192
asbag57
(g78
g59
NtRp1193
(dp1194
g62
(dp1195
g89
g90
ssg71
g1184
sg64
(lp1196
S':'
asbag57
(g78
g59
NtRp1197
(dp1198
g62
(dp1199
sg71
g1184
sg64
(lp1200
g57
(g58
g59
NtRp1201
(dp1202
g62
(dp1203
g70
I4
ssg71
g1197
sg64
(lp1204
g190
asbasbasbag57
(g73
g59
NtRp1205
(dp1206
g62
(dp1207
sg71
g847
sg64
(lp1208
g57
(g78
g59
NtRp1209
(dp1210
g62
(dp1211
g82
g83
ssg71
g1205
sg64
(lp1212
S'http_web2py_component_location'
p1213
asbag57
(g78
g59
NtRp1214
(dp1215
g62
(dp1216
g89
g90
ssg71
g1205
sg64
(lp1217
S':'
asbag57
(g78
g59
NtRp1218
(dp1219
g62
(dp1220
sg71
g1205
sg64
(lp1221
g57
(g58
g59
NtRp1222
(dp1223
g62
(dp1224
g70
I4
ssg71
g1218
sg64
(lp1225
S'http://127.0.0.1:8000/hw4/plugin_elrte_widget/index'
p1226
asbasbasbag57
(g73
g59
NtRp1227
(dp1228
g62
(dp1229
sg71
g847
sg64
(lp1230
g57
(g78
g59
NtRp1231
(dp1232
g62
(dp1233
g82
g83
ssg71
g1227
sg64
(lp1234
S'http_x_requested_with'
p1235
asbag57
(g78
g59
NtRp1236
(dp1237
g62
(dp1238
g89
g90
ssg71
g1227
sg64
(lp1239
S':'
asbag57
(g78
g59
NtRp1240
(dp1241
g62
(dp1242
sg71
g1227
sg64
(lp1243
g57
(g58
g59
NtRp1244
(dp1245
g62
(dp1246
g70
I4
ssg71
g1240
sg64
(lp1247
S'XMLHttpRequest'
p1248
asbasbasbag57
(g73
g59
NtRp1249
(dp1250
g62
(dp1251
sg71
g847
sg64
(lp1252
g57
(g78
g59
NtRp1253
(dp1254
g62
(dp1255
g82
g83
ssg71
g1249
sg64
(lp1256
S'is_jython'
p1257
asbag57
(g78
g59
NtRp1258
(dp1259
g62
(dp1260
g89
g90
ssg71
g1249
sg64
(lp1261
S':'
asbag57
(g78
g59
NtRp1262
(dp1263
g62
(dp1264
sg71
g1249
sg64
(lp1265
g57
(g58
g59
NtRp1266
(dp1267
g62
(dp1268
g70
I4
ssg71
g1262
sg64
(lp1269
g985
asbasbasbag57
(g73
g59
NtRp1270
(dp1271
g62
(dp1272
sg71
g847
sg64
(lp1273
g57
(g78
g59
NtRp1274
(dp1275
g62
(dp1276
g82
g83
ssg71
g1270
sg64
(lp1277
S'is_pypy'
p1278
asbag57
(g78
g59
NtRp1279
(dp1280
g62
(dp1281
g89
g90
ssg71
g1270
sg64
(lp1282
S':'
asbag57
(g78
g59
NtRp1283
(dp1284
g62
(dp1285
sg71
g1270
sg64
(lp1286
g57
(g58
g59
NtRp1287
(dp1288
g62
(dp1289
g70
I4
ssg71
g1283
sg64
(lp1290
g985
asbasbasbag57
(g73
g59
NtRp1291
(dp1292
g62
(dp1293
sg71
g847
sg64
(lp1294
g57
(g78
g59
NtRp1295
(dp1296
g62
(dp1297
g82
g83
ssg71
g1291
sg64
(lp1298
S'local_hosts'
p1299
asbag57
(g78
g59
NtRp1300
(dp1301
g62
(dp1302
g89
g90
ssg71
g1291
sg64
(lp1303
S':'
asbag57
(g78
g59
NtRp1304
(dp1305
g62
(dp1306
sg71
g1291
sg64
(lp1307
g57
(g58
g59
NtRp1308
(dp1309
g62
(dp1310
g70
I4
ssg71
g1304
sg64
(lp1311
g57
(g66
g59
NtRp1312
(dp1313
g62
(dp1314
g70
I3
ssg71
Nsg64
(lp1315
g57
(g73
g59
NtRp1316
(dp1317
g62
(dp1318
sg71
g1312
sg64
(lp1319
g57
(g78
g59
NtRp1320
(dp1321
g62
(dp1322
sg71
g1316
sg64
(lp1323
g57
(g58
g59
NtRp1324
(dp1325
g62
(dp1326
g70
I3
ssg71
g1320
sg64
(lp1327
S'192.168.201.200'
p1328
asbasbasbag57
(g73
g59
NtRp1329
(dp1330
g62
(dp1331
sg71
g1312
sg64
(lp1332
g57
(g78
g59
NtRp1333
(dp1334
g62
(dp1335
sg71
g1329
sg64
(lp1336
g57
(g58
g59
NtRp1337
(dp1338
g62
(dp1339
g70
I3
ssg71
g1333
sg64
(lp1340
S'::1'
p1341
asbasbasbag57
(g73
g59
NtRp1342
(dp1343
g62
(dp1344
sg71
g1312
sg64
(lp1345
g57
(g78
g59
NtRp1346
(dp1347
g62
(dp1348
sg71
g1342
sg64
(lp1349
g57
(g58
g59
NtRp1350
(dp1351
g62
(dp1352
g70
I3
ssg71
g1346
sg64
(lp1353
S'cateacher'
p1354
asbasbasbag57
(g73
g59
NtRp1355
(dp1356
g62
(dp1357
sg71
g1312
sg64
(lp1358
g57
(g78
g59
NtRp1359
(dp1360
g62
(dp1361
sg71
g1355
sg64
(lp1362
g57
(g58
g59
NtRp1363
(dp1364
g62
(dp1365
g70
I3
ssg71
g1359
sg64
(lp1366
S'::ffff:127.0.0.1'
p1367
asbasbasbag57
(g73
g59
NtRp1368
(dp1369
g62
(dp1370
sg71
g1312
sg64
(lp1371
g57
(g78
g59
NtRp1372
(dp1373
g62
(dp1374
sg71
g1368
sg64
(lp1375
g57
(g58
g59
NtRp1376
(dp1377
g62
(dp1378
g70
I3
ssg71
g1372
sg64
(lp1379
S'127.0.0.1'
p1380
asbasbasbasbasbasbasbag57
(g73
g59
NtRp1381
(dp1382
g62
(dp1383
sg71
g847
sg64
(lp1384
g57
(g78
g59
NtRp1385
(dp1386
g62
(dp1387
g82
g83
ssg71
g1381
sg64
(lp1388
S'path_info'
p1389
asbag57
(g78
g59
NtRp1390
(dp1391
g62
(dp1392
g89
g90
ssg71
g1381
sg64
(lp1393
S':'
asbag57
(g78
g59
NtRp1394
(dp1395
g62
(dp1396
sg71
g1381
sg64
(lp1397
g57
(g58
g59
NtRp1398
(dp1399
g62
(dp1400
g70
I4
ssg71
g1394
sg64
(lp1401
S'/hw4/plugin_elrte_widget/file_upload_or_choose'
p1402
asbasbasbag57
(g73
g59
NtRp1403
(dp1404
g62
(dp1405
sg71
g847
sg64
(lp1406
g57
(g78
g59
NtRp1407
(dp1408
g62
(dp1409
g82
g83
ssg71
g1403
sg64
(lp1410
S'query_string'
p1411
asbag57
(g78
g59
NtRp1412
(dp1413
g62
(dp1414
g89
g90
ssg71
g1403
sg64
(lp1415
S':'
asbag57
(g78
g59
NtRp1416
(dp1417
g62
(dp1418
sg71
g1403
sg64
(lp1419
g57
(g58
g59
NtRp1420
(dp1421
g62
(dp1422
g70
I4
ssg71
g1416
sg64
(lp1423
S''
asbasbasbag57
(g73
g59
NtRp1424
(dp1425
g62
(dp1426
sg71
g847
sg64
(lp1427
g57
(g78
g59
NtRp1428
(dp1429
g62
(dp1430
g82
g83
ssg71
g1424
sg64
(lp1431
S'remote_addr'
p1432
asbag57
(g78
g59
NtRp1433
(dp1434
g62
(dp1435
g89
g90
ssg71
g1424
sg64
(lp1436
S':'
asbag57
(g78
g59
NtRp1437
(dp1438
g62
(dp1439
sg71
g1424
sg64
(lp1440
g57
(g58
g59
NtRp1441
(dp1442
g62
(dp1443
g70
I4
ssg71
g1437
sg64
(lp1444
g212
asbasbasbag57
(g73
g59
NtRp1445
(dp1446
g62
(dp1447
sg71
g847
sg64
(lp1448
g57
(g78
g59
NtRp1449
(dp1450
g62
(dp1451
g82
g83
ssg71
g1445
sg64
(lp1452
S'remote_port'
p1453
asbag57
(g78
g59
NtRp1454
(dp1455
g62
(dp1456
g89
g90
ssg71
g1445
sg64
(lp1457
S':'
asbag57
(g78
g59
NtRp1458
(dp1459
g62
(dp1460
sg71
g1445
sg64
(lp1461
g57
(g58
g59
NtRp1462
(dp1463
g62
(dp1464
g70
I4
ssg71
g1458
sg64
(lp1465
S'1412'
p1466
asbasbasbag57
(g73
g59
NtRp1467
(dp1468
g62
(dp1469
sg71
g847
sg64
(lp1470
g57
(g78
g59
NtRp1471
(dp1472
g62
(dp1473
g82
g83
ssg71
g1467
sg64
(lp1474
S'request_method'
p1475
asbag57
(g78
g59
NtRp1476
(dp1477
g62
(dp1478
g89
g90
ssg71
g1467
sg64
(lp1479
S':'
asbag57
(g78
g59
NtRp1480
(dp1481
g62
(dp1482
sg71
g1467
sg64
(lp1483
g57
(g58
g59
NtRp1484
(dp1485
g62
(dp1486
g70
I4
ssg71
g1480
sg64
(lp1487
S'GET'
p1488
asbasbasbag57
(g73
g59
NtRp1489
(dp1490
g62
(dp1491
sg71
g847
sg64
(lp1492
g57
(g78
g59
NtRp1493
(dp1494
g62
(dp1495
g82
g83
ssg71
g1489
sg64
(lp1496
S'request_uri'
p1497
asbag57
(g78
g59
NtRp1498
(dp1499
g62
(dp1500
g89
g90
ssg71
g1489
sg64
(lp1501
S':'
asbag57
(g78
g59
NtRp1502
(dp1503
g62
(dp1504
sg71
g1489
sg64
(lp1505
g57
(g58
g59
NtRp1506
(dp1507
g62
(dp1508
g70
I4
ssg71
g1502
sg64
(lp1509
g1402
asbasbasbag57
(g73
g59
NtRp1510
(dp1511
g62
(dp1512
sg71
g847
sg64
(lp1513
g57
(g78
g59
NtRp1514
(dp1515
g62
(dp1516
g82
g83
ssg71
g1510
sg64
(lp1517
S'script_name'
p1518
asbag57
(g78
g59
NtRp1519
(dp1520
g62
(dp1521
g89
g90
ssg71
g1510
sg64
(lp1522
S':'
asbag57
(g78
g59
NtRp1523
(dp1524
g62
(dp1525
sg71
g1510
sg64
(lp1526
g57
(g58
g59
NtRp1527
(dp1528
g62
(dp1529
g70
I4
ssg71
g1523
sg64
(lp1530
S''
asbasbasbag57
(g73
g59
NtRp1531
(dp1532
g62
(dp1533
sg71
g847
sg64
(lp1534
g57
(g78
g59
NtRp1535
(dp1536
g62
(dp1537
g82
g83
ssg71
g1531
sg64
(lp1538
S'server_name'
p1539
asbag57
(g78
g59
NtRp1540
(dp1541
g62
(dp1542
g89
g90
ssg71
g1531
sg64
(lp1543
S':'
asbag57
(g78
g59
NtRp1544
(dp1545
g62
(dp1546
sg71
g1531
sg64
(lp1547
g57
(g58
g59
NtRp1548
(dp1549
g62
(dp1550
g70
I4
ssg71
g1544
sg64
(lp1551
S'cateacher'
p1552
asbasbasbag57
(g73
g59
NtRp1553
(dp1554
g62
(dp1555
sg71
g847
sg64
(lp1556
g57
(g78
g59
NtRp1557
(dp1558
g62
(dp1559
g82
g83
ssg71
g1553
sg64
(lp1560
S'server_port'
p1561
asbag57
(g78
g59
NtRp1562
(dp1563
g62
(dp1564
g89
g90
ssg71
g1553
sg64
(lp1565
S':'
asbag57
(g78
g59
NtRp1566
(dp1567
g62
(dp1568
sg71
g1553
sg64
(lp1569
g57
(g58
g59
NtRp1570
(dp1571
g62
(dp1572
g70
I4
ssg71
g1566
sg64
(lp1573
S'8000'
p1574
asbasbasbag57
(g73
g59
NtRp1575
(dp1576
g62
(dp1577
sg71
g847
sg64
(lp1578
g57
(g78
g59
NtRp1579
(dp1580
g62
(dp1581
g82
g83
ssg71
g1575
sg64
(lp1582
S'server_protocol'
p1583
asbag57
(g78
g59
NtRp1584
(dp1585
g62
(dp1586
g89
g90
ssg71
g1575
sg64
(lp1587
S':'
asbag57
(g78
g59
NtRp1588
(dp1589
g62
(dp1590
sg71
g1575
sg64
(lp1591
g57
(g58
g59
NtRp1592
(dp1593
g62
(dp1594
g70
I4
ssg71
g1588
sg64
(lp1595
S'HTTP/1.1'
p1596
asbasbasbag57
(g73
g59
NtRp1597
(dp1598
g62
(dp1599
sg71
g847
sg64
(lp1600
g57
(g78
g59
NtRp1601
(dp1602
g62
(dp1603
g82
g83
ssg71
g1597
sg64
(lp1604
S'server_software'
p1605
asbag57
(g78
g59
NtRp1606
(dp1607
g62
(dp1608
g89
g90
ssg71
g1597
sg64
(lp1609
S':'
asbag57
(g78
g59
NtRp1610
(dp1611
g62
(dp1612
sg71
g1597
sg64
(lp1613
g57
(g58
g59
NtRp1614
(dp1615
g62
(dp1616
g70
I4
ssg71
g1610
sg64
(lp1617
S'Rocket 1.2.6'
p1618
asbasbasbag57
(g73
g59
NtRp1619
(dp1620
g62
(dp1621
sg71
g847
sg64
(lp1622
g57
(g78
g59
NtRp1623
(dp1624
g62
(dp1625
g82
g83
ssg71
g1619
sg64
(lp1626
S'web2py_path'
p1627
asbag57
(g78
g59
NtRp1628
(dp1629
g62
(dp1630
g89
g90
ssg71
g1619
sg64
(lp1631
S':'
asbag57
(g78
g59
NtRp1632
(dp1633
g62
(dp1634
sg71
g1619
sg64
(lp1635
g57
(g58
g59
NtRp1636
(dp1637
g62
(dp1638
g70
I4
ssg71
g1632
sg64
(lp1639
g894
asbasbasbag57
(g73
g59
NtRp1640
(dp1641
g62
(dp1642
sg71
g847
sg64
(lp1643
g57
(g78
g59
NtRp1644
(dp1645
g62
(dp1646
g82
g83
ssg71
g1640
sg64
(lp1647
S'web2py_version'
p1648
asbag57
(g78
g59
NtRp1649
(dp1650
g62
(dp1651
g89
g90
ssg71
g1640
sg64
(lp1652
S':'
asbag57
(g78
g59
NtRp1653
(dp1654
g62
(dp1655
sg71
g1640
sg64
(lp1656
g57
(g58
g59
NtRp1657
(dp1658
g62
(dp1659
g70
I4
ssg71
g1653
sg64
(lp1660
g57
(g66
g59
NtRp1661
(dp1662
g62
(dp1663
g70
I3
ssg71
Nsg64
(lp1664
g57
(g73
g59
NtRp1665
(dp1666
g62
(dp1667
sg71
g1661
sg64
(lp1668
g57
(g78
g59
NtRp1669
(dp1670
g62
(dp1671
sg71
g1665
sg64
(lp1672
g57
(g58
g59
NtRp1673
(dp1674
g62
(dp1675
g70
I3
ssg71
g1669
sg64
(lp1676
S'2'
asbasbasbag57
(g73
g59
NtRp1677
(dp1678
g62
(dp1679
sg71
g1661
sg64
(lp1680
g57
(g78
g59
NtRp1681
(dp1682
g62
(dp1683
sg71
g1677
sg64
(lp1684
g57
(g58
g59
NtRp1685
(dp1686
g62
(dp1687
g70
I3
ssg71
g1681
sg64
(lp1688
S'3'
asbasbasbag57
(g73
g59
NtRp1689
(dp1690
g62
(dp1691
sg71
g1661
sg64
(lp1692
g57
(g78
g59
NtRp1693
(dp1694
g62
(dp1695
sg71
g1689
sg64
(lp1696
g57
(g58
g59
NtRp1697
(dp1698
g62
(dp1699
g70
I3
ssg71
g1693
sg64
(lp1700
S'2'
asbasbasbag57
(g73
g59
NtRp1701
(dp1702
g62
(dp1703
sg71
g1661
sg64
(lp1704
g57
(g78
g59
NtRp1705
(dp1706
g62
(dp1707
sg71
g1701
sg64
(lp1708
g57
(g58
g59
NtRp1709
(dp1710
g62
(dp1711
g70
I3
ssg71
g1705
sg64
(lp1712
S'datetime.datetime(2012, 12, 17, 15, 3, 30)'
p1713
asbasbasbag57
(g73
g59
NtRp1714
(dp1715
g62
(dp1716
sg71
g1661
sg64
(lp1717
g57
(g78
g59
NtRp1718
(dp1719
g62
(dp1720
sg71
g1714
sg64
(lp1721
g57
(g58
g59
NtRp1722
(dp1723
g62
(dp1724
g70
I3
ssg71
g1718
sg64
(lp1725
S'stable'
p1726
asbasbasbasbasbasbasbag57
(g73
g59
NtRp1727
(dp1728
g62
(dp1729
sg71
g847
sg64
(lp1730
g57
(g78
g59
NtRp1731
(dp1732
g62
(dp1733
g82
g83
ssg71
g1727
sg64
(lp1734
S'wsgi_errors'
p1735
asbag57
(g78
g59
NtRp1736
(dp1737
g62
(dp1738
g89
g90
ssg71
g1727
sg64
(lp1739
S':'
asbag57
(g78
g59
NtRp1740
(dp1741
g62
(dp1742
sg71
g1727
sg64
(lp1743
g57
(g58
g59
NtRp1744
(dp1745
g62
(dp1746
g70
I4
ssg71
g1740
sg64
(lp1747
S"<open file '<stderr>', mode 'w' at 0x00AB50D0>"
p1748
asbasbasbag57
(g73
g59
NtRp1749
(dp1750
g62
(dp1751
sg71
g847
sg64
(lp1752
g57
(g78
g59
NtRp1753
(dp1754
g62
(dp1755
g82
g83
ssg71
g1749
sg64
(lp1756
S'wsgi_file_wrapper'
p1757
asbag57
(g78
g59
NtRp1758
(dp1759
g62
(dp1760
g89
g90
ssg71
g1749
sg64
(lp1761
S':'
asbag57
(g78
g59
NtRp1762
(dp1763
g62
(dp1764
sg71
g1749
sg64
(lp1765
g57
(g58
g59
NtRp1766
(dp1767
g62
(dp1768
g70
I4
ssg71
g1762
sg64
(lp1769
S'<class wsgiref.util.FileWrapper at 0x014D9618>'
p1770
asbasbasbag57
(g73
g59
NtRp1771
(dp1772
g62
(dp1773
sg71
g847
sg64
(lp1774
g57
(g78
g59
NtRp1775
(dp1776
g62
(dp1777
g82
g83
ssg71
g1771
sg64
(lp1778
S'wsgi_input'
p1779
asbag57
(g78
g59
NtRp1780
(dp1781
g62
(dp1782
g89
g90
ssg71
g1771
sg64
(lp1783
S':'
asbag57
(g78
g59
NtRp1784
(dp1785
g62
(dp1786
sg71
g1771
sg64
(lp1787
g57
(g58
g59
NtRp1788
(dp1789
g62
(dp1790
g70
I4
ssg71
g1784
sg64
(lp1791
S'<socket._fileobject object at 0x050CE2F0>'
p1792
asbasbasbag57
(g73
g59
NtRp1793
(dp1794
g62
(dp1795
sg71
g847
sg64
(lp1796
g57
(g78
g59
NtRp1797
(dp1798
g62
(dp1799
g82
g83
ssg71
g1793
sg64
(lp1800
S'wsgi_multiprocess'
p1801
asbag57
(g78
g59
NtRp1802
(dp1803
g62
(dp1804
g89
g90
ssg71
g1793
sg64
(lp1805
S':'
asbag57
(g78
g59
NtRp1806
(dp1807
g62
(dp1808
sg71
g1793
sg64
(lp1809
g57
(g58
g59
NtRp1810
(dp1811
g62
(dp1812
g70
I4
ssg71
g1806
sg64
(lp1813
g985
asbasbasbag57
(g73
g59
NtRp1814
(dp1815
g62
(dp1816
sg71
g847
sg64
(lp1817
g57
(g78
g59
NtRp1818
(dp1819
g62
(dp1820
g82
g83
ssg71
g1814
sg64
(lp1821
S'wsgi_multithread'
p1822
asbag57
(g78
g59
NtRp1823
(dp1824
g62
(dp1825
g89
g90
ssg71
g1814
sg64
(lp1826
S':'
asbag57
(g78
g59
NtRp1827
(dp1828
g62
(dp1829
sg71
g1814
sg64
(lp1830
g57
(g58
g59
NtRp1831
(dp1832
g62
(dp1833
g70
I4
ssg71
g1827
sg64
(lp1834
g100
asbasbasbag57
(g73
g59
NtRp1835
(dp1836
g62
(dp1837
sg71
g847
sg64
(lp1838
g57
(g78
g59
NtRp1839
(dp1840
g62
(dp1841
g82
g83
ssg71
g1835
sg64
(lp1842
S'wsgi_run_once'
p1843
asbag57
(g78
g59
NtRp1844
(dp1845
g62
(dp1846
g89
g90
ssg71
g1835
sg64
(lp1847
S':'
asbag57
(g78
g59
NtRp1848
(dp1849
g62
(dp1850
sg71
g1835
sg64
(lp1851
g57
(g58
g59
NtRp1852
(dp1853
g62
(dp1854
g70
I4
ssg71
g1848
sg64
(lp1855
g985
asbasbasbag57
(g73
g59
NtRp1856
(dp1857
g62
(dp1858
sg71
g847
sg64
(lp1859
g57
(g78
g59
NtRp1860
(dp1861
g62
(dp1862
g82
g83
ssg71
g1856
sg64
(lp1863
S'wsgi_url_scheme'
p1864
asbag57
(g78
g59
NtRp1865
(dp1866
g62
(dp1867
g89
g90
ssg71
g1856
sg64
(lp1868
S':'
asbag57
(g78
g59
NtRp1869
(dp1870
g62
(dp1871
sg71
g1856
sg64
(lp1872
g57
(g58
g59
NtRp1873
(dp1874
g62
(dp1875
g70
I4
ssg71
g1869
sg64
(lp1876
S'http'
p1877
asbasbasbag57
(g73
g59
NtRp1878
(dp1879
g62
(dp1880
sg71
g847
sg64
(lp1881
g57
(g78
g59
NtRp1882
(dp1883
g62
(dp1884
g82
g83
ssg71
g1878
sg64
(lp1885
S'wsgi_version'
p1886
asbag57
(g78
g59
NtRp1887
(dp1888
g62
(dp1889
g89
g90
ssg71
g1878
sg64
(lp1890
S':'
asbag57
(g78
g59
NtRp1891
(dp1892
g62
(dp1893
sg71
g1878
sg64
(lp1894
g57
(g58
g59
NtRp1895
(dp1896
g62
(dp1897
g70
I4
ssg71
g1891
sg64
(lp1898
g57
(g66
g59
NtRp1899
(dp1900
g62
(dp1901
g70
I3
ssg71
Nsg64
(lp1902
g57
(g73
g59
NtRp1903
(dp1904
g62
(dp1905
sg71
g1899
sg64
(lp1906
g57
(g78
g59
NtRp1907
(dp1908
g62
(dp1909
sg71
g1903
sg64
(lp1910
g57
(g58
g59
NtRp1911
(dp1912
g62
(dp1913
g70
I3
ssg71
g1907
sg64
(lp1914
S'1'
asbasbasbag57
(g73
g59
NtRp1915
(dp1916
g62
(dp1917
sg71
g1899
sg64
(lp1918
g57
(g78
g59
NtRp1919
(dp1920
g62
(dp1921
sg71
g1915
sg64
(lp1922
g57
(g58
g59
NtRp1923
(dp1924
g62
(dp1925
g70
I3
ssg71
g1919
sg64
(lp1926
S'0'
asbasbasbasbasbasbasbasbasbasbasbag57
(g73
g59
NtRp1927
(dp1928
g62
(dp1929
sg71
g67
sg64
(lp1930
g57
(g78
g59
NtRp1931
(dp1932
g62
(dp1933
g82
g83
ssg71
g1927
sg64
(lp1934
S'extension'
p1935
asbag57
(g78
g59
NtRp1936
(dp1937
g62
(dp1938
g89
g90
ssg71
g1927
sg64
(lp1939
S':'
asbag57
(g78
g59
NtRp1940
(dp1941
g62
(dp1942
sg71
g1927
sg64
(lp1943
g57
(g58
g59
NtRp1944
(dp1945
g62
(dp1946
g70
I5
ssg71
g1940
sg64
(lp1947
S'html'
p1948
asbasbasbag57
(g73
g59
NtRp1949
(dp1950
g62
(dp1951
sg71
g67
sg64
(lp1952
g57
(g78
g59
NtRp1953
(dp1954
g62
(dp1955
g82
g83
ssg71
g1949
sg64
(lp1956
S'folder'
p1957
asbag57
(g78
g59
NtRp1958
(dp1959
g62
(dp1960
g89
g90
ssg71
g1949
sg64
(lp1961
S':'
asbag57
(g78
g59
NtRp1962
(dp1963
g62
(dp1964
sg71
g1949
sg64
(lp1965
g57
(g58
g59
NtRp1966
(dp1967
g62
(dp1968
g70
I5
ssg71
g1962
sg64
(lp1969
S'D:\\My Documents\\Documents\\Aptana Studio 3 Workspace\\hw2\\applications\\hw4\\'
p1970
asbasbasbag57
(g73
g59
NtRp1971
(dp1972
g62
(dp1973
sg71
g67
sg64
(lp1974
g57
(g78
g59
NtRp1975
(dp1976
g62
(dp1977
g82
g83
ssg71
g1971
sg64
(lp1978
S'function'
p1979
asbag57
(g78
g59
NtRp1980
(dp1981
g62
(dp1982
g89
g90
ssg71
g1971
sg64
(lp1983
S':'
asbag57
(g78
g59
NtRp1984
(dp1985
g62
(dp1986
sg71
g1971
sg64
(lp1987
g57
(g58
g59
NtRp1988
(dp1989
g62
(dp1990
g70
I5
ssg71
g1984
sg64
(lp1991
S'file_upload_or_choose'
p1992
asbasbasbag57
(g73
g59
NtRp1993
(dp1994
g62
(dp1995
sg71
g67
sg64
(lp1996
g57
(g78
g59
NtRp1997
(dp1998
g62
(dp1999
g82
g83
ssg71
g1993
sg64
(lp2000
S'get_vars'
p2001
asbag57
(g78
g59
NtRp2002
(dp2003
g62
(dp2004
g89
g90
ssg71
g1993
sg64
(lp2005
S':'
asbag57
(g78
g59
NtRp2006
(dp2007
g62
(dp2008
sg71
g1993
sg64
(lp2009
g57
(g58
g59
NtRp2010
(dp2011
g62
(dp2012
g70
I5
ssg71
g2006
sg64
(lp2013
g57
(g66
g59
NtRp2014
(dp2015
g62
(dp2016
g70
I4
ssg71
Nsg64
(lp2017
sbasbasbasbag57
(g73
g59
NtRp2018
(dp2019
g62
(dp2020
sg71
g67
sg64
(lp2021
g57
(g78
g59
NtRp2022
(dp2023
g62
(dp2024
g82
g83
ssg71
g2018
sg64
(lp2025
S'global_settings'
p2026
asbag57
(g78
g59
NtRp2027
(dp2028
g62
(dp2029
g89
g90
ssg71
g2018
sg64
(lp2030
S':'
asbag57
(g78
g59
NtRp2031
(dp2032
g62
(dp2033
sg71
g2018
sg64
(lp2034
g57
(g58
g59
NtRp2035
(dp2036
g62
(dp2037
g70
I5
ssg71
g2031
sg64
(lp2038
g57
(g66
g59
NtRp2039
(dp2040
g62
(dp2041
g70
I4
ssg71
Nsg64
(lp2042
g57
(g73
g59
NtRp2043
(dp2044
g62
(dp2045
sg71
g2039
sg64
(lp2046
g57
(g78
g59
NtRp2047
(dp2048
g62
(dp2049
g82
g83
ssg71
g2043
sg64
(lp2050
g859
asbag57
(g78
g59
NtRp2051
(dp2052
g62
(dp2053
g89
g90
ssg71
g2043
sg64
(lp2054
S':'
asbag57
(g78
g59
NtRp2055
(dp2056
g62
(dp2057
sg71
g2043
sg64
(lp2058
g57
(g58
g59
NtRp2059
(dp2060
g62
(dp2061
g70
I4
ssg71
g2055
sg64
(lp2062
S"set(['D:\\\\My Documents\\\\Documents\\\\Aptana Studio 3 Workspace\\\\hw2\\\\applications\\\\welcome\\\\', 'D:\\\\My Documents\\\\Documents\\\\Aptana Studio 3 Workspace\\\\hw2\\\\applications\\\\admin\\\\', 'D:\\\\My Documents\\\\Documents\\\\Aptana Studio 3 Workspace\\\\hw2\\\\applications\\\\hw4\\\\'])"
p2063
asbasbasbag57
(g73
g59
NtRp2064
(dp2065
g62
(dp2066
sg71
g2039
sg64
(lp2067
g57
(g78
g59
NtRp2068
(dp2069
g62
(dp2070
g82
g83
ssg71
g2064
sg64
(lp2071
g881
asbag57
(g78
g59
NtRp2072
(dp2073
g62
(dp2074
g89
g90
ssg71
g2064
sg64
(lp2075
S':'
asbag57
(g78
g59
NtRp2076
(dp2077
g62
(dp2078
sg71
g2064
sg64
(lp2079
g57
(g58
g59
NtRp2080
(dp2081
g62
(dp2082
g70
I4
ssg71
g2076
sg64
(lp2083
g894
asbasbasbag57
(g73
g59
NtRp2084
(dp2085
g62
(dp2086
sg71
g2039
sg64
(lp2087
g57
(g78
g59
NtRp2088
(dp2089
g62
(dp2090
g82
g83
ssg71
g2084
sg64
(lp2091
g903
asbag57
(g78
g59
NtRp2092
(dp2093
g62
(dp2094
g89
g90
ssg71
g2084
sg64
(lp2095
S':'
asbag57
(g78
g59
NtRp2096
(dp2097
g62
(dp2098
sg71
g2084
sg64
(lp2099
g57
(g58
g59
NtRp2100
(dp2101
g62
(dp2102
g70
I4
ssg71
g2096
sg64
(lp2103
g57
(g66
g59
NtRp2104
(dp2105
g62
(dp2106
g70
I3
ssg71
Nsg64
(lp2107
sbasbasbasbag57
(g73
g59
NtRp2108
(dp2109
g62
(dp2110
sg71
g2039
sg64
(lp2111
g57
(g78
g59
NtRp2112
(dp2113
g62
(dp2114
g82
g83
ssg71
g2108
sg64
(lp2115
g928
asbag57
(g78
g59
NtRp2116
(dp2117
g62
(dp2118
g89
g90
ssg71
g2108
sg64
(lp2119
S':'
asbag57
(g78
g59
NtRp2120
(dp2121
g62
(dp2122
sg71
g2108
sg64
(lp2123
g57
(g58
g59
NtRp2124
(dp2125
g62
(dp2126
g70
I4
ssg71
g2120
sg64
(lp2127
S"<Values at 0x1523c88: {'verbose': False, 'ip': '127.0.0.1', 'with_scheduler': False, 'ips': ['192.168.201.200'], 'shutdown_timeout': 5, 'taskbar': False, 'port': 8000, 'maxthreads': None, 'softcron': False, 'server_name': 'cateacher', 'bpython': False, 'nogui': False, 'pid_filename': 'httpserver.pid', 'extcron': False, 'runcron': False, 'run_system_tests': False, 'test': None, 'folder': 'D:\\\\My Documents\\\\Documents\\\\Aptana Studio 3 Workspace\\\\hw2', 'config': '', 'import_models': False, 'winservice': '', 'shell': None, 'run': '', 'log_filename': 'httpserver.log', 'debuglevel': 30, 'args': [''], 'socket_timeout': 5, 'ssl_ca_certificate': None, 'scheduler': None, 'profiler_filename': None, 'ssl_private_key': '', 'scheduler_groups': None, 'password': '<ask>', 'request_queue_size': 5, 'ssl_certificate': '', 'cronjob': False, 'numthreads': None, 'quiet': False, 'interfaces': None, 'minthreads': None, 'timeout': 10, 'plain': False, 'nobanner': False}>"
p2128
asbasbasbag57
(g73
g59
NtRp2129
(dp2130
g62
(dp2131
sg71
g2039
sg64
(lp2132
g57
(g78
g59
NtRp2133
(dp2134
g62
(dp2135
g82
g83
ssg71
g2129
sg64
(lp2136
g950
asbag57
(g78
g59
NtRp2137
(dp2138
g62
(dp2139
g89
g90
ssg71
g2129
sg64
(lp2140
S':'
asbag57
(g78
g59
NtRp2141
(dp2142
g62
(dp2143
sg71
g2129
sg64
(lp2144
g57
(g58
g59
NtRp2145
(dp2146
g62
(dp2147
g70
I4
ssg71
g2141
sg64
(lp2148
S'set([])'
p2149
asbasbasbag57
(g73
g59
NtRp2150
(dp2151
g62
(dp2152
sg71
g2039
sg64
(lp2153
g57
(g78
g59
NtRp2154
(dp2155
g62
(dp2156
g82
g83
ssg71
g2150
sg64
(lp2157
g972
asbag57
(g78
g59
NtRp2158
(dp2159
g62
(dp2160
g89
g90
ssg71
g2150
sg64
(lp2161
S':'
asbag57
(g78
g59
NtRp2162
(dp2163
g62
(dp2164
sg71
g2150
sg64
(lp2165
g57
(g58
g59
NtRp2166
(dp2167
g62
(dp2168
g70
I4
ssg71
g2162
sg64
(lp2169
g985
asbasbasbag57
(g73
g59
NtRp2170
(dp2171
g62
(dp2172
sg71
g2039
sg64
(lp2173
g57
(g78
g59
NtRp2174
(dp2175
g62
(dp2176
g82
g83
ssg71
g2170
sg64
(lp2177
g994
asbag57
(g78
g59
NtRp2178
(dp2179
g62
(dp2180
g89
g90
ssg71
g2170
sg64
(lp2181
S':'
asbag57
(g78
g59
NtRp2182
(dp2183
g62
(dp2184
sg71
g2170
sg64
(lp2185
g57
(g58
g59
NtRp2186
(dp2187
g62
(dp2188
g70
I4
ssg71
g2182
sg64
(lp2189
g1007
asbasbasbag57
(g73
g59
NtRp2190
(dp2191
g62
(dp2192
sg71
g2039
sg64
(lp2193
g57
(g78
g59
NtRp2194
(dp2195
g62
(dp2196
g82
g83
ssg71
g2190
sg64
(lp2197
g1257
asbag57
(g78
g59
NtRp2198
(dp2199
g62
(dp2200
g89
g90
ssg71
g2190
sg64
(lp2201
S':'
asbag57
(g78
g59
NtRp2202
(dp2203
g62
(dp2204
sg71
g2190
sg64
(lp2205
g57
(g58
g59
NtRp2206
(dp2207
g62
(dp2208
g70
I4
ssg71
g2202
sg64
(lp2209
g985
asbasbasbag57
(g73
g59
NtRp2210
(dp2211
g62
(dp2212
sg71
g2039
sg64
(lp2213
g57
(g78
g59
NtRp2214
(dp2215
g62
(dp2216
g82
g83
ssg71
g2210
sg64
(lp2217
g1278
asbag57
(g78
g59
NtRp2218
(dp2219
g62
(dp2220
g89
g90
ssg71
g2210
sg64
(lp2221
S':'
asbag57
(g78
g59
NtRp2222
(dp2223
g62
(dp2224
sg71
g2210
sg64
(lp2225
g57
(g58
g59
NtRp2226
(dp2227
g62
(dp2228
g70
I4
ssg71
g2222
sg64
(lp2229
g985
asbasbasbag57
(g73
g59
NtRp2230
(dp2231
g62
(dp2232
sg71
g2039
sg64
(lp2233
g57
(g78
g59
NtRp2234
(dp2235
g62
(dp2236
g82
g83
ssg71
g2230
sg64
(lp2237
g1299
asbag57
(g78
g59
NtRp2238
(dp2239
g62
(dp2240
g89
g90
ssg71
g2230
sg64
(lp2241
S':'
asbag57
(g78
g59
NtRp2242
(dp2243
g62
(dp2244
sg71
g2230
sg64
(lp2245
g57
(g58
g59
NtRp2246
(dp2247
g62
(dp2248
g70
I4
ssg71
g2242
sg64
(lp2249
g57
(g66
g59
NtRp2250
(dp2251
g62
(dp2252
g70
I3
ssg71
Nsg64
(lp2253
g57
(g73
g59
NtRp2254
(dp2255
g62
(dp2256
sg71
g2250
sg64
(lp2257
g57
(g78
g59
NtRp2258
(dp2259
g62
(dp2260
sg71
g2254
sg64
(lp2261
g57
(g58
g59
NtRp2262
(dp2263
g62
(dp2264
g70
I3
ssg71
g2258
sg64
(lp2265
g1328
asbasbasbag57
(g73
g59
NtRp2266
(dp2267
g62
(dp2268
sg71
g2250
sg64
(lp2269
g57
(g78
g59
NtRp2270
(dp2271
g62
(dp2272
sg71
g2266
sg64
(lp2273
g57
(g58
g59
NtRp2274
(dp2275
g62
(dp2276
g70
I3
ssg71
g2270
sg64
(lp2277
g1341
asbasbasbag57
(g73
g59
NtRp2278
(dp2279
g62
(dp2280
sg71
g2250
sg64
(lp2281
g57
(g78
g59
NtRp2282
(dp2283
g62
(dp2284
sg71
g2278
sg64
(lp2285
g57
(g58
g59
NtRp2286
(dp2287
g62
(dp2288
g70
I3
ssg71
g2282
sg64
(lp2289
g1354
asbasbasbag57
(g73
g59
NtRp2290
(dp2291
g62
(dp2292
sg71
g2250
sg64
(lp2293
g57
(g78
g59
NtRp2294
(dp2295
g62
(dp2296
sg71
g2290
sg64
(lp2297
g57
(g58
g59
NtRp2298
(dp2299
g62
(dp2300
g70
I3
ssg71
g2294
sg64
(lp2301
g1367
asbasbasbag57
(g73
g59
NtRp2302
(dp2303
g62
(dp2304
sg71
g2250
sg64
(lp2305
g57
(g78
g59
NtRp2306
(dp2307
g62
(dp2308
sg71
g2302
sg64
(lp2309
g57
(g58
g59
NtRp2310
(dp2311
g62
(dp2312
g70
I3
ssg71
g2306
sg64
(lp2313
g1380
asbasbasbasbasbasbasbag57
(g73
g59
NtRp2314
(dp2315
g62
(dp2316
sg71
g2039
sg64
(lp2317
g57
(g78
g59
NtRp2318
(dp2319
g62
(dp2320
g82
g83
ssg71
g2314
sg64
(lp2321
g1648
asbag57
(g78
g59
NtRp2322
(dp2323
g62
(dp2324
g89
g90
ssg71
g2314
sg64
(lp2325
S':'
asbag57
(g78
g59
NtRp2326
(dp2327
g62
(dp2328
sg71
g2314
sg64
(lp2329
g57
(g58
g59
NtRp2330
(dp2331
g62
(dp2332
g70
I4
ssg71
g2326
sg64
(lp2333
g57
(g66
g59
NtRp2334
(dp2335
g62
(dp2336
g70
I3
ssg71
Nsg64
(lp2337
g57
(g73
g59
NtRp2338
(dp2339
g62
(dp2340
sg71
g2334
sg64
(lp2341
g57
(g78
g59
NtRp2342
(dp2343
g62
(dp2344
sg71
g2338
sg64
(lp2345
g57
(g58
g59
NtRp2346
(dp2347
g62
(dp2348
g70
I3
ssg71
g2342
sg64
(lp2349
S'2'
asbasbasbag57
(g73
g59
NtRp2350
(dp2351
g62
(dp2352
sg71
g2334
sg64
(lp2353
g57
(g78
g59
NtRp2354
(dp2355
g62
(dp2356
sg71
g2350
sg64
(lp2357
g57
(g58
g59
NtRp2358
(dp2359
g62
(dp2360
g70
I3
ssg71
g2354
sg64
(lp2361
S'3'
asbasbasbag57
(g73
g59
NtRp2362
(dp2363
g62
(dp2364
sg71
g2334
sg64
(lp2365
g57
(g78
g59
NtRp2366
(dp2367
g62
(dp2368
sg71
g2362
sg64
(lp2369
g57
(g58
g59
NtRp2370
(dp2371
g62
(dp2372
g70
I3
ssg71
g2366
sg64
(lp2373
S'2'
asbasbasbag57
(g73
g59
NtRp2374
(dp2375
g62
(dp2376
sg71
g2334
sg64
(lp2377
g57
(g78
g59
NtRp2378
(dp2379
g62
(dp2380
sg71
g2374
sg64
(lp2381
g57
(g58
g59
NtRp2382
(dp2383
g62
(dp2384
g70
I3
ssg71
g2378
sg64
(lp2385
S'datetime.datetime(2012, 12, 17, 15, 3, 30)'
p2386
asbasbasbag57
(g73
g59
NtRp2387
(dp2388
g62
(dp2389
sg71
g2334
sg64
(lp2390
g57
(g78
g59
NtRp2391
(dp2392
g62
(dp2393
sg71
g2387
sg64
(lp2394
g57
(g58
g59
NtRp2395
(dp2396
g62
(dp2397
g70
I3
ssg71
g2391
sg64
(lp2398
g1726
asbasbasbasbasbasbasbasbasbasbasbag57
(g73
g59
NtRp2399
(dp2400
g62
(dp2401
sg71
g67
sg64
(lp2402
g57
(g78
g59
NtRp2403
(dp2404
g62
(dp2405
g82
g83
ssg71
g2399
sg64
(lp2406
S'is_https'
p2407
asbag57
(g78
g59
NtRp2408
(dp2409
g62
(dp2410
g89
g90
ssg71
g2399
sg64
(lp2411
S':'
asbag57
(g78
g59
NtRp2412
(dp2413
g62
(dp2414
sg71
g2399
sg64
(lp2415
g57
(g58
g59
NtRp2416
(dp2417
g62
(dp2418
g70
I5
ssg71
g2412
sg64
(lp2419
g985
asbasbasbag57
(g73
g59
NtRp2420
(dp2421
g62
(dp2422
sg71
g67
sg64
(lp2423
g57
(g78
g59
NtRp2424
(dp2425
g62
(dp2426
g82
g83
ssg71
g2420
sg64
(lp2427
S'is_local'
p2428
asbag57
(g78
g59
NtRp2429
(dp2430
g62
(dp2431
g89
g90
ssg71
g2420
sg64
(lp2432
S':'
asbag57
(g78
g59
NtRp2433
(dp2434
g62
(dp2435
sg71
g2420
sg64
(lp2436
g57
(g58
g59
NtRp2437
(dp2438
g62
(dp2439
g70
I5
ssg71
g2433
sg64
(lp2440
g100
asbasbasbag57
(g73
g59
NtRp2441
(dp2442
g62
(dp2443
sg71
g67
sg64
(lp2444
g57
(g78
g59
NtRp2445
(dp2446
g62
(dp2447
g82
g83
ssg71
g2441
sg64
(lp2448
S'is_restful'
p2449
asbag57
(g78
g59
NtRp2450
(dp2451
g62
(dp2452
g89
g90
ssg71
g2441
sg64
(lp2453
S':'
asbag57
(g78
g59
NtRp2454
(dp2455
g62
(dp2456
sg71
g2441
sg64
(lp2457
g57
(g58
g59
NtRp2458
(dp2459
g62
(dp2460
g70
I5
ssg71
g2454
sg64
(lp2461
g985
asbasbasbag57
(g73
g59
NtRp2462
(dp2463
g62
(dp2464
sg71
g67
sg64
(lp2465
g57
(g78
g59
NtRp2466
(dp2467
g62
(dp2468
g82
g83
ssg71
g2462
sg64
(lp2469
S'now'
p2470
asbag57
(g78
g59
NtRp2471
(dp2472
g62
(dp2473
g89
g90
ssg71
g2462
sg64
(lp2474
S':'
asbag57
(g78
g59
NtRp2475
(dp2476
g62
(dp2477
sg71
g2462
sg64
(lp2478
g57
(g58
g59
NtRp2479
(dp2480
g62
(dp2481
g70
I5
ssg71
g2475
sg64
(lp2482
S'datetime.datetime(2013, 9, 3, 8, 34, 38, 727000)'
p2483
asbasbasbag57
(g73
g59
NtRp2484
(dp2485
g62
(dp2486
sg71
g67
sg64
(lp2487
g57
(g78
g59
NtRp2488
(dp2489
g62
(dp2490
g82
g83
ssg71
g2484
sg64
(lp2491
S'post_vars'
p2492
asbag57
(g78
g59
NtRp2493
(dp2494
g62
(dp2495
g89
g90
ssg71
g2484
sg64
(lp2496
S':'
asbag57
(g78
g59
NtRp2497
(dp2498
g62
(dp2499
sg71
g2484
sg64
(lp2500
g57
(g58
g59
NtRp2501
(dp2502
g62
(dp2503
g70
I5
ssg71
g2497
sg64
(lp2504
g57
(g66
g59
NtRp2505
(dp2506
g62
(dp2507
g70
I4
ssg71
Nsg64
(lp2508
sbasbasbasbag57
(g73
g59
NtRp2509
(dp2510
g62
(dp2511
sg71
g67
sg64
(lp2512
g57
(g78
g59
NtRp2513
(dp2514
g62
(dp2515
g82
g83
ssg71
g2509
sg64
(lp2516
S'raw_args'
p2517
asbag57
(g78
g59
NtRp2518
(dp2519
g62
(dp2520
g89
g90
ssg71
g2509
sg64
(lp2521
S':'
asbag57
(g78
g59
NtRp2522
(dp2523
g62
(dp2524
sg71
g2509
sg64
(lp2525
g57
(g58
g59
NtRp2526
(dp2527
g62
(dp2528
g70
I5
ssg71
g2522
sg64
(lp2529
S''
asbasbasbag57
(g73
g59
NtRp2530
(dp2531
g62
(dp2532
sg71
g67
sg64
(lp2533
g57
(g78
g59
NtRp2534
(dp2535
g62
(dp2536
g82
g83
ssg71
g2530
sg64
(lp2537
S'raw_extension'
p2538
asbag57
(g78
g59
NtRp2539
(dp2540
g62
(dp2541
g89
g90
ssg71
g2530
sg64
(lp2542
S':'
asbag57
(g78
g59
NtRp2543
(dp2544
g62
(dp2545
sg71
g2530
sg64
(lp2546
g57
(g58
g59
NtRp2547
(dp2548
g62
(dp2549
g70
I5
ssg71
g2543
sg64
(lp2550
S'None'
p2551
asbasbasbag57
(g73
g59
NtRp2552
(dp2553
g62
(dp2554
sg71
g67
sg64
(lp2555
g57
(g78
g59
NtRp2556
(dp2557
g62
(dp2558
g82
g83
ssg71
g2552
sg64
(lp2559
S'url'
p2560
asbag57
(g78
g59
NtRp2561
(dp2562
g62
(dp2563
g89
g90
ssg71
g2552
sg64
(lp2564
S':'
asbag57
(g78
g59
NtRp2565
(dp2566
g62
(dp2567
sg71
g2552
sg64
(lp2568
g57
(g58
g59
NtRp2569
(dp2570
g62
(dp2571
g70
I5
ssg71
g2565
sg64
(lp2572
g1402
asbasbasbag57
(g73
g59
NtRp2573
(dp2574
g62
(dp2575
sg71
g67
sg64
(lp2576
g57
(g78
g59
NtRp2577
(dp2578
g62
(dp2579
g82
g83
ssg71
g2573
sg64
(lp2580
S'utcnow'
p2581
asbag57
(g78
g59
NtRp2582
(dp2583
g62
(dp2584
g89
g90
ssg71
g2573
sg64
(lp2585
S':'
asbag57
(g78
g59
NtRp2586
(dp2587
g62
(dp2588
sg71
g2573
sg64
(lp2589
g57
(g58
g59
NtRp2590
(dp2591
g62
(dp2592
g70
I5
ssg71
g2586
sg64
(lp2593
S'datetime.datetime(2013, 9, 3, 0, 34, 38, 727000)'
p2594
asbasbasbag57
(g73
g59
NtRp2595
(dp2596
g62
(dp2597
sg71
g67
sg64
(lp2598
g57
(g78
g59
NtRp2599
(dp2600
g62
(dp2601
g82
g83
ssg71
g2595
sg64
(lp2602
S'uuid'
p2603
asbag57
(g78
g59
NtRp2604
(dp2605
g62
(dp2606
g89
g90
ssg71
g2595
sg64
(lp2607
S':'
asbag57
(g78
g59
NtRp2608
(dp2609
g62
(dp2610
sg71
g2595
sg64
(lp2611
g57
(g58
g59
NtRp2612
(dp2613
g62
(dp2614
g70
I5
ssg71
g2608
sg64
(lp2615
S'hw4/127.0.0.1.2013-09-03.08-34-38.74399590-e7d9-4c85-a578-b58298a99fb9'
p2616
asbasbasbag57
(g73
g59
NtRp2617
(dp2618
g62
(dp2619
sg71
g67
sg64
(lp2620
g57
(g78
g59
NtRp2621
(dp2622
g62
(dp2623
g82
g83
ssg71
g2617
sg64
(lp2624
S'vars'
p2625
asbag57
(g78
g59
NtRp2626
(dp2627
g62
(dp2628
g89
g90
ssg71
g2617
sg64
(lp2629
S':'
asbag57
(g78
g59
NtRp2630
(dp2631
g62
(dp2632
sg71
g2617
sg64
(lp2633
g57
(g58
g59
NtRp2634
(dp2635
g62
(dp2636
g70
I5
ssg71
g2630
sg64
(lp2637
g57
(g66
g59
NtRp2638
(dp2639
g62
(dp2640
g70
I4
ssg71
Nsg64
(lp2641
sbasbasbasbag57
(g73
g59
NtRp2642
(dp2643
g62
(dp2644
sg71
g67
sg64
(lp2645
g57
(g78
g59
NtRp2646
(dp2647
g62
(dp2648
g82
g83
ssg71
g2642
sg64
(lp2649
S'wsgi'
p2650
asbag57
(g78
g59
NtRp2651
(dp2652
g62
(dp2653
g89
g90
ssg71
g2642
sg64
(lp2654
S':'
asbag57
(g78
g59
NtRp2655
(dp2656
g62
(dp2657
sg71
g2642
sg64
(lp2658
g57
(g58
g59
NtRp2659
(dp2660
g62
(dp2661
g70
I5
ssg71
g2655
sg64
(lp2662
g57
(g66
g59
NtRp2663
(dp2664
g62
(dp2665
g70
I4
ssg71
Nsg64
(lp2666
g57
(g73
g59
NtRp2667
(dp2668
g62
(dp2669
sg71
g2663
sg64
(lp2670
g57
(g78
g59
NtRp2671
(dp2672
g62
(dp2673
g82
g83
ssg71
g2667
sg64
(lp2674
S'environ'
p2675
asbag57
(g78
g59
NtRp2676
(dp2677
g62
(dp2678
g89
g90
ssg71
g2667
sg64
(lp2679
S':'
asbag57
(g78
g59
NtRp2680
(dp2681
g62
(dp2682
sg71
g2667
sg64
(lp2683
g57
(g58
g59
NtRp2684
(dp2685
g62
(dp2686
g70
I4
ssg71
g2680
sg64
(lp2687
g57
(g66
g59
NtRp2688
(dp2689
g62
(dp2690
g70
I3
ssg71
Nsg64
(lp2691
g57
(g73
g59
NtRp2692
(dp2693
g62
(dp2694
sg71
g2688
sg64
(lp2695
g57
(g78
g59
NtRp2696
(dp2697
g62
(dp2698
g82
g83
ssg71
g2692
sg64
(lp2699
S'HTTP_ACCEPT'
p2700
asbag57
(g78
g59
NtRp2701
(dp2702
g62
(dp2703
g89
g90
ssg71
g2692
sg64
(lp2704
S':'
asbag57
(g78
g59
NtRp2705
(dp2706
g62
(dp2707
sg71
g2692
sg64
(lp2708
g57
(g58
g59
NtRp2709
(dp2710
g62
(dp2711
g70
I3
ssg71
g2705
sg64
(lp2712
g1029
asbasbasbag57
(g73
g59
NtRp2713
(dp2714
g62
(dp2715
sg71
g2688
sg64
(lp2716
g57
(g78
g59
NtRp2717
(dp2718
g62
(dp2719
g82
g83
ssg71
g2713
sg64
(lp2720
S'HTTP_ACCEPT_ENCODING'
p2721
asbag57
(g78
g59
NtRp2722
(dp2723
g62
(dp2724
g89
g90
ssg71
g2713
sg64
(lp2725
S':'
asbag57
(g78
g59
NtRp2726
(dp2727
g62
(dp2728
sg71
g2713
sg64
(lp2729
g57
(g58
g59
NtRp2730
(dp2731
g62
(dp2732
g70
I3
ssg71
g2726
sg64
(lp2733
g1051
asbasbasbag57
(g73
g59
NtRp2734
(dp2735
g62
(dp2736
sg71
g2688
sg64
(lp2737
g57
(g78
g59
NtRp2738
(dp2739
g62
(dp2740
g82
g83
ssg71
g2734
sg64
(lp2741
S'HTTP_ACCEPT_LANGUAGE'
p2742
asbag57
(g78
g59
NtRp2743
(dp2744
g62
(dp2745
g89
g90
ssg71
g2734
sg64
(lp2746
S':'
asbag57
(g78
g59
NtRp2747
(dp2748
g62
(dp2749
sg71
g2734
sg64
(lp2750
g57
(g58
g59
NtRp2751
(dp2752
g62
(dp2753
g70
I3
ssg71
g2747
sg64
(lp2754
g1073
asbasbasbag57
(g73
g59
NtRp2755
(dp2756
g62
(dp2757
sg71
g2688
sg64
(lp2758
g57
(g78
g59
NtRp2759
(dp2760
g62
(dp2761
g82
g83
ssg71
g2755
sg64
(lp2762
S'HTTP_CONNECTION'
p2763
asbag57
(g78
g59
NtRp2764
(dp2765
g62
(dp2766
g89
g90
ssg71
g2755
sg64
(lp2767
S':'
asbag57
(g78
g59
NtRp2768
(dp2769
g62
(dp2770
sg71
g2755
sg64
(lp2771
g57
(g58
g59
NtRp2772
(dp2773
g62
(dp2774
g70
I3
ssg71
g2768
sg64
(lp2775
g1095
asbasbasbag57
(g73
g59
NtRp2776
(dp2777
g62
(dp2778
sg71
g2688
sg64
(lp2779
g57
(g78
g59
NtRp2780
(dp2781
g62
(dp2782
g82
g83
ssg71
g2776
sg64
(lp2783
S'HTTP_COOKIE'
p2784
asbag57
(g78
g59
NtRp2785
(dp2786
g62
(dp2787
g89
g90
ssg71
g2776
sg64
(lp2788
S':'
asbag57
(g78
g59
NtRp2789
(dp2790
g62
(dp2791
sg71
g2776
sg64
(lp2792
g57
(g58
g59
NtRp2793
(dp2794
g62
(dp2795
g70
I3
ssg71
g2789
sg64
(lp2796
g1117
asbasbasbag57
(g73
g59
NtRp2797
(dp2798
g62
(dp2799
sg71
g2688
sg64
(lp2800
g57
(g78
g59
NtRp2801
(dp2802
g62
(dp2803
g82
g83
ssg71
g2797
sg64
(lp2804
S'HTTP_HOST'
p2805
asbag57
(g78
g59
NtRp2806
(dp2807
g62
(dp2808
g89
g90
ssg71
g2797
sg64
(lp2809
S':'
asbag57
(g78
g59
NtRp2810
(dp2811
g62
(dp2812
sg71
g2797
sg64
(lp2813
g57
(g58
g59
NtRp2814
(dp2815
g62
(dp2816
g70
I3
ssg71
g2810
sg64
(lp2817
g1139
asbasbasbag57
(g73
g59
NtRp2818
(dp2819
g62
(dp2820
sg71
g2688
sg64
(lp2821
g57
(g78
g59
NtRp2822
(dp2823
g62
(dp2824
g82
g83
ssg71
g2818
sg64
(lp2825
S'HTTP_REFERER'
p2826
asbag57
(g78
g59
NtRp2827
(dp2828
g62
(dp2829
g89
g90
ssg71
g2818
sg64
(lp2830
S':'
asbag57
(g78
g59
NtRp2831
(dp2832
g62
(dp2833
sg71
g2818
sg64
(lp2834
g57
(g58
g59
NtRp2835
(dp2836
g62
(dp2837
g70
I3
ssg71
g2831
sg64
(lp2838
g1161
asbasbasbag57
(g73
g59
NtRp2839
(dp2840
g62
(dp2841
sg71
g2688
sg64
(lp2842
g57
(g78
g59
NtRp2843
(dp2844
g62
(dp2845
g82
g83
ssg71
g2839
sg64
(lp2846
S'HTTP_USER_AGENT'
p2847
asbag57
(g78
g59
NtRp2848
(dp2849
g62
(dp2850
g89
g90
ssg71
g2839
sg64
(lp2851
S':'
asbag57
(g78
g59
NtRp2852
(dp2853
g62
(dp2854
sg71
g2839
sg64
(lp2855
g57
(g58
g59
NtRp2856
(dp2857
g62
(dp2858
g70
I3
ssg71
g2852
sg64
(lp2859
g1183
asbasbasbag57
(g73
g59
NtRp2860
(dp2861
g62
(dp2862
sg71
g2688
sg64
(lp2863
g57
(g78
g59
NtRp2864
(dp2865
g62
(dp2866
g82
g83
ssg71
g2860
sg64
(lp2867
S'HTTP_WEB2PY_COMPONENT_ELEMENT'
p2868
asbag57
(g78
g59
NtRp2869
(dp2870
g62
(dp2871
g89
g90
ssg71
g2860
sg64
(lp2872
S':'
asbag57
(g78
g59
NtRp2873
(dp2874
g62
(dp2875
sg71
g2860
sg64
(lp2876
g57
(g58
g59
NtRp2877
(dp2878
g62
(dp2879
g70
I3
ssg71
g2873
sg64
(lp2880
g190
asbasbasbag57
(g73
g59
NtRp2881
(dp2882
g62
(dp2883
sg71
g2688
sg64
(lp2884
g57
(g78
g59
NtRp2885
(dp2886
g62
(dp2887
g82
g83
ssg71
g2881
sg64
(lp2888
S'HTTP_WEB2PY_COMPONENT_LOCATION'
p2889
asbag57
(g78
g59
NtRp2890
(dp2891
g62
(dp2892
g89
g90
ssg71
g2881
sg64
(lp2893
S':'
asbag57
(g78
g59
NtRp2894
(dp2895
g62
(dp2896
sg71
g2881
sg64
(lp2897
g57
(g58
g59
NtRp2898
(dp2899
g62
(dp2900
g70
I3
ssg71
g2894
sg64
(lp2901
g1226
asbasbasbag57
(g73
g59
NtRp2902
(dp2903
g62
(dp2904
sg71
g2688
sg64
(lp2905
g57
(g78
g59
NtRp2906
(dp2907
g62
(dp2908
g82
g83
ssg71
g2902
sg64
(lp2909
S'HTTP_X_REQUESTED_WITH'
p2910
asbag57
(g78
g59
NtRp2911
(dp2912
g62
(dp2913
g89
g90
ssg71
g2902
sg64
(lp2914
S':'
asbag57
(g78
g59
NtRp2915
(dp2916
g62
(dp2917
sg71
g2902
sg64
(lp2918
g57
(g58
g59
NtRp2919
(dp2920
g62
(dp2921
g70
I3
ssg71
g2915
sg64
(lp2922
g1248
asbasbasbag57
(g73
g59
NtRp2923
(dp2924
g62
(dp2925
sg71
g2688
sg64
(lp2926
g57
(g78
g59
NtRp2927
(dp2928
g62
(dp2929
g82
g83
ssg71
g2923
sg64
(lp2930
S'PATH_INFO'
p2931
asbag57
(g78
g59
NtRp2932
(dp2933
g62
(dp2934
g89
g90
ssg71
g2923
sg64
(lp2935
S':'
asbag57
(g78
g59
NtRp2936
(dp2937
g62
(dp2938
sg71
g2923
sg64
(lp2939
g57
(g58
g59
NtRp2940
(dp2941
g62
(dp2942
g70
I3
ssg71
g2936
sg64
(lp2943
g1402
asbasbasbag57
(g73
g59
NtRp2944
(dp2945
g62
(dp2946
sg71
g2688
sg64
(lp2947
g57
(g78
g59
NtRp2948
(dp2949
g62
(dp2950
g82
g83
ssg71
g2944
sg64
(lp2951
S'QUERY_STRING'
p2952
asbag57
(g78
g59
NtRp2953
(dp2954
g62
(dp2955
g89
g90
ssg71
g2944
sg64
(lp2956
S':'
asbag57
(g78
g59
NtRp2957
(dp2958
g62
(dp2959
sg71
g2944
sg64
(lp2960
g57
(g58
g59
NtRp2961
(dp2962
g62
(dp2963
g70
I3
ssg71
g2957
sg64
(lp2964
S''
asbasbasbag57
(g73
g59
NtRp2965
(dp2966
g62
(dp2967
sg71
g2688
sg64
(lp2968
g57
(g78
g59
NtRp2969
(dp2970
g62
(dp2971
g82
g83
ssg71
g2965
sg64
(lp2972
S'REMOTE_ADDR'
p2973
asbag57
(g78
g59
NtRp2974
(dp2975
g62
(dp2976
g89
g90
ssg71
g2965
sg64
(lp2977
S':'
asbag57
(g78
g59
NtRp2978
(dp2979
g62
(dp2980
sg71
g2965
sg64
(lp2981
g57
(g58
g59
NtRp2982
(dp2983
g62
(dp2984
g70
I3
ssg71
g2978
sg64
(lp2985
g212
asbasbasbag57
(g73
g59
NtRp2986
(dp2987
g62
(dp2988
sg71
g2688
sg64
(lp2989
g57
(g78
g59
NtRp2990
(dp2991
g62
(dp2992
g82
g83
ssg71
g2986
sg64
(lp2993
S'REMOTE_PORT'
p2994
asbag57
(g78
g59
NtRp2995
(dp2996
g62
(dp2997
g89
g90
ssg71
g2986
sg64
(lp2998
S':'
asbag57
(g78
g59
NtRp2999
(dp3000
g62
(dp3001
sg71
g2986
sg64
(lp3002
g57
(g58
g59
NtRp3003
(dp3004
g62
(dp3005
g70
I3
ssg71
g2999
sg64
(lp3006
g1466
asbasbasbag57
(g73
g59
NtRp3007
(dp3008
g62
(dp3009
sg71
g2688
sg64
(lp3010
g57
(g78
g59
NtRp3011
(dp3012
g62
(dp3013
g82
g83
ssg71
g3007
sg64
(lp3014
S'REQUEST_METHOD'
p3015
asbag57
(g78
g59
NtRp3016
(dp3017
g62
(dp3018
g89
g90
ssg71
g3007
sg64
(lp3019
S':'
asbag57
(g78
g59
NtRp3020
(dp3021
g62
(dp3022
sg71
g3007
sg64
(lp3023
g57
(g58
g59
NtRp3024
(dp3025
g62
(dp3026
g70
I3
ssg71
g3020
sg64
(lp3027
g1488
asbasbasbag57
(g73
g59
NtRp3028
(dp3029
g62
(dp3030
sg71
g2688
sg64
(lp3031
g57
(g78
g59
NtRp3032
(dp3033
g62
(dp3034
g82
g83
ssg71
g3028
sg64
(lp3035
S'REQUEST_URI'
p3036
asbag57
(g78
g59
NtRp3037
(dp3038
g62
(dp3039
g89
g90
ssg71
g3028
sg64
(lp3040
S':'
asbag57
(g78
g59
NtRp3041
(dp3042
g62
(dp3043
sg71
g3028
sg64
(lp3044
g57
(g58
g59
NtRp3045
(dp3046
g62
(dp3047
g70
I3
ssg71
g3041
sg64
(lp3048
g1402
asbasbasbag57
(g73
g59
NtRp3049
(dp3050
g62
(dp3051
sg71
g2688
sg64
(lp3052
g57
(g78
g59
NtRp3053
(dp3054
g62
(dp3055
g82
g83
ssg71
g3049
sg64
(lp3056
S'SCRIPT_NAME'
p3057
asbag57
(g78
g59
NtRp3058
(dp3059
g62
(dp3060
g89
g90
ssg71
g3049
sg64
(lp3061
S':'
asbag57
(g78
g59
NtRp3062
(dp3063
g62
(dp3064
sg71
g3049
sg64
(lp3065
g57
(g58
g59
NtRp3066
(dp3067
g62
(dp3068
g70
I3
ssg71
g3062
sg64
(lp3069
S''
asbasbasbag57
(g73
g59
NtRp3070
(dp3071
g62
(dp3072
sg71
g2688
sg64
(lp3073
g57
(g78
g59
NtRp3074
(dp3075
g62
(dp3076
g82
g83
ssg71
g3070
sg64
(lp3077
S'SERVER_NAME'
p3078
asbag57
(g78
g59
NtRp3079
(dp3080
g62
(dp3081
g89
g90
ssg71
g3070
sg64
(lp3082
S':'
asbag57
(g78
g59
NtRp3083
(dp3084
g62
(dp3085
sg71
g3070
sg64
(lp3086
g57
(g58
g59
NtRp3087
(dp3088
g62
(dp3089
g70
I3
ssg71
g3083
sg64
(lp3090
g1552
asbasbasbag57
(g73
g59
NtRp3091
(dp3092
g62
(dp3093
sg71
g2688
sg64
(lp3094
g57
(g78
g59
NtRp3095
(dp3096
g62
(dp3097
g82
g83
ssg71
g3091
sg64
(lp3098
S'SERVER_PORT'
p3099
asbag57
(g78
g59
NtRp3100
(dp3101
g62
(dp3102
g89
g90
ssg71
g3091
sg64
(lp3103
S':'
asbag57
(g78
g59
NtRp3104
(dp3105
g62
(dp3106
sg71
g3091
sg64
(lp3107
g57
(g58
g59
NtRp3108
(dp3109
g62
(dp3110
g70
I3
ssg71
g3104
sg64
(lp3111
g1574
asbasbasbag57
(g73
g59
NtRp3112
(dp3113
g62
(dp3114
sg71
g2688
sg64
(lp3115
g57
(g78
g59
NtRp3116
(dp3117
g62
(dp3118
g82
g83
ssg71
g3112
sg64
(lp3119
S'SERVER_PROTOCOL'
p3120
asbag57
(g78
g59
NtRp3121
(dp3122
g62
(dp3123
g89
g90
ssg71
g3112
sg64
(lp3124
S':'
asbag57
(g78
g59
NtRp3125
(dp3126
g62
(dp3127
sg71
g3112
sg64
(lp3128
g57
(g58
g59
NtRp3129
(dp3130
g62
(dp3131
g70
I3
ssg71
g3125
sg64
(lp3132
g1596
asbasbasbag57
(g73
g59
NtRp3133
(dp3134
g62
(dp3135
sg71
g2688
sg64
(lp3136
g57
(g78
g59
NtRp3137
(dp3138
g62
(dp3139
g82
g83
ssg71
g3133
sg64
(lp3140
S'SERVER_SOFTWARE'
p3141
asbag57
(g78
g59
NtRp3142
(dp3143
g62
(dp3144
g89
g90
ssg71
g3133
sg64
(lp3145
S':'
asbag57
(g78
g59
NtRp3146
(dp3147
g62
(dp3148
sg71
g3133
sg64
(lp3149
g57
(g58
g59
NtRp3150
(dp3151
g62
(dp3152
g70
I3
ssg71
g3146
sg64
(lp3153
g1618
asbasbasbag57
(g73
g59
NtRp3154
(dp3155
g62
(dp3156
sg71
g2688
sg64
(lp3157
g57
(g78
g59
NtRp3158
(dp3159
g62
(dp3160
g82
g83
ssg71
g3154
sg64
(lp3161
S'wsgi.errors'
p3162
asbag57
(g78
g59
NtRp3163
(dp3164
g62
(dp3165
g89
g90
ssg71
g3154
sg64
(lp3166
S':'
asbag57
(g78
g59
NtRp3167
(dp3168
g62
(dp3169
sg71
g3154
sg64
(lp3170
g57
(g58
g59
NtRp3171
(dp3172
g62
(dp3173
g70
I3
ssg71
g3167
sg64
(lp3174
S"<open file '<stderr>', mode 'w' at 0x00AB50D0>"
p3175
asbasbasbag57
(g73
g59
NtRp3176
(dp3177
g62
(dp3178
sg71
g2688
sg64
(lp3179
g57
(g78
g59
NtRp3180
(dp3181
g62
(dp3182
g82
g83
ssg71
g3176
sg64
(lp3183
S'wsgi.file_wrapper'
p3184
asbag57
(g78
g59
NtRp3185
(dp3186
g62
(dp3187
g89
g90
ssg71
g3176
sg64
(lp3188
S':'
asbag57
(g78
g59
NtRp3189
(dp3190
g62
(dp3191
sg71
g3176
sg64
(lp3192
g57
(g58
g59
NtRp3193
(dp3194
g62
(dp3195
g70
I3
ssg71
g3189
sg64
(lp3196
S'<class wsgiref.util.FileWrapper at 0x014D9618>'
p3197
asbasbasbag57
(g73
g59
NtRp3198
(dp3199
g62
(dp3200
sg71
g2688
sg64
(lp3201
g57
(g78
g59
NtRp3202
(dp3203
g62
(dp3204
g82
g83
ssg71
g3198
sg64
(lp3205
S'wsgi.input'
p3206
asbag57
(g78
g59
NtRp3207
(dp3208
g62
(dp3209
g89
g90
ssg71
g3198
sg64
(lp3210
S':'
asbag57
(g78
g59
NtRp3211
(dp3212
g62
(dp3213
sg71
g3198
sg64
(lp3214
g57
(g58
g59
NtRp3215
(dp3216
g62
(dp3217
g70
I3
ssg71
g3211
sg64
(lp3218
S'<cStringIO.StringO object at 0x04C8DAC0>'
p3219
asbasbasbag57
(g73
g59
NtRp3220
(dp3221
g62
(dp3222
sg71
g2688
sg64
(lp3223
g57
(g78
g59
NtRp3224
(dp3225
g62
(dp3226
g82
g83
ssg71
g3220
sg64
(lp3227
S'wsgi.multiprocess'
p3228
asbag57
(g78
g59
NtRp3229
(dp3230
g62
(dp3231
g89
g90
ssg71
g3220
sg64
(lp3232
S':'
asbag57
(g78
g59
NtRp3233
(dp3234
g62
(dp3235
sg71
g3220
sg64
(lp3236
g57
(g58
g59
NtRp3237
(dp3238
g62
(dp3239
g70
I3
ssg71
g3233
sg64
(lp3240
g985
asbasbasbag57
(g73
g59
NtRp3241
(dp3242
g62
(dp3243
sg71
g2688
sg64
(lp3244
g57
(g78
g59
NtRp3245
(dp3246
g62
(dp3247
g82
g83
ssg71
g3241
sg64
(lp3248
S'wsgi.multithread'
p3249
asbag57
(g78
g59
NtRp3250
(dp3251
g62
(dp3252
g89
g90
ssg71
g3241
sg64
(lp3253
S':'
asbag57
(g78
g59
NtRp3254
(dp3255
g62
(dp3256
sg71
g3241
sg64
(lp3257
g57
(g58
g59
NtRp3258
(dp3259
g62
(dp3260
g70
I3
ssg71
g3254
sg64
(lp3261
g100
asbasbasbag57
(g73
g59
NtRp3262
(dp3263
g62
(dp3264
sg71
g2688
sg64
(lp3265
g57
(g78
g59
NtRp3266
(dp3267
g62
(dp3268
g82
g83
ssg71
g3262
sg64
(lp3269
S'wsgi.run_once'
p3270
asbag57
(g78
g59
NtRp3271
(dp3272
g62
(dp3273
g89
g90
ssg71
g3262
sg64
(lp3274
S':'
asbag57
(g78
g59
NtRp3275
(dp3276
g62
(dp3277
sg71
g3262
sg64
(lp3278
g57
(g58
g59
NtRp3279
(dp3280
g62
(dp3281
g70
I3
ssg71
g3275
sg64
(lp3282
g985
asbasbasbag57
(g73
g59
NtRp3283
(dp3284
g62
(dp3285
sg71
g2688
sg64
(lp3286
g57
(g78
g59
NtRp3287
(dp3288
g62
(dp3289
g82
g83
ssg71
g3283
sg64
(lp3290
S'wsgi.url_scheme'
p3291
asbag57
(g78
g59
NtRp3292
(dp3293
g62
(dp3294
g89
g90
ssg71
g3283
sg64
(lp3295
S':'
asbag57
(g78
g59
NtRp3296
(dp3297
g62
(dp3298
sg71
g3283
sg64
(lp3299
g57
(g58
g59
NtRp3300
(dp3301
g62
(dp3302
g70
I3
ssg71
g3296
sg64
(lp3303
g1877
asbasbasbag57
(g73
g59
NtRp3304
(dp3305
g62
(dp3306
sg71
g2688
sg64
(lp3307
g57
(g78
g59
NtRp3308
(dp3309
g62
(dp3310
g82
g83
ssg71
g3304
sg64
(lp3311
S'wsgi.version'
p3312
asbag57
(g78
g59
NtRp3313
(dp3314
g62
(dp3315
g89
g90
ssg71
g3304
sg64
(lp3316
S':'
asbag57
(g78
g59
NtRp3317
(dp3318
g62
(dp3319
sg71
g3304
sg64
(lp3320
g57
(g58
g59
NtRp3321
(dp3322
g62
(dp3323
g70
I3
ssg71
g3317
sg64
(lp3324
S'1'
asbasbasbasbasbasbasbasbasbasbasbasbasbsS'frames'
p3325
(lp3326
(dp3327
S'file'
p3328
S'D:\\My Documents\\Documents\\Aptana Studio 3 Workspace\\hw2\\gluon\\restricted.py'
p3329
sS'dump'
p3330
(dp3331
S'environment'
p3332
S"{'A': <class 'gluon.html.A'>, 'Auth': <class 'gluon.tools.Auth'>, 'B': <class 'gluon.html.B'>, 'BEAUTIFY': <class 'gluon.html.BEAUTIFY'>, 'BODY': <class 'gluon.html.BODY'>, 'BR': <class 'gluon.html.BR'>, 'BUTTON': <class 'gluon.html.BUTTON'>, 'CAT': <class 'gluon.html.CAT'>, 'CENTER': <class 'gluon.html.CENTER'>, 'CLEANUP': <class 'gluon.validators.CLEANUP'>, ...}"
p3333
sS'ccode'
p3334
S'<code object <module> at 04C905C0, file "D:\\My D...\\hw4\\controllers/plugin_elrte_widget.py", line 2>'
p3335
ssS'lnum'
p3336
I212
sS'lines'
p3337
(dp3338
I207
S'    try:'
p3339
sI208
S'        if isinstance(code, types.CodeType):'
p3340
sI209
S'            ccode = code'
p3341
sI210
S'        else:'
p3342
sI211
S'            ccode = compile2(code, layer)'
p3343
sI212
S'        exec ccode in environment'
p3344
sI213
S'    except HTTP:'
p3345
sI214
S'        raise'
p3346
sI215
S'    except RestrictedError:'
p3347
sI216
S'        # do not encapsulate (obfuscate) the original RestrictedError'
p3348
ssS'call'
p3349
S"(code='# -*- coding: utf-8 -*-\\nfrom plugin_elrte_widget...se._vars=response._caller(file_upload_or_choose)\\n', environment={'A': <class 'gluon.html.A'>, 'Auth': <class 'gluon.tools.Auth'>, 'B': <class 'gluon.html.B'>, 'BEAUTIFY': <class 'gluon.html.BEAUTIFY'>, 'BODY': <class 'gluon.html.BODY'>, 'BR': <class 'gluon.html.BR'>, 'BUTTON': <class 'gluon.html.BUTTON'>, 'CAT': <class 'gluon.html.CAT'>, 'CENTER': <class 'gluon.html.CENTER'>, 'CLEANUP': <class 'gluon.validators.CLEANUP'>, ...}, layer=r'D:\\My Documents\\Documents\\Aptana Studio 3 Worksp...plications\\hw4\\controllers/plugin_elrte_widget.py')"
p3350
sS'func'
p3351
S'restricted'
p3352
sa(dp3353
g3328
S'D:\\My Documents\\Documents\\Aptana Studio 3 Workspace\\hw2\\applications\\hw4\\controllers\\plugin_elrte_widget.py'
p3354
sg3330
(dp3355
S'ext'
p3356
S'undefined'
p3357
ssg3336
I106
sg3337
(dp3358
I96
S"jQuery.data(document.body, 'elrte_callback')('%s');jQuery('.dialog').hide(); return false;"
p3359
sI97
S'""" % A(_get_icon(r.myfile), r.name, _href=URL(request.controller, \'download\', args=r.myfile)).xml()),'
p3360
sI98
S"                       _style='margin-bottom:5px;') for r in records])"
p3361
sI99
S''
sI100
S'    return BEAUTIFY(dict(form=form, info=info, records=records))'
p3362
sI101
S''
sI102
S''
sI103
S'def download():'
p3363
sI104
S'    return response.download(request, db)'
p3364
sI95
S'    records = DIV([DIV(A(_get_icon(r.myfile), r.name, _href=\'#\', _onclick="""'
p3365
ssg3349
S'()'
p3366
sg3351
S'<module>'
p3367
sa(dp3368
g3328
S'D:\\My Documents\\Documents\\Aptana Studio 3 Workspace\\hw2\\gluon\\globals.py'
p3369
sg3330
(dp3370
S'self'
p3371
g3357
sS'f'
S'<function file_upload_or_choose>'
p3372
ssg3336
I193
sg3337
(dp3373
I192
S'        self._vars = None'
p3374
sI193
S'        self._caller = lambda f: f()'
p3375
sI194
S'        self._view_environment = None'
p3376
sI195
S'        self._custom_commit = None'
p3377
sI196
S'        self._custom_rollback = None'
p3378
sI197
S''
sI188
S'        self.menu = []             # used by the default view layout'
p3379
sI189
S'        self.files = []            # used by web2py_ajax.html'
p3380
sI190
S'        self.generic_patterns = []  # patterns to allow generic views'
p3381
sI191
S"        self.delimiters = ('{{', '}}')"
p3382
ssg3349
S'(f=<function file_upload_or_choose>)'
p3383
sg3351
S'<lambda>'
p3384
sa(dp3385
g3328
S'D:\\My Documents\\Documents\\Aptana Studio 3 Workspace\\hw2\\applications\\hw4\\controllers\\plugin_elrte_widget.py'
p3386
sg3330
(dp3387
S'info'
p3388
S"''"
p3389
sS'form.vars'
p3390
S'<Storage {}>'
p3391
sS'form'
p3392
S'<gluon.sqlhtml.SQLFORM object>'
p3393
ssg3336
I94
sg3337
(dp3394
I96
S"jQuery.data(document.body, 'elrte_callback')('%s');jQuery('.dialog').hide(); return false;"
p3395
sI97
S'""" % A(_get_icon(r.myfile), r.name, _href=URL(request.controller, \'download\', args=r.myfile)).xml()),'
p3396
sI98
S"                       _style='margin-bottom:5px;') for r in records])"
p3397
sI89
S'        else:'
p3398
sI90
S"            filename = 'icon_txt.gif'"
p3399
sI91
S"        return IMG(_src=URL('static', 'plugin_elrte_widget/custom/icons/%s' % filename),"
p3400
sI92
S"                   _style='cursor:pointer;margin-right:5px;')"
p3401
sI93
S''
sI94
S'    records = disk_db(file_table.id > 0).select(orderby=~file_table.id, limitby=(0, 3))'
p3402
sI95
S'    records = DIV([DIV(A(_get_icon(r.myfile), r.name, _href=\'#\', _onclick="""'
p3403
ssg3349
S'()'
p3404
sg3351
S'file_upload_or_choose'
p3405
sasS'pyver'
p3406
S'Python 2.7.3: C:\\Python27\\python.exe'
p3407
sS'session'
p3408
g57
(g58
g59
NtRp3409
(dp3410
g62
(dp3411
sg64
(lp3412
g57
(g66
g59
NtRp3413
(dp3414
g62
(dp3415
g70
I5
ssg71
Nsg64
(lp3416
sbasbsS'etype'
p3417
S"<type 'exceptions.NameError'>"
p3418
sS'date'
p3419
S'Tue Sep 03 08:34:38 2013'
p3420
sS'response'
p3421
g57
(g58
g59
NtRp3422
(dp3423
g62
(dp3424
sg64
(lp3425
g57
(g66
g59
NtRp3426
(dp3427
g62
(dp3428
g70
I5
ssg71
Nsg64
(lp3429
g57
(g73
g59
NtRp3430
(dp3431
g62
(dp3432
sg71
g3426
sg64
(lp3433
g57
(g78
g59
NtRp3434
(dp3435
g62
(dp3436
g82
g83
ssg71
g3430
sg64
(lp3437
g155
asbag57
(g78
g59
NtRp3438
(dp3439
g62
(dp3440
g89
g90
ssg71
g3430
sg64
(lp3441
S':'
asbag57
(g78
g59
NtRp3442
(dp3443
g62
(dp3444
sg71
g3430
sg64
(lp3445
g57
(g58
g59
NtRp3446
(dp3447
g62
(dp3448
g70
I5
ssg71
g3442
sg64
(lp3449
S'<cStringIO.StringO object at 0x04E7A180>'
p3450
asbasbasbag57
(g73
g59
NtRp3451
(dp3452
g62
(dp3453
sg71
g3426
sg64
(lp3454
g57
(g78
g59
NtRp3455
(dp3456
g62
(dp3457
g82
g83
ssg71
g3451
sg64
(lp3458
g243
asbag57
(g78
g59
NtRp3459
(dp3460
g62
(dp3461
g89
g90
ssg71
g3451
sg64
(lp3462
S':'
asbag57
(g78
g59
NtRp3463
(dp3464
g62
(dp3465
sg71
g3451
sg64
(lp3466
g57
(g58
g59
NtRp3467
(dp3468
g62
(dp3469
g70
I5
ssg71
g3463
sg64
(lp3470
g57
(g66
g59
NtRp3471
(dp3472
g62
(dp3473
g70
I4
ssg71
Nsg64
(lp3474
g57
(g73
g59
NtRp3475
(dp3476
g62
(dp3477
sg71
g3471
sg64
(lp3478
g57
(g78
g59
NtRp3479
(dp3480
g62
(dp3481
g82
g83
ssg71
g3475
sg64
(lp3482
S'session_id_hw4'
p3483
asbag57
(g78
g59
NtRp3484
(dp3485
g62
(dp3486
g89
g90
ssg71
g3475
sg64
(lp3487
S':'
asbag57
(g78
g59
NtRp3488
(dp3489
g62
(dp3490
sg71
g3475
sg64
(lp3491
g57
(g58
g59
NtRp3492
(dp3493
g62
(dp3494
g70
I4
ssg71
g3488
sg64
(lp3495
g475
ag57
(g66
g59
NtRp3496
(dp3497
g62
(dp3498
g70
I3
ssg71
Nsg64
(lp3499
g57
(g73
g59
NtRp3500
(dp3501
g62
(dp3502
sg71
g3496
sg64
(lp3503
g57
(g78
g59
NtRp3504
(dp3505
g62
(dp3506
g82
g83
ssg71
g3500
sg64
(lp3507
g294
asbag57
(g78
g59
NtRp3508
(dp3509
g62
(dp3510
g89
g90
ssg71
g3500
sg64
(lp3511
S':'
asbag57
(g78
g59
NtRp3512
(dp3513
g62
(dp3514
sg71
g3500
sg64
(lp3515
g57
(g58
g59
NtRp3516
(dp3517
g62
(dp3518
g70
I3
ssg71
g3512
sg64
(lp3519
S''
asbasbasbag57
(g73
g59
NtRp3520
(dp3521
g62
(dp3522
sg71
g3496
sg64
(lp3523
g57
(g78
g59
NtRp3524
(dp3525
g62
(dp3526
g82
g83
ssg71
g3520
sg64
(lp3527
g315
asbag57
(g78
g59
NtRp3528
(dp3529
g62
(dp3530
g89
g90
ssg71
g3520
sg64
(lp3531
S':'
asbag57
(g78
g59
NtRp3532
(dp3533
g62
(dp3534
sg71
g3520
sg64
(lp3535
g57
(g58
g59
NtRp3536
(dp3537
g62
(dp3538
g70
I3
ssg71
g3532
sg64
(lp3539
S''
asbasbasbag57
(g73
g59
NtRp3540
(dp3541
g62
(dp3542
sg71
g3496
sg64
(lp3543
g57
(g78
g59
NtRp3544
(dp3545
g62
(dp3546
g82
g83
ssg71
g3540
sg64
(lp3547
g336
asbag57
(g78
g59
NtRp3548
(dp3549
g62
(dp3550
g89
g90
ssg71
g3540
sg64
(lp3551
S':'
asbag57
(g78
g59
NtRp3552
(dp3553
g62
(dp3554
sg71
g3540
sg64
(lp3555
g57
(g58
g59
NtRp3556
(dp3557
g62
(dp3558
g70
I3
ssg71
g3552
sg64
(lp3559
S''
asbasbasbag57
(g73
g59
NtRp3560
(dp3561
g62
(dp3562
sg71
g3496
sg64
(lp3563
g57
(g78
g59
NtRp3564
(dp3565
g62
(dp3566
g82
g83
ssg71
g3560
sg64
(lp3567
g357
asbag57
(g78
g59
NtRp3568
(dp3569
g62
(dp3570
g89
g90
ssg71
g3560
sg64
(lp3571
S':'
asbag57
(g78
g59
NtRp3572
(dp3573
g62
(dp3574
sg71
g3560
sg64
(lp3575
g57
(g58
g59
NtRp3576
(dp3577
g62
(dp3578
g70
I3
ssg71
g3572
sg64
(lp3579
S''
asbasbasbag57
(g73
g59
NtRp3580
(dp3581
g62
(dp3582
sg71
g3496
sg64
(lp3583
g57
(g78
g59
NtRp3584
(dp3585
g62
(dp3586
g82
g83
ssg71
g3580
sg64
(lp3587
g378
asbag57
(g78
g59
NtRp3588
(dp3589
g62
(dp3590
g89
g90
ssg71
g3580
sg64
(lp3591
S':'
asbag57
(g78
g59
NtRp3592
(dp3593
g62
(dp3594
sg71
g3580
sg64
(lp3595
g57
(g58
g59
NtRp3596
(dp3597
g62
(dp3598
g70
I3
ssg71
g3592
sg64
(lp3599
S''
asbasbasbag57
(g73
g59
NtRp3600
(dp3601
g62
(dp3602
sg71
g3496
sg64
(lp3603
g57
(g78
g59
NtRp3604
(dp3605
g62
(dp3606
g82
g83
ssg71
g3600
sg64
(lp3607
g399
asbag57
(g78
g59
NtRp3608
(dp3609
g62
(dp3610
g89
g90
ssg71
g3600
sg64
(lp3611
S':'
asbag57
(g78
g59
NtRp3612
(dp3613
g62
(dp3614
sg71
g3600
sg64
(lp3615
g57
(g58
g59
NtRp3616
(dp3617
g62
(dp3618
g70
I3
ssg71
g3612
sg64
(lp3619
S'/'
asbasbasbag57
(g73
g59
NtRp3620
(dp3621
g62
(dp3622
sg71
g3496
sg64
(lp3623
g57
(g78
g59
NtRp3624
(dp3625
g62
(dp3626
g82
g83
ssg71
g3620
sg64
(lp3627
g420
asbag57
(g78
g59
NtRp3628
(dp3629
g62
(dp3630
g89
g90
ssg71
g3620
sg64
(lp3631
S':'
asbag57
(g78
g59
NtRp3632
(dp3633
g62
(dp3634
sg71
g3620
sg64
(lp3635
g57
(g58
g59
NtRp3636
(dp3637
g62
(dp3638
g70
I3
ssg71
g3632
sg64
(lp3639
S''
asbasbasbag57
(g73
g59
NtRp3640
(dp3641
g62
(dp3642
sg71
g3496
sg64
(lp3643
g57
(g78
g59
NtRp3644
(dp3645
g62
(dp3646
g82
g83
ssg71
g3640
sg64
(lp3647
g441
asbag57
(g78
g59
NtRp3648
(dp3649
g62
(dp3650
g89
g90
ssg71
g3640
sg64
(lp3651
S':'
asbag57
(g78
g59
NtRp3652
(dp3653
g62
(dp3654
sg71
g3640
sg64
(lp3655
g57
(g58
g59
NtRp3656
(dp3657
g62
(dp3658
g70
I3
ssg71
g3652
sg64
(lp3659
S''
asbasbasbasbasbasbasbasbasbasbasbag57
(g73
g59
NtRp3660
(dp3661
g62
(dp3662
sg71
g3426
sg64
(lp3663
g57
(g78
g59
NtRp3664
(dp3665
g62
(dp3666
g82
g83
ssg71
g3660
sg64
(lp3667
S'delimiters'
p3668
asbag57
(g78
g59
NtRp3669
(dp3670
g62
(dp3671
g89
g90
ssg71
g3660
sg64
(lp3672
S':'
asbag57
(g78
g59
NtRp3673
(dp3674
g62
(dp3675
sg71
g3660
sg64
(lp3676
g57
(g58
g59
NtRp3677
(dp3678
g62
(dp3679
g70
I5
ssg71
g3673
sg64
(lp3680
g57
(g66
g59
NtRp3681
(dp3682
g62
(dp3683
g70
I4
ssg71
Nsg64
(lp3684
g57
(g73
g59
NtRp3685
(dp3686
g62
(dp3687
sg71
g3681
sg64
(lp3688
g57
(g78
g59
NtRp3689
(dp3690
g62
(dp3691
sg71
g3685
sg64
(lp3692
g57
(g58
g59
NtRp3693
(dp3694
g62
(dp3695
g70
I4
ssg71
g3689
sg64
(lp3696
S'{{'
p3697
asbasbasbag57
(g73
g59
NtRp3698
(dp3699
g62
(dp3700
sg71
g3681
sg64
(lp3701
g57
(g78
g59
NtRp3702
(dp3703
g62
(dp3704
sg71
g3698
sg64
(lp3705
g57
(g58
g59
NtRp3706
(dp3707
g62
(dp3708
g70
I4
ssg71
g3702
sg64
(lp3709
S'}}'
p3710
asbasbasbasbasbasbasbag57
(g73
g59
NtRp3711
(dp3712
g62
(dp3713
sg71
g3426
sg64
(lp3714
g57
(g78
g59
NtRp3715
(dp3716
g62
(dp3717
g82
g83
ssg71
g3711
sg64
(lp3718
S'files'
p3719
asbag57
(g78
g59
NtRp3720
(dp3721
g62
(dp3722
g89
g90
ssg71
g3711
sg64
(lp3723
S':'
asbag57
(g78
g59
NtRp3724
(dp3725
g62
(dp3726
sg71
g3711
sg64
(lp3727
g57
(g58
g59
NtRp3728
(dp3729
g62
(dp3730
g70
I5
ssg71
g3724
sg64
(lp3731
g57
(g66
g59
NtRp3732
(dp3733
g62
(dp3734
g70
I4
ssg71
Nsg64
(lp3735
sbasbasbasbag57
(g73
g59
NtRp3736
(dp3737
g62
(dp3738
sg71
g3426
sg64
(lp3739
g57
(g78
g59
NtRp3740
(dp3741
g62
(dp3742
g82
g83
ssg71
g3736
sg64
(lp3743
S'flash'
p3744
asbag57
(g78
g59
NtRp3745
(dp3746
g62
(dp3747
g89
g90
ssg71
g3736
sg64
(lp3748
S':'
asbag57
(g78
g59
NtRp3749
(dp3750
g62
(dp3751
sg71
g3736
sg64
(lp3752
g57
(g58
g59
NtRp3753
(dp3754
g62
(dp3755
g70
I5
ssg71
g3749
sg64
(lp3756
S''
asbasbasbag57
(g73
g59
NtRp3757
(dp3758
g62
(dp3759
sg71
g3426
sg64
(lp3760
g57
(g78
g59
NtRp3761
(dp3762
g62
(dp3763
g82
g83
ssg71
g3757
sg64
(lp3764
S'generic_patterns'
p3765
asbag57
(g78
g59
NtRp3766
(dp3767
g62
(dp3768
g89
g90
ssg71
g3757
sg64
(lp3769
S':'
asbag57
(g78
g59
NtRp3770
(dp3771
g62
(dp3772
sg71
g3757
sg64
(lp3773
g57
(g58
g59
NtRp3774
(dp3775
g62
(dp3776
g70
I5
ssg71
g3770
sg64
(lp3777
g57
(g66
g59
NtRp3778
(dp3779
g62
(dp3780
g70
I4
ssg71
Nsg64
(lp3781
g57
(g73
g59
NtRp3782
(dp3783
g62
(dp3784
sg71
g3778
sg64
(lp3785
g57
(g78
g59
NtRp3786
(dp3787
g62
(dp3788
sg71
g3782
sg64
(lp3789
g57
(g58
g59
NtRp3790
(dp3791
g62
(dp3792
g70
I4
ssg71
g3786
sg64
(lp3793
S'*'
asbasbasbasbasbasbasbag57
(g73
g59
NtRp3794
(dp3795
g62
(dp3796
sg71
g3426
sg64
(lp3797
g57
(g78
g59
NtRp3798
(dp3799
g62
(dp3800
g82
g83
ssg71
g3794
sg64
(lp3801
S'google_analytics_id'
p3802
asbag57
(g78
g59
NtRp3803
(dp3804
g62
(dp3805
g89
g90
ssg71
g3794
sg64
(lp3806
S':'
asbag57
(g78
g59
NtRp3807
(dp3808
g62
(dp3809
sg71
g3794
sg64
(lp3810
g57
(g58
g59
NtRp3811
(dp3812
g62
(dp3813
g70
I5
ssg71
g3807
sg64
(lp3814
S'None'
p3815
asbasbasbag57
(g73
g59
NtRp3816
(dp3817
g62
(dp3818
sg71
g3426
sg64
(lp3819
g57
(g78
g59
NtRp3820
(dp3821
g62
(dp3822
g82
g83
ssg71
g3816
sg64
(lp3823
S'headers'
p3824
asbag57
(g78
g59
NtRp3825
(dp3826
g62
(dp3827
g89
g90
ssg71
g3816
sg64
(lp3828
S':'
asbag57
(g78
g59
NtRp3829
(dp3830
g62
(dp3831
sg71
g3816
sg64
(lp3832
g57
(g58
g59
NtRp3833
(dp3834
g62
(dp3835
g70
I5
ssg71
g3829
sg64
(lp3836
g57
(g66
g59
NtRp3837
(dp3838
g62
(dp3839
g70
I4
ssg71
Nsg64
(lp3840
g57
(g73
g59
NtRp3841
(dp3842
g62
(dp3843
sg71
g3837
sg64
(lp3844
g57
(g78
g59
NtRp3845
(dp3846
g62
(dp3847
g82
g83
ssg71
g3841
sg64
(lp3848
S'X-Powered-By'
p3849
asbag57
(g78
g59
NtRp3850
(dp3851
g62
(dp3852
g89
g90
ssg71
g3841
sg64
(lp3853
S':'
asbag57
(g78
g59
NtRp3854
(dp3855
g62
(dp3856
sg71
g3841
sg64
(lp3857
g57
(g58
g59
NtRp3858
(dp3859
g62
(dp3860
g70
I4
ssg71
g3854
sg64
(lp3861
S'web2py'
p3862
asbasbasbasbasbasbasbag57
(g73
g59
NtRp3863
(dp3864
g62
(dp3865
sg71
g3426
sg64
(lp3866
g57
(g78
g59
NtRp3867
(dp3868
g62
(dp3869
g82
g83
ssg71
g3863
sg64
(lp3870
S'js'
p3871
asbag57
(g78
g59
NtRp3872
(dp3873
g62
(dp3874
g89
g90
ssg71
g3863
sg64
(lp3875
S':'
asbag57
(g78
g59
NtRp3876
(dp3877
g62
(dp3878
sg71
g3863
sg64
(lp3879
g57
(g58
g59
NtRp3880
(dp3881
g62
(dp3882
g70
I5
ssg71
g3876
sg64
(lp3883
S';(function ($) {\nvar srcs = $(\'script\').map(function(){return $(this).attr(\'src\');}),\n    hrefs = $(\'link\').map(function(){return $(this).attr(\'href\');});\n$.each([\'/hw4/static/plugin_uploadify_widget/uploadify.css\',\'/hw4/static/plugin_uploadify_widget/swfobject.js\',\'/hw4/static/plugin_uploadify_widget/jquery.uploadify.v2.1.4.min.js\',\'/hw4/static/plugin_uploadify_widget/uploadify.css\'], function() {\n    if ((this.slice(-3) == \'.js\') && ($.inArray(this.toString(), srcs) == -1)) {\n        var el = document.createElement(\'script\'); el.type = \'text/javascript\'; el.src = this;\n        document.body.appendChild(el);\n    } else if ((this.slice(-4) == \'.css\') && ($.inArray(this.toString(), hrefs) == -1)) {\n        $(\'<link rel="stylesheet" type="text/css" href="\' + this + \'" />\').prependTo(\'head\');\n        if (/* for IE */ document.createStyleSheet){document.createStyleSheet(this);}\n}});})(jQuery);'
p3884
asbasbasbag57
(g73
g59
NtRp3885
(dp3886
g62
(dp3887
sg71
g3426
sg64
(lp3888
g57
(g78
g59
NtRp3889
(dp3890
g62
(dp3891
g82
g83
ssg71
g3885
sg64
(lp3892
S'logo'
p3893
asbag57
(g78
g59
NtRp3894
(dp3895
g62
(dp3896
g89
g90
ssg71
g3885
sg64
(lp3897
S':'
asbag57
(g78
g59
NtRp3898
(dp3899
g62
(dp3900
sg71
g3885
sg64
(lp3901
g57
(g58
g59
NtRp3902
(dp3903
g62
(dp3904
g70
I5
ssg71
g3898
sg64
(lp3905
g57
(cgluon.html
A
p3906
g59
NtRp3907
(dp3908
g62
(dp3909
S'_class'
p3910
S'brand'
p3911
sS'_href'
p3912
S'http://www.ningwai.net/'
p3913
ssg71
Nsg64
(lp3914
g57
(cgluon.html
B
p3915
g59
NtRp3916
(dp3917
g62
(dp3918
sg71
g3907
sg64
(lp3919
S'ningwai'
p3920
asbacgluon.html
XML_unpickle
p3921
(S's\r\x00\x00\x00&trade;&nbsp;'
tRp3922
asbasbasbasbag57
(g73
g59
NtRp3923
(dp3924
g62
(dp3925
sg71
g3426
sg64
(lp3926
g57
(g78
g59
NtRp3927
(dp3928
g62
(dp3929
g82
g83
ssg71
g3923
sg64
(lp3930
S'menu'
p3931
asbag57
(g78
g59
NtRp3932
(dp3933
g62
(dp3934
g89
g90
ssg71
g3923
sg64
(lp3935
S':'
asbag57
(g78
g59
NtRp3936
(dp3937
g62
(dp3938
sg71
g3923
sg64
(lp3939
g57
(g58
g59
NtRp3940
(dp3941
g62
(dp3942
g70
I5
ssg71
g3936
sg64
(lp3943
g57
(g66
g59
NtRp3944
(dp3945
g62
(dp3946
g70
I4
ssg71
Nsg64
(lp3947
g57
(g73
g59
NtRp3948
(dp3949
g62
(dp3950
sg71
g3944
sg64
(lp3951
g57
(g78
g59
NtRp3952
(dp3953
g62
(dp3954
sg71
g3948
sg64
(lp3955
g57
(g58
g59
NtRp3956
(dp3957
g62
(dp3958
g70
I4
ssg71
g3952
sg64
(lp3959
g57
(g66
g59
NtRp3960
(dp3961
g62
(dp3962
g70
I3
ssg71
Nsg64
(lp3963
g57
(g73
g59
NtRp3964
(dp3965
g62
(dp3966
sg71
g3960
sg64
(lp3967
g57
(g78
g59
NtRp3968
(dp3969
g62
(dp3970
sg71
g3964
sg64
(lp3971
g57
(g58
g59
NtRp3972
(dp3973
g62
(dp3974
g70
I3
ssg71
g3968
sg64
(lp3975
cgluon.languages
lazyT_unpickle
p3976
(S's\x04\x00\x00\x00Home'
tRp3977
asbasbasbag57
(g73
g59
NtRp3978
(dp3979
g62
(dp3980
sg71
g3960
sg64
(lp3981
g57
(g78
g59
NtRp3982
(dp3983
g62
(dp3984
sg71
g3978
sg64
(lp3985
g57
(g58
g59
NtRp3986
(dp3987
g62
(dp3988
g70
I3
ssg71
g3982
sg64
(lp3989
g985
asbasbasbag57
(g73
g59
NtRp3990
(dp3991
g62
(dp3992
sg71
g3960
sg64
(lp3993
g57
(g78
g59
NtRp3994
(dp3995
g62
(dp3996
sg71
g3990
sg64
(lp3997
g57
(g58
g59
NtRp3998
(dp3999
g62
(dp4000
g70
I3
ssg71
g3994
sg64
(lp4001
S'/hw4/default/index'
p4002
asbasbasbag57
(g73
g59
NtRp4003
(dp4004
g62
(dp4005
sg71
g3960
sg64
(lp4006
g57
(g78
g59
NtRp4007
(dp4008
g62
(dp4009
sg71
g4003
sg64
(lp4010
g57
(g58
g59
NtRp4011
(dp4012
g62
(dp4013
g70
I3
ssg71
g4007
sg64
(lp4014
g57
(g66
g59
NtRp4015
(dp4016
g62
(dp4017
g70
I2
ssg71
Nsg64
(lp4018
sbasbasbasbasbasbasbasbag57
(g73
g59
NtRp4019
(dp4020
g62
(dp4021
sg71
g3944
sg64
(lp4022
g57
(g78
g59
NtRp4023
(dp4024
g62
(dp4025
sg71
g4019
sg64
(lp4026
g57
(g58
g59
NtRp4027
(dp4028
g62
(dp4029
g70
I4
ssg71
g4023
sg64
(lp4030
g57
(g66
g59
NtRp4031
(dp4032
g62
(dp4033
g70
I3
ssg71
Nsg64
(lp4034
g57
(g73
g59
NtRp4035
(dp4036
g62
(dp4037
sg71
g4031
sg64
(lp4038
g57
(g78
g59
NtRp4039
(dp4040
g62
(dp4041
sg71
g4035
sg64
(lp4042
g57
(g58
g59
NtRp4043
(dp4044
g62
(dp4045
g70
I3
ssg71
g4039
sg64
(lp4046
S'\xe4\xbd\x9c\xe4\xb8\x9a\xe6\x8f\x90\xe4\xba\xa4\xe7\xb3\xbb\xe7\xbb\x9f'
p4047
asbasbasbag57
(g73
g59
NtRp4048
(dp4049
g62
(dp4050
sg71
g4031
sg64
(lp4051
g57
(g78
g59
NtRp4052
(dp4053
g62
(dp4054
sg71
g4048
sg64
(lp4055
g57
(g58
g59
NtRp4056
(dp4057
g62
(dp4058
g70
I3
ssg71
g4052
sg64
(lp4059
g985
asbasbasbag57
(g73
g59
NtRp4060
(dp4061
g62
(dp4062
sg71
g4031
sg64
(lp4063
g57
(g78
g59
NtRp4064
(dp4065
g62
(dp4066
sg71
g4060
sg64
(lp4067
g57
(g58
g59
NtRp4068
(dp4069
g62
(dp4070
g70
I3
ssg71
g4064
sg64
(lp4071
S'/hw4/default/course_list'
p4072
asbasbasbag57
(g73
g59
NtRp4073
(dp4074
g62
(dp4075
sg71
g4031
sg64
(lp4076
g57
(g78
g59
NtRp4077
(dp4078
g62
(dp4079
sg71
g4073
sg64
(lp4080
g57
(g58
g59
NtRp4081
(dp4082
g62
(dp4083
g70
I3
ssg71
g4077
sg64
(lp4084
g57
(g66
g59
NtRp4085
(dp4086
g62
(dp4087
g70
I2
ssg71
Nsg64
(lp4088
sbasbasbasbasbasbasbasbasbasbasbasbag57
(g73
g59
NtRp4089
(dp4090
g62
(dp4091
sg71
g3426
sg64
(lp4092
g57
(g78
g59
NtRp4093
(dp4094
g62
(dp4095
g82
g83
ssg71
g4089
sg64
(lp4096
S'meta'
p4097
asbag57
(g78
g59
NtRp4098
(dp4099
g62
(dp4100
g89
g90
ssg71
g4089
sg64
(lp4101
S':'
asbag57
(g78
g59
NtRp4102
(dp4103
g62
(dp4104
sg71
g4089
sg64
(lp4105
g57
(g58
g59
NtRp4106
(dp4107
g62
(dp4108
g70
I5
ssg71
g4102
sg64
(lp4109
g57
(g66
g59
NtRp4110
(dp4111
g62
(dp4112
g70
I4
ssg71
Nsg64
(lp4113
g57
(g73
g59
NtRp4114
(dp4115
g62
(dp4116
sg71
g4110
sg64
(lp4117
g57
(g78
g59
NtRp4118
(dp4119
g62
(dp4120
g82
g83
ssg71
g4114
sg64
(lp4121
S'author'
p4122
asbag57
(g78
g59
NtRp4123
(dp4124
g62
(dp4125
g89
g90
ssg71
g4114
sg64
(lp4126
S':'
asbag57
(g78
g59
NtRp4127
(dp4128
g62
(dp4129
sg71
g4114
sg64
(lp4130
g57
(g58
g59
NtRp4131
(dp4132
g62
(dp4133
g70
I4
ssg71
g4127
sg64
(lp4134
S''
asbasbasbag57
(g73
g59
NtRp4135
(dp4136
g62
(dp4137
sg71
g4110
sg64
(lp4138
g57
(g78
g59
NtRp4139
(dp4140
g62
(dp4141
g82
g83
ssg71
g4135
sg64
(lp4142
S'description'
p4143
asbag57
(g78
g59
NtRp4144
(dp4145
g62
(dp4146
g89
g90
ssg71
g4135
sg64
(lp4147
S':'
asbag57
(g78
g59
NtRp4148
(dp4149
g62
(dp4150
sg71
g4135
sg64
(lp4151
g57
(g58
g59
NtRp4152
(dp4153
g62
(dp4154
g70
I4
ssg71
g4148
sg64
(lp4155
S''
asbasbasbag57
(g73
g59
NtRp4156
(dp4157
g62
(dp4158
sg71
g4110
sg64
(lp4159
g57
(g78
g59
NtRp4160
(dp4161
g62
(dp4162
g82
g83
ssg71
g4156
sg64
(lp4163
S'generator'
p4164
asbag57
(g78
g59
NtRp4165
(dp4166
g62
(dp4167
g89
g90
ssg71
g4156
sg64
(lp4168
S':'
asbag57
(g78
g59
NtRp4169
(dp4170
g62
(dp4171
sg71
g4156
sg64
(lp4172
g57
(g58
g59
NtRp4173
(dp4174
g62
(dp4175
g70
I4
ssg71
g4169
sg64
(lp4176
S''
asbasbasbag57
(g73
g59
NtRp4177
(dp4178
g62
(dp4179
sg71
g4110
sg64
(lp4180
g57
(g78
g59
NtRp4181
(dp4182
g62
(dp4183
g82
g83
ssg71
g4177
sg64
(lp4184
S'keywords'
p4185
asbag57
(g78
g59
NtRp4186
(dp4187
g62
(dp4188
g89
g90
ssg71
g4177
sg64
(lp4189
S':'
asbag57
(g78
g59
NtRp4190
(dp4191
g62
(dp4192
sg71
g4177
sg64
(lp4193
g57
(g58
g59
NtRp4194
(dp4195
g62
(dp4196
g70
I4
ssg71
g4190
sg64
(lp4197
S''
asbasbasbasbasbasbasbag57
(g73
g59
NtRp4198
(dp4199
g62
(dp4200
sg71
g3426
sg64
(lp4201
g57
(g78
g59
NtRp4202
(dp4203
g62
(dp4204
g82
g83
ssg71
g4198
sg64
(lp4205
S'models_to_run'
p4206
asbag57
(g78
g59
NtRp4207
(dp4208
g62
(dp4209
g89
g90
ssg71
g4198
sg64
(lp4210
S':'
asbag57
(g78
g59
NtRp4211
(dp4212
g62
(dp4213
sg71
g4198
sg64
(lp4214
g57
(g58
g59
NtRp4215
(dp4216
g62
(dp4217
g70
I5
ssg71
g4211
sg64
(lp4218
g57
(g66
g59
NtRp4219
(dp4220
g62
(dp4221
g70
I4
ssg71
Nsg64
(lp4222
g57
(g73
g59
NtRp4223
(dp4224
g62
(dp4225
sg71
g4219
sg64
(lp4226
g57
(g78
g59
NtRp4227
(dp4228
g62
(dp4229
sg71
g4223
sg64
(lp4230
g57
(g58
g59
NtRp4231
(dp4232
g62
(dp4233
g70
I4
ssg71
g4227
sg64
(lp4234
S'^\\w+\\.py$'
p4235
asbasbasbag57
(g73
g59
NtRp4236
(dp4237
g62
(dp4238
sg71
g4219
sg64
(lp4239
g57
(g78
g59
NtRp4240
(dp4241
g62
(dp4242
sg71
g4236
sg64
(lp4243
g57
(g58
g59
NtRp4244
(dp4245
g62
(dp4246
g70
I4
ssg71
g4240
sg64
(lp4247
S'^plugin_elrte_widget/\\w+\\.py$'
p4248
asbasbasbag57
(g73
g59
NtRp4249
(dp4250
g62
(dp4251
sg71
g4219
sg64
(lp4252
g57
(g78
g59
NtRp4253
(dp4254
g62
(dp4255
sg71
g4249
sg64
(lp4256
g57
(g58
g59
NtRp4257
(dp4258
g62
(dp4259
g70
I4
ssg71
g4253
sg64
(lp4260
S'^plugin_elrte_widget/file_upload_or_choose/\\w+\\.py$'
p4261
asbasbasbasbasbasbasbag57
(g73
g59
NtRp4262
(dp4263
g62
(dp4264
sg71
g3426
sg64
(lp4265
g57
(g78
g59
NtRp4266
(dp4267
g62
(dp4268
g82
g83
ssg71
g4262
sg64
(lp4269
S'postprocessing'
p4270
asbag57
(g78
g59
NtRp4271
(dp4272
g62
(dp4273
g89
g90
ssg71
g4262
sg64
(lp4274
S':'
asbag57
(g78
g59
NtRp4275
(dp4276
g62
(dp4277
sg71
g4262
sg64
(lp4278
g57
(g58
g59
NtRp4279
(dp4280
g62
(dp4281
g70
I5
ssg71
g4275
sg64
(lp4282
g57
(g66
g59
NtRp4283
(dp4284
g62
(dp4285
g70
I4
ssg71
Nsg64
(lp4286
sbasbasbasbag57
(g73
g59
NtRp4287
(dp4288
g62
(dp4289
sg71
g3426
sg64
(lp4290
g57
(g78
g59
NtRp4291
(dp4292
g62
(dp4293
g82
g83
ssg71
g4287
sg64
(lp4294
S'session_cookie_expires'
p4295
asbag57
(g78
g59
NtRp4296
(dp4297
g62
(dp4298
g89
g90
ssg71
g4287
sg64
(lp4299
S':'
asbag57
(g78
g59
NtRp4300
(dp4301
g62
(dp4302
sg71
g4287
sg64
(lp4303
g57
(g58
g59
NtRp4304
(dp4305
g62
(dp4306
g70
I5
ssg71
g4300
sg64
(lp4307
S'None'
p4308
asbasbasbag57
(g73
g59
NtRp4309
(dp4310
g62
(dp4311
sg71
g3426
sg64
(lp4312
g57
(g78
g59
NtRp4313
(dp4314
g62
(dp4315
g82
g83
ssg71
g4309
sg64
(lp4316
S'session_data_name'
p4317
asbag57
(g78
g59
NtRp4318
(dp4319
g62
(dp4320
g89
g90
ssg71
g4309
sg64
(lp4321
S':'
asbag57
(g78
g59
NtRp4322
(dp4323
g62
(dp4324
sg71
g4309
sg64
(lp4325
g57
(g58
g59
NtRp4326
(dp4327
g62
(dp4328
g70
I5
ssg71
g4322
sg64
(lp4329
S'session_data_hw4'
p4330
asbasbasbag57
(g73
g59
NtRp4331
(dp4332
g62
(dp4333
sg71
g3426
sg64
(lp4334
g57
(g78
g59
NtRp4335
(dp4336
g62
(dp4337
g82
g83
ssg71
g4331
sg64
(lp4338
S'session_file'
p4339
asbag57
(g78
g59
NtRp4340
(dp4341
g62
(dp4342
g89
g90
ssg71
g4331
sg64
(lp4343
S':'
asbag57
(g78
g59
NtRp4344
(dp4345
g62
(dp4346
sg71
g4331
sg64
(lp4347
g57
(g58
g59
NtRp4348
(dp4349
g62
(dp4350
g70
I5
ssg71
g4344
sg64
(lp4351
S"<open file 'D:\\My Documents\\Documents\\Aptana Studio 3 Workspace\\hw2\\applications\\hw4\\sessions\\127.0.0.1-181e70b6-28ab-405f-bb11-c9eeb9b68ae3', mode 'rb+' at 0x05031F40>"
p4352
asbasbasbag57
(g73
g59
NtRp4353
(dp4354
g62
(dp4355
sg71
g3426
sg64
(lp4356
g57
(g78
g59
NtRp4357
(dp4358
g62
(dp4359
g82
g83
ssg71
g4353
sg64
(lp4360
S'session_filename'
p4361
asbag57
(g78
g59
NtRp4362
(dp4363
g62
(dp4364
g89
g90
ssg71
g4353
sg64
(lp4365
S':'
asbag57
(g78
g59
NtRp4366
(dp4367
g62
(dp4368
sg71
g4353
sg64
(lp4369
g57
(g58
g59
NtRp4370
(dp4371
g62
(dp4372
g70
I5
ssg71
g4366
sg64
(lp4373
S'D:\\My Documents\\Documents\\Aptana Studio 3 Workspace\\hw2\\applications\\hw4\\sessions\\127.0.0.1-181e70b6-28ab-405f-bb11-c9eeb9b68ae3'
p4374
asbasbasbag57
(g73
g59
NtRp4375
(dp4376
g62
(dp4377
sg71
g3426
sg64
(lp4378
g57
(g78
g59
NtRp4379
(dp4380
g62
(dp4381
g82
g83
ssg71
g4375
sg64
(lp4382
S'session_id'
p4383
asbag57
(g78
g59
NtRp4384
(dp4385
g62
(dp4386
g89
g90
ssg71
g4375
sg64
(lp4387
S':'
asbag57
(g78
g59
NtRp4388
(dp4389
g62
(dp4390
sg71
g4375
sg64
(lp4391
g57
(g58
g59
NtRp4392
(dp4393
g62
(dp4394
g70
I5
ssg71
g4388
sg64
(lp4395
g475
asbasbasbag57
(g73
g59
NtRp4396
(dp4397
g62
(dp4398
sg71
g3426
sg64
(lp4399
g57
(g78
g59
NtRp4400
(dp4401
g62
(dp4402
g82
g83
ssg71
g4396
sg64
(lp4403
S'session_id_name'
p4404
asbag57
(g78
g59
NtRp4405
(dp4406
g62
(dp4407
g89
g90
ssg71
g4396
sg64
(lp4408
S':'
asbag57
(g78
g59
NtRp4409
(dp4410
g62
(dp4411
sg71
g4396
sg64
(lp4412
g57
(g58
g59
NtRp4413
(dp4414
g62
(dp4415
g70
I5
ssg71
g4409
sg64
(lp4416
g3483
asbasbasbag57
(g73
g59
NtRp4417
(dp4418
g62
(dp4419
sg71
g3426
sg64
(lp4420
g57
(g78
g59
NtRp4421
(dp4422
g62
(dp4423
g82
g83
ssg71
g4417
sg64
(lp4424
S'session_locked'
p4425
asbag57
(g78
g59
NtRp4426
(dp4427
g62
(dp4428
g89
g90
ssg71
g4417
sg64
(lp4429
S':'
asbag57
(g78
g59
NtRp4430
(dp4431
g62
(dp4432
sg71
g4417
sg64
(lp4433
g57
(g58
g59
NtRp4434
(dp4435
g62
(dp4436
g70
I5
ssg71
g4430
sg64
(lp4437
g100
asbasbasbag57
(g73
g59
NtRp4438
(dp4439
g62
(dp4440
sg71
g3426
sg64
(lp4441
g57
(g78
g59
NtRp4442
(dp4443
g62
(dp4444
g82
g83
ssg71
g4438
sg64
(lp4445
S'session_new'
p4446
asbag57
(g78
g59
NtRp4447
(dp4448
g62
(dp4449
g89
g90
ssg71
g4438
sg64
(lp4450
S':'
asbag57
(g78
g59
NtRp4451
(dp4452
g62
(dp4453
sg71
g4438
sg64
(lp4454
g57
(g58
g59
NtRp4455
(dp4456
g62
(dp4457
g70
I5
ssg71
g4451
sg64
(lp4458
g985
asbasbasbag57
(g73
g59
NtRp4459
(dp4460
g62
(dp4461
sg71
g3426
sg64
(lp4462
g57
(g78
g59
NtRp4463
(dp4464
g62
(dp4465
g82
g83
ssg71
g4459
sg64
(lp4466
S'session_storage_type'
p4467
asbag57
(g78
g59
NtRp4468
(dp4469
g62
(dp4470
g89
g90
ssg71
g4459
sg64
(lp4471
S':'
asbag57
(g78
g59
NtRp4472
(dp4473
g62
(dp4474
sg71
g4459
sg64
(lp4475
g57
(g58
g59
NtRp4476
(dp4477
g62
(dp4478
g70
I5
ssg71
g4472
sg64
(lp4479
g3328
asbasbasbag57
(g73
g59
NtRp4480
(dp4481
g62
(dp4482
sg71
g3426
sg64
(lp4483
g57
(g78
g59
NtRp4484
(dp4485
g62
(dp4486
g82
g83
ssg71
g4480
sg64
(lp4487
S'status'
p4488
asbag57
(g78
g59
NtRp4489
(dp4490
g62
(dp4491
g89
g90
ssg71
g4480
sg64
(lp4492
S':'
asbag57
(g78
g59
NtRp4493
(dp4494
g62
(dp4495
sg71
g4480
sg64
(lp4496
g57
(g58
g59
NtRp4497
(dp4498
g62
(dp4499
g70
I5
ssg71
g4493
sg64
(lp4500
S'200'
p4501
asbasbasbag57
(g73
g59
NtRp4502
(dp4503
g62
(dp4504
sg71
g3426
sg64
(lp4505
g57
(g78
g59
NtRp4506
(dp4507
g62
(dp4508
g82
g83
ssg71
g4502
sg64
(lp4509
S'subtitle'
p4510
asbag57
(g78
g59
NtRp4511
(dp4512
g62
(dp4513
g89
g90
ssg71
g4502
sg64
(lp4514
S':'
asbag57
(g78
g59
NtRp4515
(dp4516
g62
(dp4517
sg71
g4502
sg64
(lp4518
g57
(g58
g59
NtRp4519
(dp4520
g62
(dp4521
g70
I5
ssg71
g4515
sg64
(lp4522
g3976
(S't\x00\x00\x00\x00'
tRp4523
asbasbasbag57
(g73
g59
NtRp4524
(dp4525
g62
(dp4526
sg71
g3426
sg64
(lp4527
g57
(g78
g59
NtRp4528
(dp4529
g62
(dp4530
g82
g83
ssg71
g4524
sg64
(lp4531
S'title'
p4532
asbag57
(g78
g59
NtRp4533
(dp4534
g62
(dp4535
g89
g90
ssg71
g4524
sg64
(lp4536
S':'
asbag57
(g78
g59
NtRp4537
(dp4538
g62
(dp4539
sg71
g4524
sg64
(lp4540
g57
(g58
g59
NtRp4541
(dp4542
g62
(dp4543
g70
I5
ssg71
g4537
sg64
(lp4544
S'\xe5\xae\x81\xe6\xb3\xa2\xe5\xa4\x96\xe5\x9b\xbd\xe8\xaf\xad\xe5\xad\xa6\xe6\xa0\xa1\xe4\xbf\xa1\xe6\x81\xaf\xe6\x8a\x80\xe6\x9c\xaf\xe8\xaf\xbe'
p4545
asbasbasbag57
(g73
g59
NtRp4546
(dp4547
g62
(dp4548
sg71
g3426
sg64
(lp4549
g57
(g78
g59
NtRp4550
(dp4551
g62
(dp4552
g82
g83
ssg71
g4546
sg64
(lp4553
S'view'
p4554
asbag57
(g78
g59
NtRp4555
(dp4556
g62
(dp4557
g89
g90
ssg71
g4546
sg64
(lp4558
S':'
asbag57
(g78
g59
NtRp4559
(dp4560
g62
(dp4561
sg71
g4546
sg64
(lp4562
g57
(g58
g59
NtRp4563
(dp4564
g62
(dp4565
g70
I5
ssg71
g4559
sg64
(lp4566
S'plugin_elrte_widget/file_upload_or_choose.html'
p4567
asbasbasbasbasbsS'locals'
p4568
(dp4569
S'info'
p4570
S"''"
p4571
sS'_get_icon'
p4572
S'<function _get_icon>'
p4573
sS'form'
p4574
S'<gluon.sqlhtml.SQLFORM object>'
p4575
sssS'traceback'
p4576
S'Traceback (most recent call last):\n  File "D:\\My Documents\\Documents\\Aptana Studio 3 Workspace\\hw2\\gluon\\restricted.py", line 212, in restricted\n    exec ccode in environment\n  File "D:\\My Documents\\Documents\\Aptana Studio 3 Workspace\\hw2\\applications\\hw4\\controllers/plugin_elrte_widget.py", line 106, in <module>\n  File "D:\\My Documents\\Documents\\Aptana Studio 3 Workspace\\hw2\\gluon\\globals.py", line 193, in <lambda>\n    self._caller = lambda f: f()\n  File "D:\\My Documents\\Documents\\Aptana Studio 3 Workspace\\hw2\\applications\\hw4\\controllers/plugin_elrte_widget.py", line 94, in file_upload_or_choose\n    records = disk_db(file_table.id > 0).select(orderby=~file_table.id, limitby=(0, 3))\nNameError: global name \'disk_db\' is not defined\n'
p4577
s.