(dp1
S'output'
p2
S"<type 'exceptions.SyntaxError'> invalid syntax (db.py, line 151)"
p3
sS'layer'
p4
S'C:\\Python27\\web2py\\applications\\hw4\\models\\db.py'
p5
sS'code'
p6
S"# -*- coding: utf-8 -*-\n\n#########################################################################\n## This scaffolding model makes your app work on Google App Engine too\n## File is released under public domain and you can use without limitations\n#########################################################################\n\n## if SSL/HTTPS is properly configured and you want all HTTP requests to\n## be redirected to HTTPS, uncomment the line below:\n# request.requires_https()\n\nif not request.env.web2py_runtime_gae:\n    ## if NOT running on Google App Engine use SQLite or other DB\n    db = DAL('sqlite://storage.sqlite',pool_size=1,check_reserved=['all'])\nelse:\n    ## connect to Google BigTable (optional 'google:datastore://namespace')\n    db = DAL('google:datastore')\n    ## store sessions and tickets there\n    session.connect(request, response, db=db)\n    ## or store session in Memcache, Redis, etc.\n    ## from gluon.contrib.memdb import MEMDB\n    ## from google.appengine.api.memcache import Client\n    ## session.connect(request, response, db = MEMDB(Client()))\n\n## by default give a view/generic.extension to all actions from localhost\n## none otherwise. a pattern can be 'controller/function.extension'\nresponse.generic_patterns = ['*'] if request.is_local else []\n## (optional) optimize handling of static files\n# response.optimize_css = 'concat,minify,inline'\n# response.optimize_js = 'concat,minify,inline'\n\n#########################################################################\n## Here is sample code if you need for\n## - email capabilities\n## - authentication (registration, login, logout, ... )\n## - authorization (role based authorization)\n## - services (xml, csv, json, xmlrpc, jsonrpc, amf, rss)\n## - old style crud actions\n## (more options discussed in gluon/tools.py)\n#########################################################################\n\nfrom gluon.tools import Auth, Crud, Service, PluginManager, prettydate\nauth = Auth(db)\ncrud, service, plugins = Crud(db), Service(), PluginManager()\nauth.settings.extra_fields['auth_user']= [\n  Field('jie',label='\xe5\xb1\x8a'),\n  Field('banji',label='\xe7\x8f\xad\xe7\xba\xa7')\n]\nauth.define_tables()\ndb.auth_user.first_name.label='\xe5\xa7\x93\xe5\x90\x8d'\ndb.auth_user.last_name.label='\xe5\xad\xa6\xe5\x8f\xb7'\ndb.auth_user.first_name.requires=IS_NOT_EMPTY()\ndb.auth_user.last_name.requires=[IS_NOT_EMPTY(),IS_MATCH('\\d\\d',error_message='two number:like 11,02')]\ndb.auth_user.jie.requires=[IS_NOT_EMPTY(),IS_MATCH('\\d\\d',error_message='two number:like 11,02')]\ndb.auth_user.banji.requires=[IS_NOT_EMPTY(),IS_MATCH('\\d\\d',error_message='two number:like 11,02')]\n\n## create all tables needed by auth if not custom tables\nauth.define_tables(username=False, signature=False)\n\n## configure email\nmail = auth.settings.mailer\nmail.settings.server = 'logging' or 'smtp.gmail.com:587'\nmail.settings.sender = 'you@gmail.com'\nmail.settings.login = 'username:password'\n\n## configure auth policy\nauth.settings.registration_requires_verification = False\nauth.settings.registration_requires_approval = False\nauth.settings.reset_password_requires_verification = True\nauth.settings.actions_disabled = ['profile']\n## if you need to use OpenID, Facebook, MySpace, Twitter, Linkedin, etc.\n## register with janrain.com, write your domain:api_key in private/janrain.key\nfrom gluon.contrib.login_methods.rpx_account import use_janrain\nuse_janrain(auth, filename='private/janrain.key')\n\n#########################################################################\n## Define your tables below (or better in another model file) for example\n##\n## >>> db.define_table('mytable',Field('myfield','string'))\n##\n## Fields can be 'string','text','password','integer','double','boolean'\n##       'date','time','datetime','blob','upload', 'reference TABLENAME'\n## There is an implicit 'id integer autoincrement' field\n## Consult manual for more options, validators, etc.\n##\n## More API examples for controllers:\n##\n## >>> db.mytable.insert(myfield='value')\n## >>> rows=db(db.mytable.myfield=='value').select(db.mytable.ALL)\n## >>> for row in rows: print row.id, row.myfield\n#########################################################################\n\n## after defining tables, uncomment below to enable auditing\n# auth.enable_record_versioning(db)\nMAX_UPLOAD_FILESIZE=50000000\nNETDISK_SIZE=100000000\n\n\nimport os\ndb.define_table('course',\n                Field('title',requires=IS_NOT_EMPTY(),label='\xe5\x90\x8d\xe7\xa7\xb0'),\n                Field('nianji',requires=IS_IN_SET([1,2]),label='\xe5\xb9\xb4\xe7\xba\xa7'),\n                Field('xueqi',requires=IS_IN_SET([1,2]),label='\xe5\xad\xa6\xe6\x9c\x9f'),\n                Field('neirong','text',label='\xe5\x86\x85\xe5\xae\xb9'),\n                Field('kejian','upload',\n                      uploadfolder=os.path.join(request.folder,'uploads/kejian'),\n                      autodelete=True,label='\xe8\xaf\xbe\xe4\xbb\xb6'),\n                format='%(nianji)s-%(xueqi)s:%(title)s')\n\ndb.define_table('keshi',\n                Field('xuenian',requires=IS_MATCH('\\d\\d'),label='\xe5\xad\xa6\xe5\xb9\xb4'),\n                Field('xueqi',requires=IS_NOT_EMPTY(),label='\xe5\xad\xa6\xe6\x9c\x9f'),\n                Field('nianji',requires=IS_IN_SET([1,2]),label='\xe5\xb9\xb4\xe7\xba\xa7'),\n                Field('keshi',requires=IS_NOT_EMPTY(),label='\xe8\xaf\xbe\xe6\x97\xb6'),\n                Field('kecheng',db.course,label='\xe8\xaf\xbe\xe7\xa8\x8b'),\n                Field('haszuoye','boolean',default=True),\n                format='%(xuenian)s-%(xueqi)s.%(nianji)s:%(keshi)s')\n\ndb.define_table('timu',\n                Field('course',db.course,label='\xe8\xaf\xbe\xe7\xa8\x8b'),\n                Field('wenti',label='\xe9\x97\xae\xe9\xa2\x98'),\n                Field('daan',label='\xe7\xad\x94\xe6\xa1\x88'),\n                format='%(course)s_%(wenti)s')\n\ndb.define_table('lianxi',\n                Field('keshi',db.keshi,label='\xe8\xaf\xbe\xe6\x97\xb6'),\n                Field('bianhao','integer',label='\xe7\xbc\x96\xe5\x8f\xb7'),\n                Field('timu',db.timu,label='\xe9\xa2\x98\xe7\x9b\xae'),\n                )\n\ndb.define_table('zuoti',\n                Field('lianxi',db.lianxi,label='\xe7\xbb\x83\xe4\xb9\xa0'),\n                Field('zuozhe',db.auth_user,label='\xe4\xbd\x9c\xe8\x80\x85'),\n                Field('zuoda','text',label='\xe7\xad\x94\xe9\xa2\x98'),\n                Field('defen'),label='\xe5\xbe\x97\xe5\x88\x86')\n\ndb.define_table('zuoye',\n                Field('keshi',db.keshi,writable=False,widget=SQLFORM.widgets.string.widget,label='\xe8\xaf\xbe\xe6\x97\xb6'),\n                Field('zuozhe',db.auth_user,writable=False,widget=SQLFORM.widgets.string.widget,label='\xe4\xbd\x9c\xe8\x80\x85'),\n                Field('wenjian','upload',autodelete=True,requires=IS_LENGTH(maxsize=MAX_UPLOAD_FILESIZE),label='\xe6\x96\x87\xe4\xbb\xb6'),\n                Field('defen','integer',writable=True,label='\xe5\xbe\x97\xe5\x88\x86'))\n\ndb.define_table('wangpan',\n                Field('yonghu',db.auth_user,readable=False,writable=False),\n                Field('daxiao','integer'),\n                Field('leixin'),\n            Field('wenjian','upload',autodelete=True,requires=IS_LENGTH(maxsize=MAX_UPLOAD_FILESIZE)))\n\ndb.define_table('defen',Field('keshi',db.keshi,label='\xe8\xaf\xbe\xe6\x97\xb6'),\n                Field('xuesheng',db.auth_user,label='\xe5\xad\xa6\xe7\x94\x9f'),\n                Field('chengji'),label='\xe6\x88\x90\xe7\xbb\xa9',requires=IS_IN_SET([80,90,70,60,50])"
p7
sS'snapshot'
p8
(dp9
S'exception'
p10
(dp11
S'__getslice__'
p12
S"<method-wrapper '__getslice__' of exceptions.SyntaxError object>"
p13
sS'text'
p14
S'"                Field(\'chengji\'),label=\'\\xe6\\x88\\x90\\xe7\\xbb\\xa9\',requires=IS_IN_SET([80,90,70,60,50])\\n"'
p15
sS'__str__'
p16
S"<method-wrapper '__str__' of exceptions.SyntaxError object>"
p17
sS'__reduce__'
p18
S'<built-in method __reduce__ of exceptions.SyntaxError object>'
p19
sS'__dict__'
p20
S'{}'
p21
sS'__sizeof__'
p22
S'<built-in method __sizeof__ of exceptions.SyntaxError object>'
p23
sS'__init__'
p24
S"<method-wrapper '__init__' of exceptions.SyntaxError object>"
p25
sS'__setattr__'
p26
S"<method-wrapper '__setattr__' of exceptions.SyntaxError object>"
p27
sS'__reduce_ex__'
p28
S'<built-in method __reduce_ex__ of exceptions.SyntaxError object>'
p29
sS'__new__'
p30
S'<built-in method __new__ of type object>'
p31
sS'__format__'
p32
S'<built-in method __format__ of exceptions.SyntaxError object>'
p33
sS'__class__'
p34
S"<type 'exceptions.SyntaxError'>"
p35
sS'filename'
p36
S"r'C:\\Python27\\web2py\\applications\\hw4\\models\\db.py'"
p37
sS'lineno'
p38
S'151'
p39
sS'msg'
p40
S"'invalid syntax'"
p41
sS'__doc__'
p42
S"'Invalid syntax.'"
p43
sS'__getitem__'
p44
S"<method-wrapper '__getitem__' of exceptions.SyntaxError object>"
p45
sS'__setstate__'
p46
S'<built-in method __setstate__ of exceptions.SyntaxError object>'
p47
sS'__getattribute__'
p48
S"<method-wrapper '__getattribute__' of exceptions.SyntaxError object>"
p49
sS'print_file_and_line'
p50
S'None'
p51
sS'args'
p52
S'(\'invalid syntax\', (r\'C:\\Python27\\web2py\\applications\\hw4\\models\\db.py\', 151, 85, "                Field(\'chengji\'),label=\'\\xe6\\x88\\x90\\xe7\\xbb\\xa9\',requires=IS_IN_SET([80,90,70,60,50])\\n"))'
p53
sS'__subclasshook__'
p54
S'<built-in method __subclasshook__ of type object>'
p55
sS'offset'
p56
S'85'
p57
sS'__unicode__'
p58
S'<built-in method __unicode__ of exceptions.SyntaxError object>'
p59
sS'__delattr__'
p60
S"<method-wrapper '__delattr__' of exceptions.SyntaxError object>"
p61
sS'__repr__'
p62
S"<method-wrapper '__repr__' of exceptions.SyntaxError object>"
p63
sS'__hash__'
p64
S"<method-wrapper '__hash__' of exceptions.SyntaxError object>"
p65
ssS'evalue'
p66
S'invalid syntax (db.py, line 151)'
p67
sS'request'
p68
ccopy_reg
_reconstructor
p69
(cgluon.html
BEAUTIFY
p70
c__builtin__
object
p71
NtRp72
(dp73
S'attributes'
p74
(dp75
sS'components'
p76
(lp77
g69
(cgluon.html
TABLE
p78
g71
NtRp79
(dp80
g74
(dp81
S'level'
p82
I5
ssS'parent'
p83
Nsg76
(lp84
g69
(cgluon.html
TR
p85
g71
NtRp86
(dp87
g74
(dp88
sg83
g79
sg76
(lp89
g69
(cgluon.html
TD
p90
g71
NtRp91
(dp92
g74
(dp93
S'_style'
p94
S'font-weight:bold;vertical-align:top'
p95
ssg83
g86
sg76
(lp96
S'ajax'
p97
asbag69
(g90
g71
NtRp98
(dp99
g74
(dp100
S'_valign'
p101
S'top'
p102
ssg83
g86
sg76
(lp103
S':'
asbag69
(g90
g71
NtRp104
(dp105
g74
(dp106
sg83
g86
sg76
(lp107
g69
(g70
g71
NtRp108
(dp109
g74
(dp110
g82
I5
ssg83
g104
sg76
(lp111
S'False'
p112
asbasbasbag69
(g85
g71
NtRp113
(dp114
g74
(dp115
sg83
g79
sg76
(lp116
g69
(g90
g71
NtRp117
(dp118
g74
(dp119
g94
g95
ssg83
g113
sg76
(lp120
S'application'
p121
asbag69
(g90
g71
NtRp122
(dp123
g74
(dp124
g101
g102
ssg83
g113
sg76
(lp125
S':'
asbag69
(g90
g71
NtRp126
(dp127
g74
(dp128
sg83
g113
sg76
(lp129
g69
(g70
g71
NtRp130
(dp131
g74
(dp132
g82
I5
ssg83
g126
sg76
(lp133
S'hw4'
p134
asbasbasbag69
(g85
g71
NtRp135
(dp136
g74
(dp137
sg83
g79
sg76
(lp138
g69
(g90
g71
NtRp139
(dp140
g74
(dp141
g94
g95
ssg83
g135
sg76
(lp142
g52
asbag69
(g90
g71
NtRp143
(dp144
g74
(dp145
g101
g102
ssg83
g135
sg76
(lp146
S':'
asbag69
(g90
g71
NtRp147
(dp148
g74
(dp149
sg83
g135
sg76
(lp150
g69
(g70
g71
NtRp151
(dp152
g74
(dp153
g82
I5
ssg83
g147
sg76
(lp154
g69
(g78
g71
NtRp155
(dp156
g74
(dp157
g82
I4
ssg83
Nsg76
(lp158
sbasbasbasbag69
(g85
g71
NtRp159
(dp160
g74
(dp161
sg83
g79
sg76
(lp162
g69
(g90
g71
NtRp163
(dp164
g74
(dp165
g94
g95
ssg83
g159
sg76
(lp166
S'body'
p167
asbag69
(g90
g71
NtRp168
(dp169
g74
(dp170
g101
g102
ssg83
g159
sg76
(lp171
S':'
asbag69
(g90
g71
NtRp172
(dp173
g74
(dp174
sg83
g159
sg76
(lp175
g69
(g70
g71
NtRp176
(dp177
g74
(dp178
g82
I5
ssg83
g172
sg76
(lp179
S'<cStringIO.StringO object at 0x0663FC60>'
p180
asbasbasbag69
(g85
g71
NtRp181
(dp182
g74
(dp183
sg83
g79
sg76
(lp184
g69
(g90
g71
NtRp185
(dp186
g74
(dp187
g94
g95
ssg83
g181
sg76
(lp188
S'cid'
p189
asbag69
(g90
g71
NtRp190
(dp191
g74
(dp192
g101
g102
ssg83
g181
sg76
(lp193
S':'
asbag69
(g90
g71
NtRp194
(dp195
g74
(dp196
sg83
g181
sg76
(lp197
g69
(g70
g71
NtRp198
(dp199
g74
(dp200
g82
I5
ssg83
g194
sg76
(lp201
S'None'
p202
asbasbasbag69
(g85
g71
NtRp203
(dp204
g74
(dp205
sg83
g79
sg76
(lp206
g69
(g90
g71
NtRp207
(dp208
g74
(dp209
g94
g95
ssg83
g203
sg76
(lp210
S'client'
p211
asbag69
(g90
g71
NtRp212
(dp213
g74
(dp214
g101
g102
ssg83
g203
sg76
(lp215
S':'
asbag69
(g90
g71
NtRp216
(dp217
g74
(dp218
sg83
g203
sg76
(lp219
g69
(g70
g71
NtRp220
(dp221
g74
(dp222
g82
I5
ssg83
g216
sg76
(lp223
S'127.0.0.1'
p224
asbasbasbag69
(g85
g71
NtRp225
(dp226
g74
(dp227
sg83
g79
sg76
(lp228
g69
(g90
g71
NtRp229
(dp230
g74
(dp231
g94
g95
ssg83
g225
sg76
(lp232
S'controller'
p233
asbag69
(g90
g71
NtRp234
(dp235
g74
(dp236
g101
g102
ssg83
g225
sg76
(lp237
S':'
asbag69
(g90
g71
NtRp238
(dp239
g74
(dp240
sg83
g225
sg76
(lp241
g69
(g70
g71
NtRp242
(dp243
g74
(dp244
g82
I5
ssg83
g238
sg76
(lp245
S'default'
p246
asbasbasbag69
(g85
g71
NtRp247
(dp248
g74
(dp249
sg83
g79
sg76
(lp250
g69
(g90
g71
NtRp251
(dp252
g74
(dp253
g94
g95
ssg83
g247
sg76
(lp254
S'cookies'
p255
asbag69
(g90
g71
NtRp256
(dp257
g74
(dp258
g101
g102
ssg83
g247
sg76
(lp259
S':'
asbag69
(g90
g71
NtRp260
(dp261
g74
(dp262
sg83
g247
sg76
(lp263
g69
(g70
g71
NtRp264
(dp265
g74
(dp266
g82
I5
ssg83
g260
sg76
(lp267
g69
(g78
g71
NtRp268
(dp269
g74
(dp270
g82
I4
ssg83
Nsg76
(lp271
sbasbasbasbag69
(g85
g71
NtRp272
(dp273
g74
(dp274
sg83
g79
sg76
(lp275
g69
(g90
g71
NtRp276
(dp277
g74
(dp278
g94
g95
ssg83
g272
sg76
(lp279
S'env'
p280
asbag69
(g90
g71
NtRp281
(dp282
g74
(dp283
g101
g102
ssg83
g272
sg76
(lp284
S':'
asbag69
(g90
g71
NtRp285
(dp286
g74
(dp287
sg83
g272
sg76
(lp288
g69
(g70
g71
NtRp289
(dp290
g74
(dp291
g82
I5
ssg83
g285
sg76
(lp292
g69
(g78
g71
NtRp293
(dp294
g74
(dp295
g82
I4
ssg83
Nsg76
(lp296
g69
(g85
g71
NtRp297
(dp298
g74
(dp299
sg83
g293
sg76
(lp300
g69
(g90
g71
NtRp301
(dp302
g74
(dp303
g94
g95
ssg83
g297
sg76
(lp304
S'app_folders'
p305
asbag69
(g90
g71
NtRp306
(dp307
g74
(dp308
g101
g102
ssg83
g297
sg76
(lp309
S':'
asbag69
(g90
g71
NtRp310
(dp311
g74
(dp312
sg83
g297
sg76
(lp313
g69
(g70
g71
NtRp314
(dp315
g74
(dp316
g82
I4
ssg83
g310
sg76
(lp317
S"set(['C:\\\\Python27\\\\web2py\\\\applications\\\\admin\\\\', 'C:\\\\Python27\\\\web2py\\\\applications\\\\welcome\\\\', 'C:\\\\Python27\\\\web2py\\\\applications\\\\hw4\\\\'])"
p318
asbasbasbag69
(g85
g71
NtRp319
(dp320
g74
(dp321
sg83
g293
sg76
(lp322
g69
(g90
g71
NtRp323
(dp324
g74
(dp325
g94
g95
ssg83
g319
sg76
(lp326
S'applications_parent'
p327
asbag69
(g90
g71
NtRp328
(dp329
g74
(dp330
g101
g102
ssg83
g319
sg76
(lp331
S':'
asbag69
(g90
g71
NtRp332
(dp333
g74
(dp334
sg83
g319
sg76
(lp335
g69
(g70
g71
NtRp336
(dp337
g74
(dp338
g82
I4
ssg83
g332
sg76
(lp339
S'C:\\Python27\\web2py'
p340
asbasbasbag69
(g85
g71
NtRp341
(dp342
g74
(dp343
sg83
g293
sg76
(lp344
g69
(g90
g71
NtRp345
(dp346
g74
(dp347
g94
g95
ssg83
g341
sg76
(lp348
S'cmd_args'
p349
asbag69
(g90
g71
NtRp350
(dp351
g74
(dp352
g101
g102
ssg83
g341
sg76
(lp353
S':'
asbag69
(g90
g71
NtRp354
(dp355
g74
(dp356
sg83
g341
sg76
(lp357
g69
(g70
g71
NtRp358
(dp359
g74
(dp360
g82
I4
ssg83
g354
sg76
(lp361
g69
(g78
g71
NtRp362
(dp363
g74
(dp364
g82
I3
ssg83
Nsg76
(lp365
sbasbasbasbag69
(g85
g71
NtRp366
(dp367
g74
(dp368
sg83
g293
sg76
(lp369
g69
(g90
g71
NtRp370
(dp371
g74
(dp372
g94
g95
ssg83
g366
sg76
(lp373
S'cmd_options'
p374
asbag69
(g90
g71
NtRp375
(dp376
g74
(dp377
g101
g102
ssg83
g366
sg76
(lp378
S':'
asbag69
(g90
g71
NtRp379
(dp380
g74
(dp381
sg83
g366
sg76
(lp382
g69
(g70
g71
NtRp383
(dp384
g74
(dp385
g82
I4
ssg83
g379
sg76
(lp386
S"<Values at 0x17c00f8: {'verbose': False, 'ip': '127.0.0.1', 'with_scheduler': False, 'ips': ['192.168.1.101'], 'shutdown_timeout': 5, 'taskbar': False, 'port': 8000, 'maxthreads': None, 'softcron': False, 'server_name': 'FREESKYC-5359CC', 'bpython': False, 'nogui': False, 'pid_filename': 'httpserver.pid', 'extcron': False, 'runcron': False, 'run_system_tests': False, 'test': None, 'folder': 'C:\\\\Python27\\\\web2py', 'config': '', 'import_models': False, 'winservice': '', 'shell': None, 'run': '', 'log_filename': 'httpserver.log', 'debuglevel': 30, 'args': [''], 'socket_timeout': 5, 'ssl_ca_certificate': None, 'scheduler': None, 'profiler_filename': None, 'ssl_private_key': '', 'scheduler_groups': None, 'password': '<ask>', 'request_queue_size': 5, 'ssl_certificate': '', 'cronjob': False, 'numthreads': None, 'quiet': False, 'interfaces': None, 'minthreads': None, 'timeout': 10, 'plain': False, 'nobanner': False}>"
p387
asbasbasbag69
(g85
g71
NtRp388
(dp389
g74
(dp390
sg83
g293
sg76
(lp391
g69
(g90
g71
NtRp392
(dp393
g74
(dp394
g94
g95
ssg83
g388
sg76
(lp395
S'db_sessions'
p396
asbag69
(g90
g71
NtRp397
(dp398
g74
(dp399
g101
g102
ssg83
g388
sg76
(lp400
S':'
asbag69
(g90
g71
NtRp401
(dp402
g74
(dp403
sg83
g388
sg76
(lp404
g69
(g70
g71
NtRp405
(dp406
g74
(dp407
g82
I4
ssg83
g401
sg76
(lp408
S'set([])'
p409
asbasbasbag69
(g85
g71
NtRp410
(dp411
g74
(dp412
sg83
g293
sg76
(lp413
g69
(g90
g71
NtRp414
(dp415
g74
(dp416
g94
g95
ssg83
g410
sg76
(lp417
S'debugging'
p418
asbag69
(g90
g71
NtRp419
(dp420
g74
(dp421
g101
g102
ssg83
g410
sg76
(lp422
S':'
asbag69
(g90
g71
NtRp423
(dp424
g74
(dp425
sg83
g410
sg76
(lp426
g69
(g70
g71
NtRp427
(dp428
g74
(dp429
g82
I4
ssg83
g423
sg76
(lp430
g112
asbasbasbag69
(g85
g71
NtRp431
(dp432
g74
(dp433
sg83
g293
sg76
(lp434
g69
(g90
g71
NtRp435
(dp436
g74
(dp437
g94
g95
ssg83
g431
sg76
(lp438
S'gluon_parent'
p439
asbag69
(g90
g71
NtRp440
(dp441
g74
(dp442
g101
g102
ssg83
g431
sg76
(lp443
S':'
asbag69
(g90
g71
NtRp444
(dp445
g74
(dp446
sg83
g431
sg76
(lp447
g69
(g70
g71
NtRp448
(dp449
g74
(dp450
g82
I4
ssg83
g444
sg76
(lp451
S'C:\\Python27\\web2py'
p452
asbasbasbag69
(g85
g71
NtRp453
(dp454
g74
(dp455
sg83
g293
sg76
(lp456
g69
(g90
g71
NtRp457
(dp458
g74
(dp459
g94
g95
ssg83
g453
sg76
(lp460
S'http_accept'
p461
asbag69
(g90
g71
NtRp462
(dp463
g74
(dp464
g101
g102
ssg83
g453
sg76
(lp465
S':'
asbag69
(g90
g71
NtRp466
(dp467
g74
(dp468
sg83
g453
sg76
(lp469
g69
(g70
g71
NtRp470
(dp471
g74
(dp472
g82
I4
ssg83
g466
sg76
(lp473
S'text/html,application/xhtml+xml,application/xml;q=0.9,*/*;q=0.8'
p474
asbasbasbag69
(g85
g71
NtRp475
(dp476
g74
(dp477
sg83
g293
sg76
(lp478
g69
(g90
g71
NtRp479
(dp480
g74
(dp481
g94
g95
ssg83
g475
sg76
(lp482
S'http_accept_charset'
p483
asbag69
(g90
g71
NtRp484
(dp485
g74
(dp486
g101
g102
ssg83
g475
sg76
(lp487
S':'
asbag69
(g90
g71
NtRp488
(dp489
g74
(dp490
sg83
g475
sg76
(lp491
g69
(g70
g71
NtRp492
(dp493
g74
(dp494
g82
I4
ssg83
g488
sg76
(lp495
S'GBK,utf-8;q=0.7,*;q=0.3'
p496
asbasbasbag69
(g85
g71
NtRp497
(dp498
g74
(dp499
sg83
g293
sg76
(lp500
g69
(g90
g71
NtRp501
(dp502
g74
(dp503
g94
g95
ssg83
g497
sg76
(lp504
S'http_accept_encoding'
p505
asbag69
(g90
g71
NtRp506
(dp507
g74
(dp508
g101
g102
ssg83
g497
sg76
(lp509
S':'
asbag69
(g90
g71
NtRp510
(dp511
g74
(dp512
sg83
g497
sg76
(lp513
g69
(g70
g71
NtRp514
(dp515
g74
(dp516
g82
I4
ssg83
g510
sg76
(lp517
S'gzip,deflate'
p518
asbasbasbag69
(g85
g71
NtRp519
(dp520
g74
(dp521
sg83
g293
sg76
(lp522
g69
(g90
g71
NtRp523
(dp524
g74
(dp525
g94
g95
ssg83
g519
sg76
(lp526
S'http_accept_language'
p527
asbag69
(g90
g71
NtRp528
(dp529
g74
(dp530
g101
g102
ssg83
g519
sg76
(lp531
S':'
asbag69
(g90
g71
NtRp532
(dp533
g74
(dp534
sg83
g519
sg76
(lp535
g69
(g70
g71
NtRp536
(dp537
g74
(dp538
g82
I4
ssg83
g532
sg76
(lp539
S'zh-CN,zh;q=0.8'
p540
asbasbasbag69
(g85
g71
NtRp541
(dp542
g74
(dp543
sg83
g293
sg76
(lp544
g69
(g90
g71
NtRp545
(dp546
g74
(dp547
g94
g95
ssg83
g541
sg76
(lp548
S'http_connection'
p549
asbag69
(g90
g71
NtRp550
(dp551
g74
(dp552
g101
g102
ssg83
g541
sg76
(lp553
S':'
asbag69
(g90
g71
NtRp554
(dp555
g74
(dp556
sg83
g541
sg76
(lp557
g69
(g70
g71
NtRp558
(dp559
g74
(dp560
g82
I4
ssg83
g554
sg76
(lp561
S'keep-alive'
p562
asbasbasbag69
(g85
g71
NtRp563
(dp564
g74
(dp565
sg83
g293
sg76
(lp566
g69
(g90
g71
NtRp567
(dp568
g74
(dp569
g94
g95
ssg83
g563
sg76
(lp570
S'http_host'
p571
asbag69
(g90
g71
NtRp572
(dp573
g74
(dp574
g101
g102
ssg83
g563
sg76
(lp575
S':'
asbag69
(g90
g71
NtRp576
(dp577
g74
(dp578
sg83
g563
sg76
(lp579
g69
(g70
g71
NtRp580
(dp581
g74
(dp582
g82
I4
ssg83
g576
sg76
(lp583
S'127.0.0.1:8000'
p584
asbasbasbag69
(g85
g71
NtRp585
(dp586
g74
(dp587
sg83
g293
sg76
(lp588
g69
(g90
g71
NtRp589
(dp590
g74
(dp591
g94
g95
ssg83
g585
sg76
(lp592
S'http_user_agent'
p593
asbag69
(g90
g71
NtRp594
(dp595
g74
(dp596
g101
g102
ssg83
g585
sg76
(lp597
S':'
asbag69
(g90
g71
NtRp598
(dp599
g74
(dp600
sg83
g585
sg76
(lp601
g69
(g70
g71
NtRp602
(dp603
g74
(dp604
g82
I4
ssg83
g598
sg76
(lp605
S'Mozilla/5.0 (Windows NT 5.1) AppleWebKit/535.11 (KHTML, like Gecko) Chrome/17.0.963.84 Safari/535.11 SE 2.X MetaSr 1.0'
p606
asbasbasbag69
(g85
g71
NtRp607
(dp608
g74
(dp609
sg83
g293
sg76
(lp610
g69
(g90
g71
NtRp611
(dp612
g74
(dp613
g94
g95
ssg83
g607
sg76
(lp614
S'is_jython'
p615
asbag69
(g90
g71
NtRp616
(dp617
g74
(dp618
g101
g102
ssg83
g607
sg76
(lp619
S':'
asbag69
(g90
g71
NtRp620
(dp621
g74
(dp622
sg83
g607
sg76
(lp623
g69
(g70
g71
NtRp624
(dp625
g74
(dp626
g82
I4
ssg83
g620
sg76
(lp627
g112
asbasbasbag69
(g85
g71
NtRp628
(dp629
g74
(dp630
sg83
g293
sg76
(lp631
g69
(g90
g71
NtRp632
(dp633
g74
(dp634
g94
g95
ssg83
g628
sg76
(lp635
S'is_pypy'
p636
asbag69
(g90
g71
NtRp637
(dp638
g74
(dp639
g101
g102
ssg83
g628
sg76
(lp640
S':'
asbag69
(g90
g71
NtRp641
(dp642
g74
(dp643
sg83
g628
sg76
(lp644
g69
(g70
g71
NtRp645
(dp646
g74
(dp647
g82
I4
ssg83
g641
sg76
(lp648
g112
asbasbasbag69
(g85
g71
NtRp649
(dp650
g74
(dp651
sg83
g293
sg76
(lp652
g69
(g90
g71
NtRp653
(dp654
g74
(dp655
g94
g95
ssg83
g649
sg76
(lp656
S'local_hosts'
p657
asbag69
(g90
g71
NtRp658
(dp659
g74
(dp660
g101
g102
ssg83
g649
sg76
(lp661
S':'
asbag69
(g90
g71
NtRp662
(dp663
g74
(dp664
sg83
g649
sg76
(lp665
g69
(g70
g71
NtRp666
(dp667
g74
(dp668
g82
I4
ssg83
g662
sg76
(lp669
g69
(g78
g71
NtRp670
(dp671
g74
(dp672
g82
I3
ssg83
Nsg76
(lp673
g69
(g85
g71
NtRp674
(dp675
g74
(dp676
sg83
g670
sg76
(lp677
g69
(g90
g71
NtRp678
(dp679
g74
(dp680
sg83
g674
sg76
(lp681
g69
(g70
g71
NtRp682
(dp683
g74
(dp684
g82
I3
ssg83
g678
sg76
(lp685
S'192.168.1.101'
p686
asbasbasbag69
(g85
g71
NtRp687
(dp688
g74
(dp689
sg83
g670
sg76
(lp690
g69
(g90
g71
NtRp691
(dp692
g74
(dp693
sg83
g687
sg76
(lp694
g69
(g70
g71
NtRp695
(dp696
g74
(dp697
g82
I3
ssg83
g691
sg76
(lp698
S'::1'
p699
asbasbasbag69
(g85
g71
NtRp700
(dp701
g74
(dp702
sg83
g670
sg76
(lp703
g69
(g90
g71
NtRp704
(dp705
g74
(dp706
sg83
g700
sg76
(lp707
g69
(g70
g71
NtRp708
(dp709
g74
(dp710
g82
I3
ssg83
g704
sg76
(lp711
S'FREESKYC-5359CC'
p712
asbasbasbag69
(g85
g71
NtRp713
(dp714
g74
(dp715
sg83
g670
sg76
(lp716
g69
(g90
g71
NtRp717
(dp718
g74
(dp719
sg83
g713
sg76
(lp720
g69
(g70
g71
NtRp721
(dp722
g74
(dp723
g82
I3
ssg83
g717
sg76
(lp724
S'::ffff:127.0.0.1'
p725
asbasbasbag69
(g85
g71
NtRp726
(dp727
g74
(dp728
sg83
g670
sg76
(lp729
g69
(g90
g71
NtRp730
(dp731
g74
(dp732
sg83
g726
sg76
(lp733
g69
(g70
g71
NtRp734
(dp735
g74
(dp736
g82
I3
ssg83
g730
sg76
(lp737
S'127.0.0.1'
p738
asbasbasbasbasbasbasbag69
(g85
g71
NtRp739
(dp740
g74
(dp741
sg83
g293
sg76
(lp742
g69
(g90
g71
NtRp743
(dp744
g74
(dp745
g94
g95
ssg83
g739
sg76
(lp746
S'path_info'
p747
asbag69
(g90
g71
NtRp748
(dp749
g74
(dp750
g101
g102
ssg83
g739
sg76
(lp751
S':'
asbag69
(g90
g71
NtRp752
(dp753
g74
(dp754
sg83
g739
sg76
(lp755
g69
(g70
g71
NtRp756
(dp757
g74
(dp758
g82
I4
ssg83
g752
sg76
(lp759
S'/hw4/default/index'
p760
asbasbasbag69
(g85
g71
NtRp761
(dp762
g74
(dp763
sg83
g293
sg76
(lp764
g69
(g90
g71
NtRp765
(dp766
g74
(dp767
g94
g95
ssg83
g761
sg76
(lp768
S'query_string'
p769
asbag69
(g90
g71
NtRp770
(dp771
g74
(dp772
g101
g102
ssg83
g761
sg76
(lp773
S':'
asbag69
(g90
g71
NtRp774
(dp775
g74
(dp776
sg83
g761
sg76
(lp777
g69
(g70
g71
NtRp778
(dp779
g74
(dp780
g82
I4
ssg83
g774
sg76
(lp781
S''
asbasbasbag69
(g85
g71
NtRp782
(dp783
g74
(dp784
sg83
g293
sg76
(lp785
g69
(g90
g71
NtRp786
(dp787
g74
(dp788
g94
g95
ssg83
g782
sg76
(lp789
S'remote_addr'
p790
asbag69
(g90
g71
NtRp791
(dp792
g74
(dp793
g101
g102
ssg83
g782
sg76
(lp794
S':'
asbag69
(g90
g71
NtRp795
(dp796
g74
(dp797
sg83
g782
sg76
(lp798
g69
(g70
g71
NtRp799
(dp800
g74
(dp801
g82
I4
ssg83
g795
sg76
(lp802
g224
asbasbasbag69
(g85
g71
NtRp803
(dp804
g74
(dp805
sg83
g293
sg76
(lp806
g69
(g90
g71
NtRp807
(dp808
g74
(dp809
g94
g95
ssg83
g803
sg76
(lp810
S'remote_port'
p811
asbag69
(g90
g71
NtRp812
(dp813
g74
(dp814
g101
g102
ssg83
g803
sg76
(lp815
S':'
asbag69
(g90
g71
NtRp816
(dp817
g74
(dp818
sg83
g803
sg76
(lp819
g69
(g70
g71
NtRp820
(dp821
g74
(dp822
g82
I4
ssg83
g816
sg76
(lp823
S'2168'
p824
asbasbasbag69
(g85
g71
NtRp825
(dp826
g74
(dp827
sg83
g293
sg76
(lp828
g69
(g90
g71
NtRp829
(dp830
g74
(dp831
g94
g95
ssg83
g825
sg76
(lp832
S'request_method'
p833
asbag69
(g90
g71
NtRp834
(dp835
g74
(dp836
g101
g102
ssg83
g825
sg76
(lp837
S':'
asbag69
(g90
g71
NtRp838
(dp839
g74
(dp840
sg83
g825
sg76
(lp841
g69
(g70
g71
NtRp842
(dp843
g74
(dp844
g82
I4
ssg83
g838
sg76
(lp845
S'GET'
p846
asbasbasbag69
(g85
g71
NtRp847
(dp848
g74
(dp849
sg83
g293
sg76
(lp850
g69
(g90
g71
NtRp851
(dp852
g74
(dp853
g94
g95
ssg83
g847
sg76
(lp854
S'request_uri'
p855
asbag69
(g90
g71
NtRp856
(dp857
g74
(dp858
g101
g102
ssg83
g847
sg76
(lp859
S':'
asbag69
(g90
g71
NtRp860
(dp861
g74
(dp862
sg83
g847
sg76
(lp863
g69
(g70
g71
NtRp864
(dp865
g74
(dp866
g82
I4
ssg83
g860
sg76
(lp867
g760
asbasbasbag69
(g85
g71
NtRp868
(dp869
g74
(dp870
sg83
g293
sg76
(lp871
g69
(g90
g71
NtRp872
(dp873
g74
(dp874
g94
g95
ssg83
g868
sg76
(lp875
S'script_name'
p876
asbag69
(g90
g71
NtRp877
(dp878
g74
(dp879
g101
g102
ssg83
g868
sg76
(lp880
S':'
asbag69
(g90
g71
NtRp881
(dp882
g74
(dp883
sg83
g868
sg76
(lp884
g69
(g70
g71
NtRp885
(dp886
g74
(dp887
g82
I4
ssg83
g881
sg76
(lp888
S''
asbasbasbag69
(g85
g71
NtRp889
(dp890
g74
(dp891
sg83
g293
sg76
(lp892
g69
(g90
g71
NtRp893
(dp894
g74
(dp895
g94
g95
ssg83
g889
sg76
(lp896
S'server_name'
p897
asbag69
(g90
g71
NtRp898
(dp899
g74
(dp900
g101
g102
ssg83
g889
sg76
(lp901
S':'
asbag69
(g90
g71
NtRp902
(dp903
g74
(dp904
sg83
g889
sg76
(lp905
g69
(g70
g71
NtRp906
(dp907
g74
(dp908
g82
I4
ssg83
g902
sg76
(lp909
S'FREESKYC-5359CC'
p910
asbasbasbag69
(g85
g71
NtRp911
(dp912
g74
(dp913
sg83
g293
sg76
(lp914
g69
(g90
g71
NtRp915
(dp916
g74
(dp917
g94
g95
ssg83
g911
sg76
(lp918
S'server_port'
p919
asbag69
(g90
g71
NtRp920
(dp921
g74
(dp922
g101
g102
ssg83
g911
sg76
(lp923
S':'
asbag69
(g90
g71
NtRp924
(dp925
g74
(dp926
sg83
g911
sg76
(lp927
g69
(g70
g71
NtRp928
(dp929
g74
(dp930
g82
I4
ssg83
g924
sg76
(lp931
S'8000'
p932
asbasbasbag69
(g85
g71
NtRp933
(dp934
g74
(dp935
sg83
g293
sg76
(lp936
g69
(g90
g71
NtRp937
(dp938
g74
(dp939
g94
g95
ssg83
g933
sg76
(lp940
S'server_protocol'
p941
asbag69
(g90
g71
NtRp942
(dp943
g74
(dp944
g101
g102
ssg83
g933
sg76
(lp945
S':'
asbag69
(g90
g71
NtRp946
(dp947
g74
(dp948
sg83
g933
sg76
(lp949
g69
(g70
g71
NtRp950
(dp951
g74
(dp952
g82
I4
ssg83
g946
sg76
(lp953
S'HTTP/1.1'
p954
asbasbasbag69
(g85
g71
NtRp955
(dp956
g74
(dp957
sg83
g293
sg76
(lp958
g69
(g90
g71
NtRp959
(dp960
g74
(dp961
g94
g95
ssg83
g955
sg76
(lp962
S'server_software'
p963
asbag69
(g90
g71
NtRp964
(dp965
g74
(dp966
g101
g102
ssg83
g955
sg76
(lp967
S':'
asbag69
(g90
g71
NtRp968
(dp969
g74
(dp970
sg83
g955
sg76
(lp971
g69
(g70
g71
NtRp972
(dp973
g74
(dp974
g82
I4
ssg83
g968
sg76
(lp975
S'Rocket 1.2.6'
p976
asbasbasbag69
(g85
g71
NtRp977
(dp978
g74
(dp979
sg83
g293
sg76
(lp980
g69
(g90
g71
NtRp981
(dp982
g74
(dp983
g94
g95
ssg83
g977
sg76
(lp984
S'web2py_path'
p985
asbag69
(g90
g71
NtRp986
(dp987
g74
(dp988
g101
g102
ssg83
g977
sg76
(lp989
S':'
asbag69
(g90
g71
NtRp990
(dp991
g74
(dp992
sg83
g977
sg76
(lp993
g69
(g70
g71
NtRp994
(dp995
g74
(dp996
g82
I4
ssg83
g990
sg76
(lp997
g340
asbasbasbag69
(g85
g71
NtRp998
(dp999
g74
(dp1000
sg83
g293
sg76
(lp1001
g69
(g90
g71
NtRp1002
(dp1003
g74
(dp1004
g94
g95
ssg83
g998
sg76
(lp1005
S'web2py_version'
p1006
asbag69
(g90
g71
NtRp1007
(dp1008
g74
(dp1009
g101
g102
ssg83
g998
sg76
(lp1010
S':'
asbag69
(g90
g71
NtRp1011
(dp1012
g74
(dp1013
sg83
g998
sg76
(lp1014
g69
(g70
g71
NtRp1015
(dp1016
g74
(dp1017
g82
I4
ssg83
g1011
sg76
(lp1018
g69
(g78
g71
NtRp1019
(dp1020
g74
(dp1021
g82
I3
ssg83
Nsg76
(lp1022
g69
(g85
g71
NtRp1023
(dp1024
g74
(dp1025
sg83
g1019
sg76
(lp1026
g69
(g90
g71
NtRp1027
(dp1028
g74
(dp1029
sg83
g1023
sg76
(lp1030
g69
(g70
g71
NtRp1031
(dp1032
g74
(dp1033
g82
I3
ssg83
g1027
sg76
(lp1034
S'2'
asbasbasbag69
(g85
g71
NtRp1035
(dp1036
g74
(dp1037
sg83
g1019
sg76
(lp1038
g69
(g90
g71
NtRp1039
(dp1040
g74
(dp1041
sg83
g1035
sg76
(lp1042
g69
(g70
g71
NtRp1043
(dp1044
g74
(dp1045
g82
I3
ssg83
g1039
sg76
(lp1046
S'3'
asbasbasbag69
(g85
g71
NtRp1047
(dp1048
g74
(dp1049
sg83
g1019
sg76
(lp1050
g69
(g90
g71
NtRp1051
(dp1052
g74
(dp1053
sg83
g1047
sg76
(lp1054
g69
(g70
g71
NtRp1055
(dp1056
g74
(dp1057
g82
I3
ssg83
g1051
sg76
(lp1058
S'2'
asbasbasbag69
(g85
g71
NtRp1059
(dp1060
g74
(dp1061
sg83
g1019
sg76
(lp1062
g69
(g90
g71
NtRp1063
(dp1064
g74
(dp1065
sg83
g1059
sg76
(lp1066
g69
(g70
g71
NtRp1067
(dp1068
g74
(dp1069
g82
I3
ssg83
g1063
sg76
(lp1070
S'datetime.datetime(2012, 12, 17, 15, 3, 30)'
p1071
asbasbasbag69
(g85
g71
NtRp1072
(dp1073
g74
(dp1074
sg83
g1019
sg76
(lp1075
g69
(g90
g71
NtRp1076
(dp1077
g74
(dp1078
sg83
g1072
sg76
(lp1079
g69
(g70
g71
NtRp1080
(dp1081
g74
(dp1082
g82
I3
ssg83
g1076
sg76
(lp1083
S'stable'
p1084
asbasbasbasbasbasbasbag69
(g85
g71
NtRp1085
(dp1086
g74
(dp1087
sg83
g293
sg76
(lp1088
g69
(g90
g71
NtRp1089
(dp1090
g74
(dp1091
g94
g95
ssg83
g1085
sg76
(lp1092
S'wsgi_errors'
p1093
asbag69
(g90
g71
NtRp1094
(dp1095
g74
(dp1096
g101
g102
ssg83
g1085
sg76
(lp1097
S':'
asbag69
(g90
g71
NtRp1098
(dp1099
g74
(dp1100
sg83
g1085
sg76
(lp1101
g69
(g70
g71
NtRp1102
(dp1103
g74
(dp1104
g82
I4
ssg83
g1098
sg76
(lp1105
S"<open file '<stderr>', mode 'w' at 0x00AD50D0>"
p1106
asbasbasbag69
(g85
g71
NtRp1107
(dp1108
g74
(dp1109
sg83
g293
sg76
(lp1110
g69
(g90
g71
NtRp1111
(dp1112
g74
(dp1113
g94
g95
ssg83
g1107
sg76
(lp1114
S'wsgi_file_wrapper'
p1115
asbag69
(g90
g71
NtRp1116
(dp1117
g74
(dp1118
g101
g102
ssg83
g1107
sg76
(lp1119
S':'
asbag69
(g90
g71
NtRp1120
(dp1121
g74
(dp1122
sg83
g1107
sg76
(lp1123
g69
(g70
g71
NtRp1124
(dp1125
g74
(dp1126
g82
I4
ssg83
g1120
sg76
(lp1127
S'<class wsgiref.util.FileWrapper at 0x01736C38>'
p1128
asbasbasbag69
(g85
g71
NtRp1129
(dp1130
g74
(dp1131
sg83
g293
sg76
(lp1132
g69
(g90
g71
NtRp1133
(dp1134
g74
(dp1135
g94
g95
ssg83
g1129
sg76
(lp1136
S'wsgi_input'
p1137
asbag69
(g90
g71
NtRp1138
(dp1139
g74
(dp1140
g101
g102
ssg83
g1129
sg76
(lp1141
S':'
asbag69
(g90
g71
NtRp1142
(dp1143
g74
(dp1144
sg83
g1129
sg76
(lp1145
g69
(g70
g71
NtRp1146
(dp1147
g74
(dp1148
g82
I4
ssg83
g1142
sg76
(lp1149
S'<socket._fileobject object at 0x069FF270>'
p1150
asbasbasbag69
(g85
g71
NtRp1151
(dp1152
g74
(dp1153
sg83
g293
sg76
(lp1154
g69
(g90
g71
NtRp1155
(dp1156
g74
(dp1157
g94
g95
ssg83
g1151
sg76
(lp1158
S'wsgi_multiprocess'
p1159
asbag69
(g90
g71
NtRp1160
(dp1161
g74
(dp1162
g101
g102
ssg83
g1151
sg76
(lp1163
S':'
asbag69
(g90
g71
NtRp1164
(dp1165
g74
(dp1166
sg83
g1151
sg76
(lp1167
g69
(g70
g71
NtRp1168
(dp1169
g74
(dp1170
g82
I4
ssg83
g1164
sg76
(lp1171
g112
asbasbasbag69
(g85
g71
NtRp1172
(dp1173
g74
(dp1174
sg83
g293
sg76
(lp1175
g69
(g90
g71
NtRp1176
(dp1177
g74
(dp1178
g94
g95
ssg83
g1172
sg76
(lp1179
S'wsgi_multithread'
p1180
asbag69
(g90
g71
NtRp1181
(dp1182
g74
(dp1183
g101
g102
ssg83
g1172
sg76
(lp1184
S':'
asbag69
(g90
g71
NtRp1185
(dp1186
g74
(dp1187
sg83
g1172
sg76
(lp1188
g69
(g70
g71
NtRp1189
(dp1190
g74
(dp1191
g82
I4
ssg83
g1185
sg76
(lp1192
S'True'
p1193
asbasbasbag69
(g85
g71
NtRp1194
(dp1195
g74
(dp1196
sg83
g293
sg76
(lp1197
g69
(g90
g71
NtRp1198
(dp1199
g74
(dp1200
g94
g95
ssg83
g1194
sg76
(lp1201
S'wsgi_run_once'
p1202
asbag69
(g90
g71
NtRp1203
(dp1204
g74
(dp1205
g101
g102
ssg83
g1194
sg76
(lp1206
S':'
asbag69
(g90
g71
NtRp1207
(dp1208
g74
(dp1209
sg83
g1194
sg76
(lp1210
g69
(g70
g71
NtRp1211
(dp1212
g74
(dp1213
g82
I4
ssg83
g1207
sg76
(lp1214
g112
asbasbasbag69
(g85
g71
NtRp1215
(dp1216
g74
(dp1217
sg83
g293
sg76
(lp1218
g69
(g90
g71
NtRp1219
(dp1220
g74
(dp1221
g94
g95
ssg83
g1215
sg76
(lp1222
S'wsgi_url_scheme'
p1223
asbag69
(g90
g71
NtRp1224
(dp1225
g74
(dp1226
g101
g102
ssg83
g1215
sg76
(lp1227
S':'
asbag69
(g90
g71
NtRp1228
(dp1229
g74
(dp1230
sg83
g1215
sg76
(lp1231
g69
(g70
g71
NtRp1232
(dp1233
g74
(dp1234
g82
I4
ssg83
g1228
sg76
(lp1235
S'http'
p1236
asbasbasbag69
(g85
g71
NtRp1237
(dp1238
g74
(dp1239
sg83
g293
sg76
(lp1240
g69
(g90
g71
NtRp1241
(dp1242
g74
(dp1243
g94
g95
ssg83
g1237
sg76
(lp1244
S'wsgi_version'
p1245
asbag69
(g90
g71
NtRp1246
(dp1247
g74
(dp1248
g101
g102
ssg83
g1237
sg76
(lp1249
S':'
asbag69
(g90
g71
NtRp1250
(dp1251
g74
(dp1252
sg83
g1237
sg76
(lp1253
g69
(g70
g71
NtRp1254
(dp1255
g74
(dp1256
g82
I4
ssg83
g1250
sg76
(lp1257
g69
(g78
g71
NtRp1258
(dp1259
g74
(dp1260
g82
I3
ssg83
Nsg76
(lp1261
g69
(g85
g71
NtRp1262
(dp1263
g74
(dp1264
sg83
g1258
sg76
(lp1265
g69
(g90
g71
NtRp1266
(dp1267
g74
(dp1268
sg83
g1262
sg76
(lp1269
g69
(g70
g71
NtRp1270
(dp1271
g74
(dp1272
g82
I3
ssg83
g1266
sg76
(lp1273
S'1'
asbasbasbag69
(g85
g71
NtRp1274
(dp1275
g74
(dp1276
sg83
g1258
sg76
(lp1277
g69
(g90
g71
NtRp1278
(dp1279
g74
(dp1280
sg83
g1274
sg76
(lp1281
g69
(g70
g71
NtRp1282
(dp1283
g74
(dp1284
g82
I3
ssg83
g1278
sg76
(lp1285
S'0'
asbasbasbasbasbasbasbasbasbasbasbag69
(g85
g71
NtRp1286
(dp1287
g74
(dp1288
sg83
g79
sg76
(lp1289
g69
(g90
g71
NtRp1290
(dp1291
g74
(dp1292
g94
g95
ssg83
g1286
sg76
(lp1293
S'extension'
p1294
asbag69
(g90
g71
NtRp1295
(dp1296
g74
(dp1297
g101
g102
ssg83
g1286
sg76
(lp1298
S':'
asbag69
(g90
g71
NtRp1299
(dp1300
g74
(dp1301
sg83
g1286
sg76
(lp1302
g69
(g70
g71
NtRp1303
(dp1304
g74
(dp1305
g82
I5
ssg83
g1299
sg76
(lp1306
S'html'
p1307
asbasbasbag69
(g85
g71
NtRp1308
(dp1309
g74
(dp1310
sg83
g79
sg76
(lp1311
g69
(g90
g71
NtRp1312
(dp1313
g74
(dp1314
g94
g95
ssg83
g1308
sg76
(lp1315
S'folder'
p1316
asbag69
(g90
g71
NtRp1317
(dp1318
g74
(dp1319
g101
g102
ssg83
g1308
sg76
(lp1320
S':'
asbag69
(g90
g71
NtRp1321
(dp1322
g74
(dp1323
sg83
g1308
sg76
(lp1324
g69
(g70
g71
NtRp1325
(dp1326
g74
(dp1327
g82
I5
ssg83
g1321
sg76
(lp1328
S'C:\\Python27\\web2py\\applications\\hw4\\'
p1329
asbasbasbag69
(g85
g71
NtRp1330
(dp1331
g74
(dp1332
sg83
g79
sg76
(lp1333
g69
(g90
g71
NtRp1334
(dp1335
g74
(dp1336
g94
g95
ssg83
g1330
sg76
(lp1337
S'function'
p1338
asbag69
(g90
g71
NtRp1339
(dp1340
g74
(dp1341
g101
g102
ssg83
g1330
sg76
(lp1342
S':'
asbag69
(g90
g71
NtRp1343
(dp1344
g74
(dp1345
sg83
g1330
sg76
(lp1346
g69
(g70
g71
NtRp1347
(dp1348
g74
(dp1349
g82
I5
ssg83
g1343
sg76
(lp1350
S'index'
p1351
asbasbasbag69
(g85
g71
NtRp1352
(dp1353
g74
(dp1354
sg83
g79
sg76
(lp1355
g69
(g90
g71
NtRp1356
(dp1357
g74
(dp1358
g94
g95
ssg83
g1352
sg76
(lp1359
S'get_vars'
p1360
asbag69
(g90
g71
NtRp1361
(dp1362
g74
(dp1363
g101
g102
ssg83
g1352
sg76
(lp1364
S':'
asbag69
(g90
g71
NtRp1365
(dp1366
g74
(dp1367
sg83
g1352
sg76
(lp1368
g69
(g70
g71
NtRp1369
(dp1370
g74
(dp1371
g82
I5
ssg83
g1365
sg76
(lp1372
g69
(g78
g71
NtRp1373
(dp1374
g74
(dp1375
g82
I4
ssg83
Nsg76
(lp1376
sbasbasbasbag69
(g85
g71
NtRp1377
(dp1378
g74
(dp1379
sg83
g79
sg76
(lp1380
g69
(g90
g71
NtRp1381
(dp1382
g74
(dp1383
g94
g95
ssg83
g1377
sg76
(lp1384
S'global_settings'
p1385
asbag69
(g90
g71
NtRp1386
(dp1387
g74
(dp1388
g101
g102
ssg83
g1377
sg76
(lp1389
S':'
asbag69
(g90
g71
NtRp1390
(dp1391
g74
(dp1392
sg83
g1377
sg76
(lp1393
g69
(g70
g71
NtRp1394
(dp1395
g74
(dp1396
g82
I5
ssg83
g1390
sg76
(lp1397
g69
(g78
g71
NtRp1398
(dp1399
g74
(dp1400
g82
I4
ssg83
Nsg76
(lp1401
g69
(g85
g71
NtRp1402
(dp1403
g74
(dp1404
sg83
g1398
sg76
(lp1405
g69
(g90
g71
NtRp1406
(dp1407
g74
(dp1408
g94
g95
ssg83
g1402
sg76
(lp1409
g305
asbag69
(g90
g71
NtRp1410
(dp1411
g74
(dp1412
g101
g102
ssg83
g1402
sg76
(lp1413
S':'
asbag69
(g90
g71
NtRp1414
(dp1415
g74
(dp1416
sg83
g1402
sg76
(lp1417
g69
(g70
g71
NtRp1418
(dp1419
g74
(dp1420
g82
I4
ssg83
g1414
sg76
(lp1421
S"set(['C:\\\\Python27\\\\web2py\\\\applications\\\\admin\\\\', 'C:\\\\Python27\\\\web2py\\\\applications\\\\welcome\\\\', 'C:\\\\Python27\\\\web2py\\\\applications\\\\hw4\\\\'])"
p1422
asbasbasbag69
(g85
g71
NtRp1423
(dp1424
g74
(dp1425
sg83
g1398
sg76
(lp1426
g69
(g90
g71
NtRp1427
(dp1428
g74
(dp1429
g94
g95
ssg83
g1423
sg76
(lp1430
g327
asbag69
(g90
g71
NtRp1431
(dp1432
g74
(dp1433
g101
g102
ssg83
g1423
sg76
(lp1434
S':'
asbag69
(g90
g71
NtRp1435
(dp1436
g74
(dp1437
sg83
g1423
sg76
(lp1438
g69
(g70
g71
NtRp1439
(dp1440
g74
(dp1441
g82
I4
ssg83
g1435
sg76
(lp1442
g340
asbasbasbag69
(g85
g71
NtRp1443
(dp1444
g74
(dp1445
sg83
g1398
sg76
(lp1446
g69
(g90
g71
NtRp1447
(dp1448
g74
(dp1449
g94
g95
ssg83
g1443
sg76
(lp1450
g349
asbag69
(g90
g71
NtRp1451
(dp1452
g74
(dp1453
g101
g102
ssg83
g1443
sg76
(lp1454
S':'
asbag69
(g90
g71
NtRp1455
(dp1456
g74
(dp1457
sg83
g1443
sg76
(lp1458
g69
(g70
g71
NtRp1459
(dp1460
g74
(dp1461
g82
I4
ssg83
g1455
sg76
(lp1462
g69
(g78
g71
NtRp1463
(dp1464
g74
(dp1465
g82
I3
ssg83
Nsg76
(lp1466
sbasbasbasbag69
(g85
g71
NtRp1467
(dp1468
g74
(dp1469
sg83
g1398
sg76
(lp1470
g69
(g90
g71
NtRp1471
(dp1472
g74
(dp1473
g94
g95
ssg83
g1467
sg76
(lp1474
g374
asbag69
(g90
g71
NtRp1475
(dp1476
g74
(dp1477
g101
g102
ssg83
g1467
sg76
(lp1478
S':'
asbag69
(g90
g71
NtRp1479
(dp1480
g74
(dp1481
sg83
g1467
sg76
(lp1482
g69
(g70
g71
NtRp1483
(dp1484
g74
(dp1485
g82
I4
ssg83
g1479
sg76
(lp1486
S"<Values at 0x17c00f8: {'verbose': False, 'ip': '127.0.0.1', 'with_scheduler': False, 'ips': ['192.168.1.101'], 'shutdown_timeout': 5, 'taskbar': False, 'port': 8000, 'maxthreads': None, 'softcron': False, 'server_name': 'FREESKYC-5359CC', 'bpython': False, 'nogui': False, 'pid_filename': 'httpserver.pid', 'extcron': False, 'runcron': False, 'run_system_tests': False, 'test': None, 'folder': 'C:\\\\Python27\\\\web2py', 'config': '', 'import_models': False, 'winservice': '', 'shell': None, 'run': '', 'log_filename': 'httpserver.log', 'debuglevel': 30, 'args': [''], 'socket_timeout': 5, 'ssl_ca_certificate': None, 'scheduler': None, 'profiler_filename': None, 'ssl_private_key': '', 'scheduler_groups': None, 'password': '<ask>', 'request_queue_size': 5, 'ssl_certificate': '', 'cronjob': False, 'numthreads': None, 'quiet': False, 'interfaces': None, 'minthreads': None, 'timeout': 10, 'plain': False, 'nobanner': False}>"
p1487
asbasbasbag69
(g85
g71
NtRp1488
(dp1489
g74
(dp1490
sg83
g1398
sg76
(lp1491
g69
(g90
g71
NtRp1492
(dp1493
g74
(dp1494
g94
g95
ssg83
g1488
sg76
(lp1495
g396
asbag69
(g90
g71
NtRp1496
(dp1497
g74
(dp1498
g101
g102
ssg83
g1488
sg76
(lp1499
S':'
asbag69
(g90
g71
NtRp1500
(dp1501
g74
(dp1502
sg83
g1488
sg76
(lp1503
g69
(g70
g71
NtRp1504
(dp1505
g74
(dp1506
g82
I4
ssg83
g1500
sg76
(lp1507
S'set([])'
p1508
asbasbasbag69
(g85
g71
NtRp1509
(dp1510
g74
(dp1511
sg83
g1398
sg76
(lp1512
g69
(g90
g71
NtRp1513
(dp1514
g74
(dp1515
g94
g95
ssg83
g1509
sg76
(lp1516
g418
asbag69
(g90
g71
NtRp1517
(dp1518
g74
(dp1519
g101
g102
ssg83
g1509
sg76
(lp1520
S':'
asbag69
(g90
g71
NtRp1521
(dp1522
g74
(dp1523
sg83
g1509
sg76
(lp1524
g69
(g70
g71
NtRp1525
(dp1526
g74
(dp1527
g82
I4
ssg83
g1521
sg76
(lp1528
g112
asbasbasbag69
(g85
g71
NtRp1529
(dp1530
g74
(dp1531
sg83
g1398
sg76
(lp1532
g69
(g90
g71
NtRp1533
(dp1534
g74
(dp1535
g94
g95
ssg83
g1529
sg76
(lp1536
g439
asbag69
(g90
g71
NtRp1537
(dp1538
g74
(dp1539
g101
g102
ssg83
g1529
sg76
(lp1540
S':'
asbag69
(g90
g71
NtRp1541
(dp1542
g74
(dp1543
sg83
g1529
sg76
(lp1544
g69
(g70
g71
NtRp1545
(dp1546
g74
(dp1547
g82
I4
ssg83
g1541
sg76
(lp1548
g452
asbasbasbag69
(g85
g71
NtRp1549
(dp1550
g74
(dp1551
sg83
g1398
sg76
(lp1552
g69
(g90
g71
NtRp1553
(dp1554
g74
(dp1555
g94
g95
ssg83
g1549
sg76
(lp1556
g615
asbag69
(g90
g71
NtRp1557
(dp1558
g74
(dp1559
g101
g102
ssg83
g1549
sg76
(lp1560
S':'
asbag69
(g90
g71
NtRp1561
(dp1562
g74
(dp1563
sg83
g1549
sg76
(lp1564
g69
(g70
g71
NtRp1565
(dp1566
g74
(dp1567
g82
I4
ssg83
g1561
sg76
(lp1568
g112
asbasbasbag69
(g85
g71
NtRp1569
(dp1570
g74
(dp1571
sg83
g1398
sg76
(lp1572
g69
(g90
g71
NtRp1573
(dp1574
g74
(dp1575
g94
g95
ssg83
g1569
sg76
(lp1576
g636
asbag69
(g90
g71
NtRp1577
(dp1578
g74
(dp1579
g101
g102
ssg83
g1569
sg76
(lp1580
S':'
asbag69
(g90
g71
NtRp1581
(dp1582
g74
(dp1583
sg83
g1569
sg76
(lp1584
g69
(g70
g71
NtRp1585
(dp1586
g74
(dp1587
g82
I4
ssg83
g1581
sg76
(lp1588
g112
asbasbasbag69
(g85
g71
NtRp1589
(dp1590
g74
(dp1591
sg83
g1398
sg76
(lp1592
g69
(g90
g71
NtRp1593
(dp1594
g74
(dp1595
g94
g95
ssg83
g1589
sg76
(lp1596
g657
asbag69
(g90
g71
NtRp1597
(dp1598
g74
(dp1599
g101
g102
ssg83
g1589
sg76
(lp1600
S':'
asbag69
(g90
g71
NtRp1601
(dp1602
g74
(dp1603
sg83
g1589
sg76
(lp1604
g69
(g70
g71
NtRp1605
(dp1606
g74
(dp1607
g82
I4
ssg83
g1601
sg76
(lp1608
g69
(g78
g71
NtRp1609
(dp1610
g74
(dp1611
g82
I3
ssg83
Nsg76
(lp1612
g69
(g85
g71
NtRp1613
(dp1614
g74
(dp1615
sg83
g1609
sg76
(lp1616
g69
(g90
g71
NtRp1617
(dp1618
g74
(dp1619
sg83
g1613
sg76
(lp1620
g69
(g70
g71
NtRp1621
(dp1622
g74
(dp1623
g82
I3
ssg83
g1617
sg76
(lp1624
g686
asbasbasbag69
(g85
g71
NtRp1625
(dp1626
g74
(dp1627
sg83
g1609
sg76
(lp1628
g69
(g90
g71
NtRp1629
(dp1630
g74
(dp1631
sg83
g1625
sg76
(lp1632
g69
(g70
g71
NtRp1633
(dp1634
g74
(dp1635
g82
I3
ssg83
g1629
sg76
(lp1636
g699
asbasbasbag69
(g85
g71
NtRp1637
(dp1638
g74
(dp1639
sg83
g1609
sg76
(lp1640
g69
(g90
g71
NtRp1641
(dp1642
g74
(dp1643
sg83
g1637
sg76
(lp1644
g69
(g70
g71
NtRp1645
(dp1646
g74
(dp1647
g82
I3
ssg83
g1641
sg76
(lp1648
g712
asbasbasbag69
(g85
g71
NtRp1649
(dp1650
g74
(dp1651
sg83
g1609
sg76
(lp1652
g69
(g90
g71
NtRp1653
(dp1654
g74
(dp1655
sg83
g1649
sg76
(lp1656
g69
(g70
g71
NtRp1657
(dp1658
g74
(dp1659
g82
I3
ssg83
g1653
sg76
(lp1660
g725
asbasbasbag69
(g85
g71
NtRp1661
(dp1662
g74
(dp1663
sg83
g1609
sg76
(lp1664
g69
(g90
g71
NtRp1665
(dp1666
g74
(dp1667
sg83
g1661
sg76
(lp1668
g69
(g70
g71
NtRp1669
(dp1670
g74
(dp1671
g82
I3
ssg83
g1665
sg76
(lp1672
g738
asbasbasbasbasbasbasbag69
(g85
g71
NtRp1673
(dp1674
g74
(dp1675
sg83
g1398
sg76
(lp1676
g69
(g90
g71
NtRp1677
(dp1678
g74
(dp1679
g94
g95
ssg83
g1673
sg76
(lp1680
g1006
asbag69
(g90
g71
NtRp1681
(dp1682
g74
(dp1683
g101
g102
ssg83
g1673
sg76
(lp1684
S':'
asbag69
(g90
g71
NtRp1685
(dp1686
g74
(dp1687
sg83
g1673
sg76
(lp1688
g69
(g70
g71
NtRp1689
(dp1690
g74
(dp1691
g82
I4
ssg83
g1685
sg76
(lp1692
g69
(g78
g71
NtRp1693
(dp1694
g74
(dp1695
g82
I3
ssg83
Nsg76
(lp1696
g69
(g85
g71
NtRp1697
(dp1698
g74
(dp1699
sg83
g1693
sg76
(lp1700
g69
(g90
g71
NtRp1701
(dp1702
g74
(dp1703
sg83
g1697
sg76
(lp1704
g69
(g70
g71
NtRp1705
(dp1706
g74
(dp1707
g82
I3
ssg83
g1701
sg76
(lp1708
S'2'
asbasbasbag69
(g85
g71
NtRp1709
(dp1710
g74
(dp1711
sg83
g1693
sg76
(lp1712
g69
(g90
g71
NtRp1713
(dp1714
g74
(dp1715
sg83
g1709
sg76
(lp1716
g69
(g70
g71
NtRp1717
(dp1718
g74
(dp1719
g82
I3
ssg83
g1713
sg76
(lp1720
S'3'
asbasbasbag69
(g85
g71
NtRp1721
(dp1722
g74
(dp1723
sg83
g1693
sg76
(lp1724
g69
(g90
g71
NtRp1725
(dp1726
g74
(dp1727
sg83
g1721
sg76
(lp1728
g69
(g70
g71
NtRp1729
(dp1730
g74
(dp1731
g82
I3
ssg83
g1725
sg76
(lp1732
S'2'
asbasbasbag69
(g85
g71
NtRp1733
(dp1734
g74
(dp1735
sg83
g1693
sg76
(lp1736
g69
(g90
g71
NtRp1737
(dp1738
g74
(dp1739
sg83
g1733
sg76
(lp1740
g69
(g70
g71
NtRp1741
(dp1742
g74
(dp1743
g82
I3
ssg83
g1737
sg76
(lp1744
S'datetime.datetime(2012, 12, 17, 15, 3, 30)'
p1745
asbasbasbag69
(g85
g71
NtRp1746
(dp1747
g74
(dp1748
sg83
g1693
sg76
(lp1749
g69
(g90
g71
NtRp1750
(dp1751
g74
(dp1752
sg83
g1746
sg76
(lp1753
g69
(g70
g71
NtRp1754
(dp1755
g74
(dp1756
g82
I3
ssg83
g1750
sg76
(lp1757
g1084
asbasbasbasbasbasbasbasbasbasbasbag69
(g85
g71
NtRp1758
(dp1759
g74
(dp1760
sg83
g79
sg76
(lp1761
g69
(g90
g71
NtRp1762
(dp1763
g74
(dp1764
g94
g95
ssg83
g1758
sg76
(lp1765
S'is_https'
p1766
asbag69
(g90
g71
NtRp1767
(dp1768
g74
(dp1769
g101
g102
ssg83
g1758
sg76
(lp1770
S':'
asbag69
(g90
g71
NtRp1771
(dp1772
g74
(dp1773
sg83
g1758
sg76
(lp1774
g69
(g70
g71
NtRp1775
(dp1776
g74
(dp1777
g82
I5
ssg83
g1771
sg76
(lp1778
g112
asbasbasbag69
(g85
g71
NtRp1779
(dp1780
g74
(dp1781
sg83
g79
sg76
(lp1782
g69
(g90
g71
NtRp1783
(dp1784
g74
(dp1785
g94
g95
ssg83
g1779
sg76
(lp1786
S'is_local'
p1787
asbag69
(g90
g71
NtRp1788
(dp1789
g74
(dp1790
g101
g102
ssg83
g1779
sg76
(lp1791
S':'
asbag69
(g90
g71
NtRp1792
(dp1793
g74
(dp1794
sg83
g1779
sg76
(lp1795
g69
(g70
g71
NtRp1796
(dp1797
g74
(dp1798
g82
I5
ssg83
g1792
sg76
(lp1799
g1193
asbasbasbag69
(g85
g71
NtRp1800
(dp1801
g74
(dp1802
sg83
g79
sg76
(lp1803
g69
(g90
g71
NtRp1804
(dp1805
g74
(dp1806
g94
g95
ssg83
g1800
sg76
(lp1807
S'is_restful'
p1808
asbag69
(g90
g71
NtRp1809
(dp1810
g74
(dp1811
g101
g102
ssg83
g1800
sg76
(lp1812
S':'
asbag69
(g90
g71
NtRp1813
(dp1814
g74
(dp1815
sg83
g1800
sg76
(lp1816
g69
(g70
g71
NtRp1817
(dp1818
g74
(dp1819
g82
I5
ssg83
g1813
sg76
(lp1820
g112
asbasbasbag69
(g85
g71
NtRp1821
(dp1822
g74
(dp1823
sg83
g79
sg76
(lp1824
g69
(g90
g71
NtRp1825
(dp1826
g74
(dp1827
g94
g95
ssg83
g1821
sg76
(lp1828
S'now'
p1829
asbag69
(g90
g71
NtRp1830
(dp1831
g74
(dp1832
g101
g102
ssg83
g1821
sg76
(lp1833
S':'
asbag69
(g90
g71
NtRp1834
(dp1835
g74
(dp1836
sg83
g1821
sg76
(lp1837
g69
(g70
g71
NtRp1838
(dp1839
g74
(dp1840
g82
I5
ssg83
g1834
sg76
(lp1841
S'datetime.datetime(2013, 8, 31, 21, 8, 48, 796000)'
p1842
asbasbasbag69
(g85
g71
NtRp1843
(dp1844
g74
(dp1845
sg83
g79
sg76
(lp1846
g69
(g90
g71
NtRp1847
(dp1848
g74
(dp1849
g94
g95
ssg83
g1843
sg76
(lp1850
S'post_vars'
p1851
asbag69
(g90
g71
NtRp1852
(dp1853
g74
(dp1854
g101
g102
ssg83
g1843
sg76
(lp1855
S':'
asbag69
(g90
g71
NtRp1856
(dp1857
g74
(dp1858
sg83
g1843
sg76
(lp1859
g69
(g70
g71
NtRp1860
(dp1861
g74
(dp1862
g82
I5
ssg83
g1856
sg76
(lp1863
g69
(g78
g71
NtRp1864
(dp1865
g74
(dp1866
g82
I4
ssg83
Nsg76
(lp1867
sbasbasbasbag69
(g85
g71
NtRp1868
(dp1869
g74
(dp1870
sg83
g79
sg76
(lp1871
g69
(g90
g71
NtRp1872
(dp1873
g74
(dp1874
g94
g95
ssg83
g1868
sg76
(lp1875
S'raw_args'
p1876
asbag69
(g90
g71
NtRp1877
(dp1878
g74
(dp1879
g101
g102
ssg83
g1868
sg76
(lp1880
S':'
asbag69
(g90
g71
NtRp1881
(dp1882
g74
(dp1883
sg83
g1868
sg76
(lp1884
g69
(g70
g71
NtRp1885
(dp1886
g74
(dp1887
g82
I5
ssg83
g1881
sg76
(lp1888
S''
asbasbasbag69
(g85
g71
NtRp1889
(dp1890
g74
(dp1891
sg83
g79
sg76
(lp1892
g69
(g90
g71
NtRp1893
(dp1894
g74
(dp1895
g94
g95
ssg83
g1889
sg76
(lp1896
S'raw_extension'
p1897
asbag69
(g90
g71
NtRp1898
(dp1899
g74
(dp1900
g101
g102
ssg83
g1889
sg76
(lp1901
S':'
asbag69
(g90
g71
NtRp1902
(dp1903
g74
(dp1904
sg83
g1889
sg76
(lp1905
g69
(g70
g71
NtRp1906
(dp1907
g74
(dp1908
g82
I5
ssg83
g1902
sg76
(lp1909
S'None'
p1910
asbasbasbag69
(g85
g71
NtRp1911
(dp1912
g74
(dp1913
sg83
g79
sg76
(lp1914
g69
(g90
g71
NtRp1915
(dp1916
g74
(dp1917
g94
g95
ssg83
g1911
sg76
(lp1918
S'url'
p1919
asbag69
(g90
g71
NtRp1920
(dp1921
g74
(dp1922
g101
g102
ssg83
g1911
sg76
(lp1923
S':'
asbag69
(g90
g71
NtRp1924
(dp1925
g74
(dp1926
sg83
g1911
sg76
(lp1927
g69
(g70
g71
NtRp1928
(dp1929
g74
(dp1930
g82
I5
ssg83
g1924
sg76
(lp1931
g760
asbasbasbag69
(g85
g71
NtRp1932
(dp1933
g74
(dp1934
sg83
g79
sg76
(lp1935
g69
(g90
g71
NtRp1936
(dp1937
g74
(dp1938
g94
g95
ssg83
g1932
sg76
(lp1939
S'utcnow'
p1940
asbag69
(g90
g71
NtRp1941
(dp1942
g74
(dp1943
g101
g102
ssg83
g1932
sg76
(lp1944
S':'
asbag69
(g90
g71
NtRp1945
(dp1946
g74
(dp1947
sg83
g1932
sg76
(lp1948
g69
(g70
g71
NtRp1949
(dp1950
g74
(dp1951
g82
I5
ssg83
g1945
sg76
(lp1952
S'datetime.datetime(2013, 8, 31, 13, 8, 49, 125000)'
p1953
asbasbasbag69
(g85
g71
NtRp1954
(dp1955
g74
(dp1956
sg83
g79
sg76
(lp1957
g69
(g90
g71
NtRp1958
(dp1959
g74
(dp1960
g94
g95
ssg83
g1954
sg76
(lp1961
S'uuid'
p1962
asbag69
(g90
g71
NtRp1963
(dp1964
g74
(dp1965
g101
g102
ssg83
g1954
sg76
(lp1966
S':'
asbag69
(g90
g71
NtRp1967
(dp1968
g74
(dp1969
sg83
g1954
sg76
(lp1970
g69
(g70
g71
NtRp1971
(dp1972
g74
(dp1973
g82
I5
ssg83
g1967
sg76
(lp1974
S'hw4/127.0.0.1.2013-08-31.21-08-48.e7575061-e14b-42cd-a126-7d09525f7001'
p1975
asbasbasbag69
(g85
g71
NtRp1976
(dp1977
g74
(dp1978
sg83
g79
sg76
(lp1979
g69
(g90
g71
NtRp1980
(dp1981
g74
(dp1982
g94
g95
ssg83
g1976
sg76
(lp1983
S'vars'
p1984
asbag69
(g90
g71
NtRp1985
(dp1986
g74
(dp1987
g101
g102
ssg83
g1976
sg76
(lp1988
S':'
asbag69
(g90
g71
NtRp1989
(dp1990
g74
(dp1991
sg83
g1976
sg76
(lp1992
g69
(g70
g71
NtRp1993
(dp1994
g74
(dp1995
g82
I5
ssg83
g1989
sg76
(lp1996
g69
(g78
g71
NtRp1997
(dp1998
g74
(dp1999
g82
I4
ssg83
Nsg76
(lp2000
sbasbasbasbag69
(g85
g71
NtRp2001
(dp2002
g74
(dp2003
sg83
g79
sg76
(lp2004
g69
(g90
g71
NtRp2005
(dp2006
g74
(dp2007
g94
g95
ssg83
g2001
sg76
(lp2008
S'wsgi'
p2009
asbag69
(g90
g71
NtRp2010
(dp2011
g74
(dp2012
g101
g102
ssg83
g2001
sg76
(lp2013
S':'
asbag69
(g90
g71
NtRp2014
(dp2015
g74
(dp2016
sg83
g2001
sg76
(lp2017
g69
(g70
g71
NtRp2018
(dp2019
g74
(dp2020
g82
I5
ssg83
g2014
sg76
(lp2021
g69
(g78
g71
NtRp2022
(dp2023
g74
(dp2024
g82
I4
ssg83
Nsg76
(lp2025
g69
(g85
g71
NtRp2026
(dp2027
g74
(dp2028
sg83
g2022
sg76
(lp2029
g69
(g90
g71
NtRp2030
(dp2031
g74
(dp2032
g94
g95
ssg83
g2026
sg76
(lp2033
S'environ'
p2034
asbag69
(g90
g71
NtRp2035
(dp2036
g74
(dp2037
g101
g102
ssg83
g2026
sg76
(lp2038
S':'
asbag69
(g90
g71
NtRp2039
(dp2040
g74
(dp2041
sg83
g2026
sg76
(lp2042
g69
(g70
g71
NtRp2043
(dp2044
g74
(dp2045
g82
I4
ssg83
g2039
sg76
(lp2046
g69
(g78
g71
NtRp2047
(dp2048
g74
(dp2049
g82
I3
ssg83
Nsg76
(lp2050
g69
(g85
g71
NtRp2051
(dp2052
g74
(dp2053
sg83
g2047
sg76
(lp2054
g69
(g90
g71
NtRp2055
(dp2056
g74
(dp2057
g94
g95
ssg83
g2051
sg76
(lp2058
S'HTTP_ACCEPT'
p2059
asbag69
(g90
g71
NtRp2060
(dp2061
g74
(dp2062
g101
g102
ssg83
g2051
sg76
(lp2063
S':'
asbag69
(g90
g71
NtRp2064
(dp2065
g74
(dp2066
sg83
g2051
sg76
(lp2067
g69
(g70
g71
NtRp2068
(dp2069
g74
(dp2070
g82
I3
ssg83
g2064
sg76
(lp2071
g474
asbasbasbag69
(g85
g71
NtRp2072
(dp2073
g74
(dp2074
sg83
g2047
sg76
(lp2075
g69
(g90
g71
NtRp2076
(dp2077
g74
(dp2078
g94
g95
ssg83
g2072
sg76
(lp2079
S'HTTP_ACCEPT_CHARSET'
p2080
asbag69
(g90
g71
NtRp2081
(dp2082
g74
(dp2083
g101
g102
ssg83
g2072
sg76
(lp2084
S':'
asbag69
(g90
g71
NtRp2085
(dp2086
g74
(dp2087
sg83
g2072
sg76
(lp2088
g69
(g70
g71
NtRp2089
(dp2090
g74
(dp2091
g82
I3
ssg83
g2085
sg76
(lp2092
g496
asbasbasbag69
(g85
g71
NtRp2093
(dp2094
g74
(dp2095
sg83
g2047
sg76
(lp2096
g69
(g90
g71
NtRp2097
(dp2098
g74
(dp2099
g94
g95
ssg83
g2093
sg76
(lp2100
S'HTTP_ACCEPT_ENCODING'
p2101
asbag69
(g90
g71
NtRp2102
(dp2103
g74
(dp2104
g101
g102
ssg83
g2093
sg76
(lp2105
S':'
asbag69
(g90
g71
NtRp2106
(dp2107
g74
(dp2108
sg83
g2093
sg76
(lp2109
g69
(g70
g71
NtRp2110
(dp2111
g74
(dp2112
g82
I3
ssg83
g2106
sg76
(lp2113
g518
asbasbasbag69
(g85
g71
NtRp2114
(dp2115
g74
(dp2116
sg83
g2047
sg76
(lp2117
g69
(g90
g71
NtRp2118
(dp2119
g74
(dp2120
g94
g95
ssg83
g2114
sg76
(lp2121
S'HTTP_ACCEPT_LANGUAGE'
p2122
asbag69
(g90
g71
NtRp2123
(dp2124
g74
(dp2125
g101
g102
ssg83
g2114
sg76
(lp2126
S':'
asbag69
(g90
g71
NtRp2127
(dp2128
g74
(dp2129
sg83
g2114
sg76
(lp2130
g69
(g70
g71
NtRp2131
(dp2132
g74
(dp2133
g82
I3
ssg83
g2127
sg76
(lp2134
g540
asbasbasbag69
(g85
g71
NtRp2135
(dp2136
g74
(dp2137
sg83
g2047
sg76
(lp2138
g69
(g90
g71
NtRp2139
(dp2140
g74
(dp2141
g94
g95
ssg83
g2135
sg76
(lp2142
S'HTTP_CONNECTION'
p2143
asbag69
(g90
g71
NtRp2144
(dp2145
g74
(dp2146
g101
g102
ssg83
g2135
sg76
(lp2147
S':'
asbag69
(g90
g71
NtRp2148
(dp2149
g74
(dp2150
sg83
g2135
sg76
(lp2151
g69
(g70
g71
NtRp2152
(dp2153
g74
(dp2154
g82
I3
ssg83
g2148
sg76
(lp2155
g562
asbasbasbag69
(g85
g71
NtRp2156
(dp2157
g74
(dp2158
sg83
g2047
sg76
(lp2159
g69
(g90
g71
NtRp2160
(dp2161
g74
(dp2162
g94
g95
ssg83
g2156
sg76
(lp2163
S'HTTP_HOST'
p2164
asbag69
(g90
g71
NtRp2165
(dp2166
g74
(dp2167
g101
g102
ssg83
g2156
sg76
(lp2168
S':'
asbag69
(g90
g71
NtRp2169
(dp2170
g74
(dp2171
sg83
g2156
sg76
(lp2172
g69
(g70
g71
NtRp2173
(dp2174
g74
(dp2175
g82
I3
ssg83
g2169
sg76
(lp2176
g584
asbasbasbag69
(g85
g71
NtRp2177
(dp2178
g74
(dp2179
sg83
g2047
sg76
(lp2180
g69
(g90
g71
NtRp2181
(dp2182
g74
(dp2183
g94
g95
ssg83
g2177
sg76
(lp2184
S'HTTP_USER_AGENT'
p2185
asbag69
(g90
g71
NtRp2186
(dp2187
g74
(dp2188
g101
g102
ssg83
g2177
sg76
(lp2189
S':'
asbag69
(g90
g71
NtRp2190
(dp2191
g74
(dp2192
sg83
g2177
sg76
(lp2193
g69
(g70
g71
NtRp2194
(dp2195
g74
(dp2196
g82
I3
ssg83
g2190
sg76
(lp2197
g606
asbasbasbag69
(g85
g71
NtRp2198
(dp2199
g74
(dp2200
sg83
g2047
sg76
(lp2201
g69
(g90
g71
NtRp2202
(dp2203
g74
(dp2204
g94
g95
ssg83
g2198
sg76
(lp2205
S'PATH_INFO'
p2206
asbag69
(g90
g71
NtRp2207
(dp2208
g74
(dp2209
g101
g102
ssg83
g2198
sg76
(lp2210
S':'
asbag69
(g90
g71
NtRp2211
(dp2212
g74
(dp2213
sg83
g2198
sg76
(lp2214
g69
(g70
g71
NtRp2215
(dp2216
g74
(dp2217
g82
I3
ssg83
g2211
sg76
(lp2218
g760
asbasbasbag69
(g85
g71
NtRp2219
(dp2220
g74
(dp2221
sg83
g2047
sg76
(lp2222
g69
(g90
g71
NtRp2223
(dp2224
g74
(dp2225
g94
g95
ssg83
g2219
sg76
(lp2226
S'QUERY_STRING'
p2227
asbag69
(g90
g71
NtRp2228
(dp2229
g74
(dp2230
g101
g102
ssg83
g2219
sg76
(lp2231
S':'
asbag69
(g90
g71
NtRp2232
(dp2233
g74
(dp2234
sg83
g2219
sg76
(lp2235
g69
(g70
g71
NtRp2236
(dp2237
g74
(dp2238
g82
I3
ssg83
g2232
sg76
(lp2239
S''
asbasbasbag69
(g85
g71
NtRp2240
(dp2241
g74
(dp2242
sg83
g2047
sg76
(lp2243
g69
(g90
g71
NtRp2244
(dp2245
g74
(dp2246
g94
g95
ssg83
g2240
sg76
(lp2247
S'REMOTE_ADDR'
p2248
asbag69
(g90
g71
NtRp2249
(dp2250
g74
(dp2251
g101
g102
ssg83
g2240
sg76
(lp2252
S':'
asbag69
(g90
g71
NtRp2253
(dp2254
g74
(dp2255
sg83
g2240
sg76
(lp2256
g69
(g70
g71
NtRp2257
(dp2258
g74
(dp2259
g82
I3
ssg83
g2253
sg76
(lp2260
g224
asbasbasbag69
(g85
g71
NtRp2261
(dp2262
g74
(dp2263
sg83
g2047
sg76
(lp2264
g69
(g90
g71
NtRp2265
(dp2266
g74
(dp2267
g94
g95
ssg83
g2261
sg76
(lp2268
S'REMOTE_PORT'
p2269
asbag69
(g90
g71
NtRp2270
(dp2271
g74
(dp2272
g101
g102
ssg83
g2261
sg76
(lp2273
S':'
asbag69
(g90
g71
NtRp2274
(dp2275
g74
(dp2276
sg83
g2261
sg76
(lp2277
g69
(g70
g71
NtRp2278
(dp2279
g74
(dp2280
g82
I3
ssg83
g2274
sg76
(lp2281
g824
asbasbasbag69
(g85
g71
NtRp2282
(dp2283
g74
(dp2284
sg83
g2047
sg76
(lp2285
g69
(g90
g71
NtRp2286
(dp2287
g74
(dp2288
g94
g95
ssg83
g2282
sg76
(lp2289
S'REQUEST_METHOD'
p2290
asbag69
(g90
g71
NtRp2291
(dp2292
g74
(dp2293
g101
g102
ssg83
g2282
sg76
(lp2294
S':'
asbag69
(g90
g71
NtRp2295
(dp2296
g74
(dp2297
sg83
g2282
sg76
(lp2298
g69
(g70
g71
NtRp2299
(dp2300
g74
(dp2301
g82
I3
ssg83
g2295
sg76
(lp2302
g846
asbasbasbag69
(g85
g71
NtRp2303
(dp2304
g74
(dp2305
sg83
g2047
sg76
(lp2306
g69
(g90
g71
NtRp2307
(dp2308
g74
(dp2309
g94
g95
ssg83
g2303
sg76
(lp2310
S'REQUEST_URI'
p2311
asbag69
(g90
g71
NtRp2312
(dp2313
g74
(dp2314
g101
g102
ssg83
g2303
sg76
(lp2315
S':'
asbag69
(g90
g71
NtRp2316
(dp2317
g74
(dp2318
sg83
g2303
sg76
(lp2319
g69
(g70
g71
NtRp2320
(dp2321
g74
(dp2322
g82
I3
ssg83
g2316
sg76
(lp2323
g760
asbasbasbag69
(g85
g71
NtRp2324
(dp2325
g74
(dp2326
sg83
g2047
sg76
(lp2327
g69
(g90
g71
NtRp2328
(dp2329
g74
(dp2330
g94
g95
ssg83
g2324
sg76
(lp2331
S'SCRIPT_NAME'
p2332
asbag69
(g90
g71
NtRp2333
(dp2334
g74
(dp2335
g101
g102
ssg83
g2324
sg76
(lp2336
S':'
asbag69
(g90
g71
NtRp2337
(dp2338
g74
(dp2339
sg83
g2324
sg76
(lp2340
g69
(g70
g71
NtRp2341
(dp2342
g74
(dp2343
g82
I3
ssg83
g2337
sg76
(lp2344
S''
asbasbasbag69
(g85
g71
NtRp2345
(dp2346
g74
(dp2347
sg83
g2047
sg76
(lp2348
g69
(g90
g71
NtRp2349
(dp2350
g74
(dp2351
g94
g95
ssg83
g2345
sg76
(lp2352
S'SERVER_NAME'
p2353
asbag69
(g90
g71
NtRp2354
(dp2355
g74
(dp2356
g101
g102
ssg83
g2345
sg76
(lp2357
S':'
asbag69
(g90
g71
NtRp2358
(dp2359
g74
(dp2360
sg83
g2345
sg76
(lp2361
g69
(g70
g71
NtRp2362
(dp2363
g74
(dp2364
g82
I3
ssg83
g2358
sg76
(lp2365
g910
asbasbasbag69
(g85
g71
NtRp2366
(dp2367
g74
(dp2368
sg83
g2047
sg76
(lp2369
g69
(g90
g71
NtRp2370
(dp2371
g74
(dp2372
g94
g95
ssg83
g2366
sg76
(lp2373
S'SERVER_PORT'
p2374
asbag69
(g90
g71
NtRp2375
(dp2376
g74
(dp2377
g101
g102
ssg83
g2366
sg76
(lp2378
S':'
asbag69
(g90
g71
NtRp2379
(dp2380
g74
(dp2381
sg83
g2366
sg76
(lp2382
g69
(g70
g71
NtRp2383
(dp2384
g74
(dp2385
g82
I3
ssg83
g2379
sg76
(lp2386
g932
asbasbasbag69
(g85
g71
NtRp2387
(dp2388
g74
(dp2389
sg83
g2047
sg76
(lp2390
g69
(g90
g71
NtRp2391
(dp2392
g74
(dp2393
g94
g95
ssg83
g2387
sg76
(lp2394
S'SERVER_PROTOCOL'
p2395
asbag69
(g90
g71
NtRp2396
(dp2397
g74
(dp2398
g101
g102
ssg83
g2387
sg76
(lp2399
S':'
asbag69
(g90
g71
NtRp2400
(dp2401
g74
(dp2402
sg83
g2387
sg76
(lp2403
g69
(g70
g71
NtRp2404
(dp2405
g74
(dp2406
g82
I3
ssg83
g2400
sg76
(lp2407
g954
asbasbasbag69
(g85
g71
NtRp2408
(dp2409
g74
(dp2410
sg83
g2047
sg76
(lp2411
g69
(g90
g71
NtRp2412
(dp2413
g74
(dp2414
g94
g95
ssg83
g2408
sg76
(lp2415
S'SERVER_SOFTWARE'
p2416
asbag69
(g90
g71
NtRp2417
(dp2418
g74
(dp2419
g101
g102
ssg83
g2408
sg76
(lp2420
S':'
asbag69
(g90
g71
NtRp2421
(dp2422
g74
(dp2423
sg83
g2408
sg76
(lp2424
g69
(g70
g71
NtRp2425
(dp2426
g74
(dp2427
g82
I3
ssg83
g2421
sg76
(lp2428
g976
asbasbasbag69
(g85
g71
NtRp2429
(dp2430
g74
(dp2431
sg83
g2047
sg76
(lp2432
g69
(g90
g71
NtRp2433
(dp2434
g74
(dp2435
g94
g95
ssg83
g2429
sg76
(lp2436
S'wsgi.errors'
p2437
asbag69
(g90
g71
NtRp2438
(dp2439
g74
(dp2440
g101
g102
ssg83
g2429
sg76
(lp2441
S':'
asbag69
(g90
g71
NtRp2442
(dp2443
g74
(dp2444
sg83
g2429
sg76
(lp2445
g69
(g70
g71
NtRp2446
(dp2447
g74
(dp2448
g82
I3
ssg83
g2442
sg76
(lp2449
S"<open file '<stderr>', mode 'w' at 0x00AD50D0>"
p2450
asbasbasbag69
(g85
g71
NtRp2451
(dp2452
g74
(dp2453
sg83
g2047
sg76
(lp2454
g69
(g90
g71
NtRp2455
(dp2456
g74
(dp2457
g94
g95
ssg83
g2451
sg76
(lp2458
S'wsgi.file_wrapper'
p2459
asbag69
(g90
g71
NtRp2460
(dp2461
g74
(dp2462
g101
g102
ssg83
g2451
sg76
(lp2463
S':'
asbag69
(g90
g71
NtRp2464
(dp2465
g74
(dp2466
sg83
g2451
sg76
(lp2467
g69
(g70
g71
NtRp2468
(dp2469
g74
(dp2470
g82
I3
ssg83
g2464
sg76
(lp2471
S'<class wsgiref.util.FileWrapper at 0x01736C38>'
p2472
asbasbasbag69
(g85
g71
NtRp2473
(dp2474
g74
(dp2475
sg83
g2047
sg76
(lp2476
g69
(g90
g71
NtRp2477
(dp2478
g74
(dp2479
g94
g95
ssg83
g2473
sg76
(lp2480
S'wsgi.input'
p2481
asbag69
(g90
g71
NtRp2482
(dp2483
g74
(dp2484
g101
g102
ssg83
g2473
sg76
(lp2485
S':'
asbag69
(g90
g71
NtRp2486
(dp2487
g74
(dp2488
sg83
g2473
sg76
(lp2489
g69
(g70
g71
NtRp2490
(dp2491
g74
(dp2492
g82
I3
ssg83
g2486
sg76
(lp2493
S'<cStringIO.StringO object at 0x0663FC60>'
p2494
asbasbasbag69
(g85
g71
NtRp2495
(dp2496
g74
(dp2497
sg83
g2047
sg76
(lp2498
g69
(g90
g71
NtRp2499
(dp2500
g74
(dp2501
g94
g95
ssg83
g2495
sg76
(lp2502
S'wsgi.multiprocess'
p2503
asbag69
(g90
g71
NtRp2504
(dp2505
g74
(dp2506
g101
g102
ssg83
g2495
sg76
(lp2507
S':'
asbag69
(g90
g71
NtRp2508
(dp2509
g74
(dp2510
sg83
g2495
sg76
(lp2511
g69
(g70
g71
NtRp2512
(dp2513
g74
(dp2514
g82
I3
ssg83
g2508
sg76
(lp2515
g112
asbasbasbag69
(g85
g71
NtRp2516
(dp2517
g74
(dp2518
sg83
g2047
sg76
(lp2519
g69
(g90
g71
NtRp2520
(dp2521
g74
(dp2522
g94
g95
ssg83
g2516
sg76
(lp2523
S'wsgi.multithread'
p2524
asbag69
(g90
g71
NtRp2525
(dp2526
g74
(dp2527
g101
g102
ssg83
g2516
sg76
(lp2528
S':'
asbag69
(g90
g71
NtRp2529
(dp2530
g74
(dp2531
sg83
g2516
sg76
(lp2532
g69
(g70
g71
NtRp2533
(dp2534
g74
(dp2535
g82
I3
ssg83
g2529
sg76
(lp2536
g1193
asbasbasbag69
(g85
g71
NtRp2537
(dp2538
g74
(dp2539
sg83
g2047
sg76
(lp2540
g69
(g90
g71
NtRp2541
(dp2542
g74
(dp2543
g94
g95
ssg83
g2537
sg76
(lp2544
S'wsgi.run_once'
p2545
asbag69
(g90
g71
NtRp2546
(dp2547
g74
(dp2548
g101
g102
ssg83
g2537
sg76
(lp2549
S':'
asbag69
(g90
g71
NtRp2550
(dp2551
g74
(dp2552
sg83
g2537
sg76
(lp2553
g69
(g70
g71
NtRp2554
(dp2555
g74
(dp2556
g82
I3
ssg83
g2550
sg76
(lp2557
g112
asbasbasbag69
(g85
g71
NtRp2558
(dp2559
g74
(dp2560
sg83
g2047
sg76
(lp2561
g69
(g90
g71
NtRp2562
(dp2563
g74
(dp2564
g94
g95
ssg83
g2558
sg76
(lp2565
S'wsgi.url_scheme'
p2566
asbag69
(g90
g71
NtRp2567
(dp2568
g74
(dp2569
g101
g102
ssg83
g2558
sg76
(lp2570
S':'
asbag69
(g90
g71
NtRp2571
(dp2572
g74
(dp2573
sg83
g2558
sg76
(lp2574
g69
(g70
g71
NtRp2575
(dp2576
g74
(dp2577
g82
I3
ssg83
g2571
sg76
(lp2578
g1236
asbasbasbag69
(g85
g71
NtRp2579
(dp2580
g74
(dp2581
sg83
g2047
sg76
(lp2582
g69
(g90
g71
NtRp2583
(dp2584
g74
(dp2585
g94
g95
ssg83
g2579
sg76
(lp2586
S'wsgi.version'
p2587
asbag69
(g90
g71
NtRp2588
(dp2589
g74
(dp2590
g101
g102
ssg83
g2579
sg76
(lp2591
S':'
asbag69
(g90
g71
NtRp2592
(dp2593
g74
(dp2594
sg83
g2579
sg76
(lp2595
g69
(g70
g71
NtRp2596
(dp2597
g74
(dp2598
g82
I3
ssg83
g2592
sg76
(lp2599
S'1'
asbasbasbasbasbasbasbasbasbasbasbasbasbsS'frames'
p2600
(lp2601
(dp2602
S'file'
p2603
S'C:\\Python27\\web2py\\gluon\\restricted.py'
p2604
sS'dump'
p2605
(dp2606
S'code'
p2607
S'"# -*- coding: utf-8 -*-\\n\\n#######################...bel=\'\\xe6\\x88\\x90\\xe7\\xbb\\xa9\',requires=IS_IN_SET([80,90,70,60,50])"'
p2608
sS'layer'
p2609
S"r'C:\\Python27\\web2py\\applications\\hw4\\models\\db.py'"
p2610
sS'global compile2'
p2611
S'<function compile2>'
p2612
sS'ccode'
p2613
S'undefined'
p2614
ssS'lnum'
p2615
I211
sS'lines'
p2616
(dp2617
I206
S"    environment['__name__'] = '__restricted__'"
p2618
sI207
S'    try:'
p2619
sI208
S'        if isinstance(code, types.CodeType):'
p2620
sI209
S'            ccode = code'
p2621
sI210
S'        else:'
p2622
sI211
S'            ccode = compile2(code, layer)'
p2623
sI212
S'        exec ccode in environment'
p2624
sI213
S'    except HTTP:'
p2625
sI214
S'        raise'
p2626
sI215
S'    except RestrictedError:'
p2627
ssS'call'
p2628
S'(code="# -*- coding: utf-8 -*-\\n\\n#######################...bel=\'\\xe6\\x88\\x90\\xe7\\xbb\\xa9\',requires=IS_IN_SET([80,90,70,60,50])", environment={\'A\': <class \'gluon.html.A\'>, \'B\': <class \'gluon.html.B\'>, \'BEAUTIFY\': <class \'gluon.html.BEAUTIFY\'>, \'BODY\': <class \'gluon.html.BODY\'>, \'BR\': <class \'gluon.html.BR\'>, \'BUTTON\': <class \'gluon.html.BUTTON\'>, \'CAT\': <class \'gluon.html.CAT\'>, \'CENTER\': <class \'gluon.html.CENTER\'>, \'CLEANUP\': <class \'gluon.validators.CLEANUP\'>, \'CODE\': <class \'gluon.html.CODE\'>, ...}, layer=r\'C:\\Python27\\web2py\\applications\\hw4\\models\\db.py\')'
p2629
sS'func'
p2630
S'restricted'
p2631
sa(dp2632
g2603
S'C:\\Python27\\web2py\\gluon\\restricted.py'
p2633
sg2605
(dp2634
S'builtincompile'
p2635
S'<built-in function compile>'
p2636
sS'code'
p2637
S'"# -*- coding: utf-8 -*-\\n\\n#######################...bel=\'\\xe6\\x88\\x90\\xe7\\xbb\\xa9\',requires=IS_IN_SET([80,90,70,60,50])"'
p2638
sS'code.rstrip'
p2639
S'<built-in method rstrip of str object>'
p2640
sS').replace'
p2641
g2614
sS'layer'
p2642
S"r'C:\\Python27\\web2py\\applications\\hw4\\models\\db.py'"
p2643
ssg2615
I194
sg2616
(dp2644
I192
S"    The +'\\n' is necessary else compile fails when code ends in a comment."
p2645
sI193
S'    """'
p2646
sI194
S"    return compile(code.rstrip().replace('\\r\\n', '\\n') + '\\n', layer, 'exec')"
p2647
sI195
S''
sI196
S''
sI197
S"def restricted(code, environment=None, layer='Unknown'):"
p2648
sI198
S'    """'
p2649
sI189
S''
sI190
S'def compile2(code, layer):'
p2650
sI191
S'    """'
p2651
ssg2628
S'(code="# -*- coding: utf-8 -*-\\n\\n#######################...bel=\'\\xe6\\x88\\x90\\xe7\\xbb\\xa9\',requires=IS_IN_SET([80,90,70,60,50])", layer=r\'C:\\Python27\\web2py\\applications\\hw4\\models\\db.py\')'
p2652
sg2630
S'compile2'
p2653
sasS'pyver'
p2654
S'Python 2.7.3: C:\\Python27\\python.exe'
p2655
sS'session'
p2656
g69
(g70
g71
NtRp2657
(dp2658
g74
(dp2659
sg76
(lp2660
g69
(g78
g71
NtRp2661
(dp2662
g74
(dp2663
g82
I5
ssg83
Nsg76
(lp2664
sbasbsS'etype'
p2665
S"<type 'exceptions.SyntaxError'>"
p2666
sS'date'
p2667
S'Sat Aug 31 21:09:07 2013'
p2668
sS'response'
p2669
g69
(g70
g71
NtRp2670
(dp2671
g74
(dp2672
sg76
(lp2673
g69
(g78
g71
NtRp2674
(dp2675
g74
(dp2676
g82
I5
ssg83
Nsg76
(lp2677
g69
(g85
g71
NtRp2678
(dp2679
g74
(dp2680
sg83
g2674
sg76
(lp2681
g69
(g90
g71
NtRp2682
(dp2683
g74
(dp2684
g94
g95
ssg83
g2678
sg76
(lp2685
g167
asbag69
(g90
g71
NtRp2686
(dp2687
g74
(dp2688
g101
g102
ssg83
g2678
sg76
(lp2689
S':'
asbag69
(g90
g71
NtRp2690
(dp2691
g74
(dp2692
sg83
g2678
sg76
(lp2693
g69
(g70
g71
NtRp2694
(dp2695
g74
(dp2696
g82
I5
ssg83
g2690
sg76
(lp2697
S'<cStringIO.StringO object at 0x0660A800>'
p2698
asbasbasbag69
(g85
g71
NtRp2699
(dp2700
g74
(dp2701
sg83
g2674
sg76
(lp2702
g69
(g90
g71
NtRp2703
(dp2704
g74
(dp2705
g94
g95
ssg83
g2699
sg76
(lp2706
g255
asbag69
(g90
g71
NtRp2707
(dp2708
g74
(dp2709
g101
g102
ssg83
g2699
sg76
(lp2710
S':'
asbag69
(g90
g71
NtRp2711
(dp2712
g74
(dp2713
sg83
g2699
sg76
(lp2714
g69
(g70
g71
NtRp2715
(dp2716
g74
(dp2717
g82
I5
ssg83
g2711
sg76
(lp2718
g69
(g78
g71
NtRp2719
(dp2720
g74
(dp2721
g82
I4
ssg83
Nsg76
(lp2722
g69
(g85
g71
NtRp2723
(dp2724
g74
(dp2725
sg83
g2719
sg76
(lp2726
g69
(g90
g71
NtRp2727
(dp2728
g74
(dp2729
g94
g95
ssg83
g2723
sg76
(lp2730
S'session_id_hw4'
p2731
asbag69
(g90
g71
NtRp2732
(dp2733
g74
(dp2734
g101
g102
ssg83
g2723
sg76
(lp2735
S':'
asbag69
(g90
g71
NtRp2736
(dp2737
g74
(dp2738
sg83
g2723
sg76
(lp2739
g69
(g70
g71
NtRp2740
(dp2741
g74
(dp2742
g82
I4
ssg83
g2736
sg76
(lp2743
S'127.0.0.1-60149e07-5c20-4ab8-ae45-84308660b6fe'
p2744
ag69
(g78
g71
NtRp2745
(dp2746
g74
(dp2747
g82
I3
ssg83
Nsg76
(lp2748
g69
(g85
g71
NtRp2749
(dp2750
g74
(dp2751
sg83
g2745
sg76
(lp2752
g69
(g90
g71
NtRp2753
(dp2754
g74
(dp2755
g94
g95
ssg83
g2749
sg76
(lp2756
S'comment'
p2757
asbag69
(g90
g71
NtRp2758
(dp2759
g74
(dp2760
g101
g102
ssg83
g2749
sg76
(lp2761
S':'
asbag69
(g90
g71
NtRp2762
(dp2763
g74
(dp2764
sg83
g2749
sg76
(lp2765
g69
(g70
g71
NtRp2766
(dp2767
g74
(dp2768
g82
I3
ssg83
g2762
sg76
(lp2769
S''
asbasbasbag69
(g85
g71
NtRp2770
(dp2771
g74
(dp2772
sg83
g2745
sg76
(lp2773
g69
(g90
g71
NtRp2774
(dp2775
g74
(dp2776
g94
g95
ssg83
g2770
sg76
(lp2777
S'domain'
p2778
asbag69
(g90
g71
NtRp2779
(dp2780
g74
(dp2781
g101
g102
ssg83
g2770
sg76
(lp2782
S':'
asbag69
(g90
g71
NtRp2783
(dp2784
g74
(dp2785
sg83
g2770
sg76
(lp2786
g69
(g70
g71
NtRp2787
(dp2788
g74
(dp2789
g82
I3
ssg83
g2783
sg76
(lp2790
S''
asbasbasbag69
(g85
g71
NtRp2791
(dp2792
g74
(dp2793
sg83
g2745
sg76
(lp2794
g69
(g90
g71
NtRp2795
(dp2796
g74
(dp2797
g94
g95
ssg83
g2791
sg76
(lp2798
S'expires'
p2799
asbag69
(g90
g71
NtRp2800
(dp2801
g74
(dp2802
g101
g102
ssg83
g2791
sg76
(lp2803
S':'
asbag69
(g90
g71
NtRp2804
(dp2805
g74
(dp2806
sg83
g2791
sg76
(lp2807
g69
(g70
g71
NtRp2808
(dp2809
g74
(dp2810
g82
I3
ssg83
g2804
sg76
(lp2811
S''
asbasbasbag69
(g85
g71
NtRp2812
(dp2813
g74
(dp2814
sg83
g2745
sg76
(lp2815
g69
(g90
g71
NtRp2816
(dp2817
g74
(dp2818
g94
g95
ssg83
g2812
sg76
(lp2819
S'httponly'
p2820
asbag69
(g90
g71
NtRp2821
(dp2822
g74
(dp2823
g101
g102
ssg83
g2812
sg76
(lp2824
S':'
asbag69
(g90
g71
NtRp2825
(dp2826
g74
(dp2827
sg83
g2812
sg76
(lp2828
g69
(g70
g71
NtRp2829
(dp2830
g74
(dp2831
g82
I3
ssg83
g2825
sg76
(lp2832
S''
asbasbasbag69
(g85
g71
NtRp2833
(dp2834
g74
(dp2835
sg83
g2745
sg76
(lp2836
g69
(g90
g71
NtRp2837
(dp2838
g74
(dp2839
g94
g95
ssg83
g2833
sg76
(lp2840
S'max-age'
p2841
asbag69
(g90
g71
NtRp2842
(dp2843
g74
(dp2844
g101
g102
ssg83
g2833
sg76
(lp2845
S':'
asbag69
(g90
g71
NtRp2846
(dp2847
g74
(dp2848
sg83
g2833
sg76
(lp2849
g69
(g70
g71
NtRp2850
(dp2851
g74
(dp2852
g82
I3
ssg83
g2846
sg76
(lp2853
S''
asbasbasbag69
(g85
g71
NtRp2854
(dp2855
g74
(dp2856
sg83
g2745
sg76
(lp2857
g69
(g90
g71
NtRp2858
(dp2859
g74
(dp2860
g94
g95
ssg83
g2854
sg76
(lp2861
S'path'
p2862
asbag69
(g90
g71
NtRp2863
(dp2864
g74
(dp2865
g101
g102
ssg83
g2854
sg76
(lp2866
S':'
asbag69
(g90
g71
NtRp2867
(dp2868
g74
(dp2869
sg83
g2854
sg76
(lp2870
g69
(g70
g71
NtRp2871
(dp2872
g74
(dp2873
g82
I3
ssg83
g2867
sg76
(lp2874
S'/'
asbasbasbag69
(g85
g71
NtRp2875
(dp2876
g74
(dp2877
sg83
g2745
sg76
(lp2878
g69
(g90
g71
NtRp2879
(dp2880
g74
(dp2881
g94
g95
ssg83
g2875
sg76
(lp2882
S'secure'
p2883
asbag69
(g90
g71
NtRp2884
(dp2885
g74
(dp2886
g101
g102
ssg83
g2875
sg76
(lp2887
S':'
asbag69
(g90
g71
NtRp2888
(dp2889
g74
(dp2890
sg83
g2875
sg76
(lp2891
g69
(g70
g71
NtRp2892
(dp2893
g74
(dp2894
g82
I3
ssg83
g2888
sg76
(lp2895
S''
asbasbasbag69
(g85
g71
NtRp2896
(dp2897
g74
(dp2898
sg83
g2745
sg76
(lp2899
g69
(g90
g71
NtRp2900
(dp2901
g74
(dp2902
g94
g95
ssg83
g2896
sg76
(lp2903
S'version'
p2904
asbag69
(g90
g71
NtRp2905
(dp2906
g74
(dp2907
g101
g102
ssg83
g2896
sg76
(lp2908
S':'
asbag69
(g90
g71
NtRp2909
(dp2910
g74
(dp2911
sg83
g2896
sg76
(lp2912
g69
(g70
g71
NtRp2913
(dp2914
g74
(dp2915
g82
I3
ssg83
g2909
sg76
(lp2916
S''
asbasbasbasbasbasbasbasbasbasbasbag69
(g85
g71
NtRp2917
(dp2918
g74
(dp2919
sg83
g2674
sg76
(lp2920
g69
(g90
g71
NtRp2921
(dp2922
g74
(dp2923
g94
g95
ssg83
g2917
sg76
(lp2924
S'delimiters'
p2925
asbag69
(g90
g71
NtRp2926
(dp2927
g74
(dp2928
g101
g102
ssg83
g2917
sg76
(lp2929
S':'
asbag69
(g90
g71
NtRp2930
(dp2931
g74
(dp2932
sg83
g2917
sg76
(lp2933
g69
(g70
g71
NtRp2934
(dp2935
g74
(dp2936
g82
I5
ssg83
g2930
sg76
(lp2937
g69
(g78
g71
NtRp2938
(dp2939
g74
(dp2940
g82
I4
ssg83
Nsg76
(lp2941
g69
(g85
g71
NtRp2942
(dp2943
g74
(dp2944
sg83
g2938
sg76
(lp2945
g69
(g90
g71
NtRp2946
(dp2947
g74
(dp2948
sg83
g2942
sg76
(lp2949
g69
(g70
g71
NtRp2950
(dp2951
g74
(dp2952
g82
I4
ssg83
g2946
sg76
(lp2953
S'{{'
p2954
asbasbasbag69
(g85
g71
NtRp2955
(dp2956
g74
(dp2957
sg83
g2938
sg76
(lp2958
g69
(g90
g71
NtRp2959
(dp2960
g74
(dp2961
sg83
g2955
sg76
(lp2962
g69
(g70
g71
NtRp2963
(dp2964
g74
(dp2965
g82
I4
ssg83
g2959
sg76
(lp2966
S'}}'
p2967
asbasbasbasbasbasbasbag69
(g85
g71
NtRp2968
(dp2969
g74
(dp2970
sg83
g2674
sg76
(lp2971
g69
(g90
g71
NtRp2972
(dp2973
g74
(dp2974
g94
g95
ssg83
g2968
sg76
(lp2975
S'files'
p2976
asbag69
(g90
g71
NtRp2977
(dp2978
g74
(dp2979
g101
g102
ssg83
g2968
sg76
(lp2980
S':'
asbag69
(g90
g71
NtRp2981
(dp2982
g74
(dp2983
sg83
g2968
sg76
(lp2984
g69
(g70
g71
NtRp2985
(dp2986
g74
(dp2987
g82
I5
ssg83
g2981
sg76
(lp2988
g69
(g78
g71
NtRp2989
(dp2990
g74
(dp2991
g82
I4
ssg83
Nsg76
(lp2992
sbasbasbasbag69
(g85
g71
NtRp2993
(dp2994
g74
(dp2995
sg83
g2674
sg76
(lp2996
g69
(g90
g71
NtRp2997
(dp2998
g74
(dp2999
g94
g95
ssg83
g2993
sg76
(lp3000
S'flash'
p3001
asbag69
(g90
g71
NtRp3002
(dp3003
g74
(dp3004
g101
g102
ssg83
g2993
sg76
(lp3005
S':'
asbag69
(g90
g71
NtRp3006
(dp3007
g74
(dp3008
sg83
g2993
sg76
(lp3009
g69
(g70
g71
NtRp3010
(dp3011
g74
(dp3012
g82
I5
ssg83
g3006
sg76
(lp3013
S''
asbasbasbag69
(g85
g71
NtRp3014
(dp3015
g74
(dp3016
sg83
g2674
sg76
(lp3017
g69
(g90
g71
NtRp3018
(dp3019
g74
(dp3020
g94
g95
ssg83
g3014
sg76
(lp3021
S'generic_patterns'
p3022
asbag69
(g90
g71
NtRp3023
(dp3024
g74
(dp3025
g101
g102
ssg83
g3014
sg76
(lp3026
S':'
asbag69
(g90
g71
NtRp3027
(dp3028
g74
(dp3029
sg83
g3014
sg76
(lp3030
g69
(g70
g71
NtRp3031
(dp3032
g74
(dp3033
g82
I5
ssg83
g3027
sg76
(lp3034
g69
(g78
g71
NtRp3035
(dp3036
g74
(dp3037
g82
I4
ssg83
Nsg76
(lp3038
sbasbasbasbag69
(g85
g71
NtRp3039
(dp3040
g74
(dp3041
sg83
g2674
sg76
(lp3042
g69
(g90
g71
NtRp3043
(dp3044
g74
(dp3045
g94
g95
ssg83
g3039
sg76
(lp3046
S'headers'
p3047
asbag69
(g90
g71
NtRp3048
(dp3049
g74
(dp3050
g101
g102
ssg83
g3039
sg76
(lp3051
S':'
asbag69
(g90
g71
NtRp3052
(dp3053
g74
(dp3054
sg83
g3039
sg76
(lp3055
g69
(g70
g71
NtRp3056
(dp3057
g74
(dp3058
g82
I5
ssg83
g3052
sg76
(lp3059
g69
(g78
g71
NtRp3060
(dp3061
g74
(dp3062
g82
I4
ssg83
Nsg76
(lp3063
g69
(g85
g71
NtRp3064
(dp3065
g74
(dp3066
sg83
g3060
sg76
(lp3067
g69
(g90
g71
NtRp3068
(dp3069
g74
(dp3070
g94
g95
ssg83
g3064
sg76
(lp3071
S'X-Powered-By'
p3072
asbag69
(g90
g71
NtRp3073
(dp3074
g74
(dp3075
g101
g102
ssg83
g3064
sg76
(lp3076
S':'
asbag69
(g90
g71
NtRp3077
(dp3078
g74
(dp3079
sg83
g3064
sg76
(lp3080
g69
(g70
g71
NtRp3081
(dp3082
g74
(dp3083
g82
I4
ssg83
g3077
sg76
(lp3084
S'web2py'
p3085
asbasbasbasbasbasbasbag69
(g85
g71
NtRp3086
(dp3087
g74
(dp3088
sg83
g2674
sg76
(lp3089
g69
(g90
g71
NtRp3090
(dp3091
g74
(dp3092
g94
g95
ssg83
g3086
sg76
(lp3093
S'menu'
p3094
asbag69
(g90
g71
NtRp3095
(dp3096
g74
(dp3097
g101
g102
ssg83
g3086
sg76
(lp3098
S':'
asbag69
(g90
g71
NtRp3099
(dp3100
g74
(dp3101
sg83
g3086
sg76
(lp3102
g69
(g70
g71
NtRp3103
(dp3104
g74
(dp3105
g82
I5
ssg83
g3099
sg76
(lp3106
g69
(g78
g71
NtRp3107
(dp3108
g74
(dp3109
g82
I4
ssg83
Nsg76
(lp3110
sbasbasbasbag69
(g85
g71
NtRp3111
(dp3112
g74
(dp3113
sg83
g2674
sg76
(lp3114
g69
(g90
g71
NtRp3115
(dp3116
g74
(dp3117
g94
g95
ssg83
g3111
sg76
(lp3118
S'meta'
p3119
asbag69
(g90
g71
NtRp3120
(dp3121
g74
(dp3122
g101
g102
ssg83
g3111
sg76
(lp3123
S':'
asbag69
(g90
g71
NtRp3124
(dp3125
g74
(dp3126
sg83
g3111
sg76
(lp3127
g69
(g70
g71
NtRp3128
(dp3129
g74
(dp3130
g82
I5
ssg83
g3124
sg76
(lp3131
g69
(g78
g71
NtRp3132
(dp3133
g74
(dp3134
g82
I4
ssg83
Nsg76
(lp3135
sbasbasbasbag69
(g85
g71
NtRp3136
(dp3137
g74
(dp3138
sg83
g2674
sg76
(lp3139
g69
(g90
g71
NtRp3140
(dp3141
g74
(dp3142
g94
g95
ssg83
g3136
sg76
(lp3143
S'models_to_run'
p3144
asbag69
(g90
g71
NtRp3145
(dp3146
g74
(dp3147
g101
g102
ssg83
g3136
sg76
(lp3148
S':'
asbag69
(g90
g71
NtRp3149
(dp3150
g74
(dp3151
sg83
g3136
sg76
(lp3152
g69
(g70
g71
NtRp3153
(dp3154
g74
(dp3155
g82
I5
ssg83
g3149
sg76
(lp3156
g69
(g78
g71
NtRp3157
(dp3158
g74
(dp3159
g82
I4
ssg83
Nsg76
(lp3160
g69
(g85
g71
NtRp3161
(dp3162
g74
(dp3163
sg83
g3157
sg76
(lp3164
g69
(g90
g71
NtRp3165
(dp3166
g74
(dp3167
sg83
g3161
sg76
(lp3168
g69
(g70
g71
NtRp3169
(dp3170
g74
(dp3171
g82
I4
ssg83
g3165
sg76
(lp3172
S'^\\w+\\.py$'
p3173
asbasbasbag69
(g85
g71
NtRp3174
(dp3175
g74
(dp3176
sg83
g3157
sg76
(lp3177
g69
(g90
g71
NtRp3178
(dp3179
g74
(dp3180
sg83
g3174
sg76
(lp3181
g69
(g70
g71
NtRp3182
(dp3183
g74
(dp3184
g82
I4
ssg83
g3178
sg76
(lp3185
S'^default/\\w+\\.py$'
p3186
asbasbasbag69
(g85
g71
NtRp3187
(dp3188
g74
(dp3189
sg83
g3157
sg76
(lp3190
g69
(g90
g71
NtRp3191
(dp3192
g74
(dp3193
sg83
g3187
sg76
(lp3194
g69
(g70
g71
NtRp3195
(dp3196
g74
(dp3197
g82
I4
ssg83
g3191
sg76
(lp3198
S'^default/index/\\w+\\.py$'
p3199
asbasbasbasbasbasbasbag69
(g85
g71
NtRp3200
(dp3201
g74
(dp3202
sg83
g2674
sg76
(lp3203
g69
(g90
g71
NtRp3204
(dp3205
g74
(dp3206
g94
g95
ssg83
g3200
sg76
(lp3207
S'postprocessing'
p3208
asbag69
(g90
g71
NtRp3209
(dp3210
g74
(dp3211
g101
g102
ssg83
g3200
sg76
(lp3212
S':'
asbag69
(g90
g71
NtRp3213
(dp3214
g74
(dp3215
sg83
g3200
sg76
(lp3216
g69
(g70
g71
NtRp3217
(dp3218
g74
(dp3219
g82
I5
ssg83
g3213
sg76
(lp3220
g69
(g78
g71
NtRp3221
(dp3222
g74
(dp3223
g82
I4
ssg83
Nsg76
(lp3224
sbasbasbasbag69
(g85
g71
NtRp3225
(dp3226
g74
(dp3227
sg83
g2674
sg76
(lp3228
g69
(g90
g71
NtRp3229
(dp3230
g74
(dp3231
g94
g95
ssg83
g3225
sg76
(lp3232
S'session_cookie_expires'
p3233
asbag69
(g90
g71
NtRp3234
(dp3235
g74
(dp3236
g101
g102
ssg83
g3225
sg76
(lp3237
S':'
asbag69
(g90
g71
NtRp3238
(dp3239
g74
(dp3240
sg83
g3225
sg76
(lp3241
g69
(g70
g71
NtRp3242
(dp3243
g74
(dp3244
g82
I5
ssg83
g3238
sg76
(lp3245
S'None'
p3246
asbasbasbag69
(g85
g71
NtRp3247
(dp3248
g74
(dp3249
sg83
g2674
sg76
(lp3250
g69
(g90
g71
NtRp3251
(dp3252
g74
(dp3253
g94
g95
ssg83
g3247
sg76
(lp3254
S'session_data_name'
p3255
asbag69
(g90
g71
NtRp3256
(dp3257
g74
(dp3258
g101
g102
ssg83
g3247
sg76
(lp3259
S':'
asbag69
(g90
g71
NtRp3260
(dp3261
g74
(dp3262
sg83
g3247
sg76
(lp3263
g69
(g70
g71
NtRp3264
(dp3265
g74
(dp3266
g82
I5
ssg83
g3260
sg76
(lp3267
S'session_data_hw4'
p3268
asbasbasbag69
(g85
g71
NtRp3269
(dp3270
g74
(dp3271
sg83
g2674
sg76
(lp3272
g69
(g90
g71
NtRp3273
(dp3274
g74
(dp3275
g94
g95
ssg83
g3269
sg76
(lp3276
S'session_filename'
p3277
asbag69
(g90
g71
NtRp3278
(dp3279
g74
(dp3280
g101
g102
ssg83
g3269
sg76
(lp3281
S':'
asbag69
(g90
g71
NtRp3282
(dp3283
g74
(dp3284
sg83
g3269
sg76
(lp3285
g69
(g70
g71
NtRp3286
(dp3287
g74
(dp3288
g82
I5
ssg83
g3282
sg76
(lp3289
S'C:\\Python27\\web2py\\applications\\hw4\\sessions\\127.0.0.1-60149e07-5c20-4ab8-ae45-84308660b6fe'
p3290
asbasbasbag69
(g85
g71
NtRp3291
(dp3292
g74
(dp3293
sg83
g2674
sg76
(lp3294
g69
(g90
g71
NtRp3295
(dp3296
g74
(dp3297
g94
g95
ssg83
g3291
sg76
(lp3298
S'session_id'
p3299
asbag69
(g90
g71
NtRp3300
(dp3301
g74
(dp3302
g101
g102
ssg83
g3291
sg76
(lp3303
S':'
asbag69
(g90
g71
NtRp3304
(dp3305
g74
(dp3306
sg83
g3291
sg76
(lp3307
g69
(g70
g71
NtRp3308
(dp3309
g74
(dp3310
g82
I5
ssg83
g3304
sg76
(lp3311
g2744
asbasbasbag69
(g85
g71
NtRp3312
(dp3313
g74
(dp3314
sg83
g2674
sg76
(lp3315
g69
(g90
g71
NtRp3316
(dp3317
g74
(dp3318
g94
g95
ssg83
g3312
sg76
(lp3319
S'session_id_name'
p3320
asbag69
(g90
g71
NtRp3321
(dp3322
g74
(dp3323
g101
g102
ssg83
g3312
sg76
(lp3324
S':'
asbag69
(g90
g71
NtRp3325
(dp3326
g74
(dp3327
sg83
g3312
sg76
(lp3328
g69
(g70
g71
NtRp3329
(dp3330
g74
(dp3331
g82
I5
ssg83
g3325
sg76
(lp3332
g2731
asbasbasbag69
(g85
g71
NtRp3333
(dp3334
g74
(dp3335
sg83
g2674
sg76
(lp3336
g69
(g90
g71
NtRp3337
(dp3338
g74
(dp3339
g94
g95
ssg83
g3333
sg76
(lp3340
S'session_new'
p3341
asbag69
(g90
g71
NtRp3342
(dp3343
g74
(dp3344
g101
g102
ssg83
g3333
sg76
(lp3345
S':'
asbag69
(g90
g71
NtRp3346
(dp3347
g74
(dp3348
sg83
g3333
sg76
(lp3349
g69
(g70
g71
NtRp3350
(dp3351
g74
(dp3352
g82
I5
ssg83
g3346
sg76
(lp3353
g1193
asbasbasbag69
(g85
g71
NtRp3354
(dp3355
g74
(dp3356
sg83
g2674
sg76
(lp3357
g69
(g90
g71
NtRp3358
(dp3359
g74
(dp3360
g94
g95
ssg83
g3354
sg76
(lp3361
S'session_storage_type'
p3362
asbag69
(g90
g71
NtRp3363
(dp3364
g74
(dp3365
g101
g102
ssg83
g3354
sg76
(lp3366
S':'
asbag69
(g90
g71
NtRp3367
(dp3368
g74
(dp3369
sg83
g3354
sg76
(lp3370
g69
(g70
g71
NtRp3371
(dp3372
g74
(dp3373
g82
I5
ssg83
g3367
sg76
(lp3374
g2603
asbasbasbag69
(g85
g71
NtRp3375
(dp3376
g74
(dp3377
sg83
g2674
sg76
(lp3378
g69
(g90
g71
NtRp3379
(dp3380
g74
(dp3381
g94
g95
ssg83
g3375
sg76
(lp3382
S'status'
p3383
asbag69
(g90
g71
NtRp3384
(dp3385
g74
(dp3386
g101
g102
ssg83
g3375
sg76
(lp3387
S':'
asbag69
(g90
g71
NtRp3388
(dp3389
g74
(dp3390
sg83
g3375
sg76
(lp3391
g69
(g70
g71
NtRp3392
(dp3393
g74
(dp3394
g82
I5
ssg83
g3388
sg76
(lp3395
S'200'
p3396
asbasbasbag69
(g85
g71
NtRp3397
(dp3398
g74
(dp3399
sg83
g2674
sg76
(lp3400
g69
(g90
g71
NtRp3401
(dp3402
g74
(dp3403
g94
g95
ssg83
g3397
sg76
(lp3404
S'view'
p3405
asbag69
(g90
g71
NtRp3406
(dp3407
g74
(dp3408
g101
g102
ssg83
g3397
sg76
(lp3409
S':'
asbag69
(g90
g71
NtRp3410
(dp3411
g74
(dp3412
sg83
g3397
sg76
(lp3413
g69
(g70
g71
NtRp3414
(dp3415
g74
(dp3416
g82
I5
ssg83
g3410
sg76
(lp3417
S'default/index.html'
p3418
asbasbasbasbasbsS'locals'
p3419
(dp3420
g4
S"r'C:\\Python27\\web2py\\applications\\hw4\\models\\db.py'"
p3421
sg6
S'"# -*- coding: utf-8 -*-\\n\\n#######################...bel=\'\\xe6\\x88\\x90\\xe7\\xbb\\xa9\',requires=IS_IN_SET([80,90,70,60,50])"'
p3422
sssS'traceback'
p3423
S'Traceback (most recent call last):\n  File "C:\\Python27\\web2py\\gluon\\restricted.py", line 211, in restricted\n    ccode = compile2(code, layer)\n  File "C:\\Python27\\web2py\\gluon\\restricted.py", line 194, in compile2\n    return compile(code.rstrip().replace(\'\\r\\n\', \'\\n\') + \'\\n\', layer, \'exec\')\n  File "C:\\Python27\\web2py\\applications\\hw4\\models\\db.py", line 151\n    Field(\'chengji\'),label=\'\xe6\x88\x90\xe7\xbb\xa9\',requires=IS_IN_SET([80,90,70,60,50])\n                                                                       ^\nSyntaxError: invalid syntax\n'
p3424
s.