(dp1
S'output'
p2
S'<type \'exceptions.SyntaxError\'> invalid table/column name "file" is a "ALL" reserved SQL keyword'
p3
sS'layer'
p4
S'D:\\My Documents\\Documents\\Aptana Studio 3 Workspace\\hw2\\applications\\hw4\\controllers/plugin_elrte_widget.py'
p5
sS'code'
p6
S'# -*- coding: utf-8 -*-\nfrom plugin_elrte_widget import ElrteWidget\nfrom plugin_dialog import DIALOG\nfrom plugin_uploadify_widget import (\n    uploadify_widget, IS_UPLOADIFY_IMAGE, IS_UPLOADIFY_LENGTH\n)\n\n# use disk_db for image storing\ndisk_db = db\n    \n# define a product table using memory db\ndb = DAL(\'sqlite:memory:\')\ndb.define_table(\'product\', Field(\'description\', \'text\'))\n\n# define an image table using disk db\nimage_table = disk_db.define_table(\'plugin_elrte_widget_image\',\n    Field(\'image\', \'upload\', autodelete=True, comment=\'<- upload an image (max file size=10k)\'),\n    )\nimage_table.image.widget = uploadify_widget\nimage_table.image.requires = [IS_UPLOADIFY_LENGTH(10240, 1), IS_UPLOADIFY_IMAGE()]\n\n# define a file table using disk db\nfile_table = disk_db.define_table(\'plugin_elrte_widget_file\',\n    Field(\'name\'),\n    Field(\'file\', \'upload\', autodelete=True, comment=\'<- upload a file(max file size=100k)\'),\n    )\nfile_table.file.widget = uploadify_widget\nfile_table.file.requires = IS_UPLOADIFY_LENGTH(102400, 1)\n\n# restrict records for demo\nfor table in (image_table, file_table):\n    if disk_db(table.id > 0).count() > 3:\n        last = disk_db(table.id > 0).select(orderby=~table.id).first()\n        disk_db(table.id <= last.id - 3).delete()\n\n\ndef index():\n    # set language\n    try:\n        lang = T.accepted_language.split(\'-\')[0].replace(\'ja\', \'jp\')\n    except:\n        lang = \'en\'\n\n    image_chooser = DIALOG(title=T(\'Select an image\'), close=T(\'close\'), renderstyle=True,\n                           content=LOAD(\'plugin_elrte_widget\', \'image_upload_or_choose\', ajax=True))\n    file_chooser = DIALOG(title=T(\'Select a file\'), close=T(\'close\'), renderstyle=True,\n                          content=LOAD(\'plugin_elrte_widget\', \'file_upload_or_choose\', ajax=True))\n    fm_open = """function(callback, kind){\nif (kind == \'elfinder\') {%s;} else {%s;}\njQuery.data(document.body, \'elrte_callback\', callback)\n}""" % (file_chooser.show(), image_chooser.show())\n\n    cssfiles = [URL(\'static\', \'css/base.css\')]\n    \n    ################################ The core ######################################\n    # Inject the elrte widget\n    # You can specify the language for the editor, and include your image chooser.\n    # In this demo, the image chooser uses the uploadify plugin.\n    # If you want to edit contents with css applied, pass the css file urls for an argument.\n    db.product.description.widget = ElrteWidget()\n    db.product.description.widget.settings.lang = lang\n    db.product.description.widget.settings.fm_open = fm_open\n    db.product.description.widget.settings.cssfiles = cssfiles\n    ################################################################################\n\n    form = SQLFORM(db.product)\n    if form.accepts(request.vars, session):\n        session.flash = \'submitted %s\' % form.vars\n        redirect(URL(\'index\'))\n        \n    return dict(form=form)\n\n\ndef image_upload_or_choose():\n    form = SQLFORM(image_table, upload=URL(\'download\'))\n    info = \'\'\n    if form.accepts(request.vars, session):\n        info = \'submitted %s\' % form.vars\n    \n    records = disk_db(image_table.id > 0).select(orderby=~image_table.id, limitby=(0, 3))\n    _get_src = lambda r: URL(request.controller, \'download\', args=r.image)\n    records = DIV([IMG(_src=_get_src(r),\n                       _onclick="""\njQuery.data(document.body, \'elrte_callback\')(\'%s\');jQuery(\'.dialog\').hide(); return false;\n""" % _get_src(r), _style=\'max-width:50px;max-height:50px;margin:5px;cursor:pointer;\')\n                    for r in records])\n    return BEAUTIFY(dict(form=form, info=info, records=records))\n\n\ndef file_upload_or_choose():\n    form = SQLFORM(file_table, upload=URL(\'download\'))\n    info = \'\'\n    if form.accepts(request.vars, session):\n        info = \'submitted %s\' % form.vars\n    \n    def _get_icon(v):\n        ext = v.split(\'.\')[-1]\n        if ext in (\'pdf\',):\n            filename = \'icon_pdf.gif\'\n        elif ext in (\'doc\', \'docx\', \'rst\'):\n            filename = \'icon_doc.gif\'\n        elif ext in (\'xls\', \'xlsx\'):\n            filename = \'icon_xls.gif\'\n        elif ext in (\'ppt\', \'pptx\', \'pps\'):\n            filename = \'icon_pps.gif\'\n        elif ext in (\'jpg\', \'gif\', \'png\', \'bmp\', \'svg\', \'eps\'):\n            filename = \'icon_pic.gif\'\n        elif ext in (\'swf\', \'fla\'):\n            filename = \'icon_flash.gif\'\n        elif ext in (\'mp3\', \'wav\', \'ogg\', \'wma\', \'m4a\'):\n            filename = \'icon_music.gif\'\n        elif ext in (\'mov\', \'wmv\', \'mp4\', \'api\', \'mpg\', \'flv\'):\n            filename = \'icon_film.gif\'\n        elif ext in (\'zip\', \'rar\', \'gzip\', \'bzip\', \'ace\', \'gz\'):\n            filename = \'icon_archive.gif\'\n        else:\n            filename = \'icon_txt.gif\'\n        return IMG(_src=URL(\'static\', \'plugin_elrte_widget/custom/icons/%s\' % filename),\n                   _style=\'cursor:pointer;margin-right:5px;\')\n    \n    records = disk_db(file_table.id > 0).select(orderby=~file_table.id, limitby=(0, 3))\n    records = DIV([DIV(A(_get_icon(r.file), r.name, _href=\'#\', _onclick="""\njQuery.data(document.body, \'elrte_callback\')(\'%s\');jQuery(\'.dialog\').hide(); return false;\n""" % A(_get_icon(r.file), r.name, _href=URL(request.controller, \'download\', args=r.file)).xml()),\n                       _style=\'margin-bottom:5px;\') for r in records])\n    \n    return BEAUTIFY(dict(form=form, info=info, records=records))\n\n\ndef download():\n    return response.download(request, disk_db)\n\nresponse._vars=response._caller(index)\n'
p7
sS'snapshot'
p8
(dp9
S'exception'
p10
(dp11
S'__getslice__'
p12
S"<method-wrapper '__getslice__' of exceptions.SyntaxError object>"
p13
sS'text'
p14
S'None'
p15
sS'__str__'
p16
S"<method-wrapper '__str__' of exceptions.SyntaxError object>"
p17
sS'__reduce__'
p18
S'<built-in method __reduce__ of exceptions.SyntaxError object>'
p19
sS'__dict__'
p20
S'{}'
p21
sS'__sizeof__'
p22
S'<built-in method __sizeof__ of exceptions.SyntaxError object>'
p23
sS'__init__'
p24
S"<method-wrapper '__init__' of exceptions.SyntaxError object>"
p25
sS'__setattr__'
p26
S"<method-wrapper '__setattr__' of exceptions.SyntaxError object>"
p27
sS'__reduce_ex__'
p28
S'<built-in method __reduce_ex__ of exceptions.SyntaxError object>'
p29
sS'__new__'
p30
S'<built-in method __new__ of type object>'
p31
sS'__format__'
p32
S'<built-in method __format__ of exceptions.SyntaxError object>'
p33
sS'__class__'
p34
S"<type 'exceptions.SyntaxError'>"
p35
sS'filename'
p36
S'None'
p37
sS'lineno'
p38
S'None'
p39
sS'msg'
p40
S'\'invalid table/column name "file" is a "ALL" reserved SQL keyword\''
p41
sS'__doc__'
p42
S"'Invalid syntax.'"
p43
sS'__getitem__'
p44
S"<method-wrapper '__getitem__' of exceptions.SyntaxError object>"
p45
sS'__setstate__'
p46
S'<built-in method __setstate__ of exceptions.SyntaxError object>'
p47
sS'__getattribute__'
p48
S"<method-wrapper '__getattribute__' of exceptions.SyntaxError object>"
p49
sS'print_file_and_line'
p50
S'None'
p51
sS'args'
p52
S'(\'invalid table/column name "file" is a "ALL" reserved SQL keyword\',)'
p53
sS'__subclasshook__'
p54
S'<built-in method __subclasshook__ of type object>'
p55
sS'offset'
p56
S'None'
p57
sS'__unicode__'
p58
S'<built-in method __unicode__ of exceptions.SyntaxError object>'
p59
sS'__delattr__'
p60
S"<method-wrapper '__delattr__' of exceptions.SyntaxError object>"
p61
sS'__repr__'
p62
S"<method-wrapper '__repr__' of exceptions.SyntaxError object>"
p63
sS'__hash__'
p64
S"<method-wrapper '__hash__' of exceptions.SyntaxError object>"
p65
ssS'evalue'
p66
S'invalid table/column name "file" is a "ALL" reserved SQL keyword'
p67
sS'request'
p68
ccopy_reg
_reconstructor
p69
(cgluon.html
BEAUTIFY
p70
c__builtin__
object
p71
NtRp72
(dp73
S'attributes'
p74
(dp75
sS'components'
p76
(lp77
g69
(cgluon.html
TABLE
p78
g71
NtRp79
(dp80
g74
(dp81
S'level'
p82
I5
ssS'parent'
p83
Nsg76
(lp84
g69
(cgluon.html
TR
p85
g71
NtRp86
(dp87
g74
(dp88
sg83
g79
sg76
(lp89
g69
(cgluon.html
TD
p90
g71
NtRp91
(dp92
g74
(dp93
S'_style'
p94
S'font-weight:bold;vertical-align:top'
p95
ssg83
g86
sg76
(lp96
S'ajax'
p97
asbag69
(g90
g71
NtRp98
(dp99
g74
(dp100
S'_valign'
p101
S'top'
p102
ssg83
g86
sg76
(lp103
S':'
asbag69
(g90
g71
NtRp104
(dp105
g74
(dp106
sg83
g86
sg76
(lp107
g69
(g70
g71
NtRp108
(dp109
g74
(dp110
g82
I5
ssg83
g104
sg76
(lp111
S'False'
p112
asbasbasbag69
(g85
g71
NtRp113
(dp114
g74
(dp115
sg83
g79
sg76
(lp116
g69
(g90
g71
NtRp117
(dp118
g74
(dp119
g94
g95
ssg83
g113
sg76
(lp120
S'application'
p121
asbag69
(g90
g71
NtRp122
(dp123
g74
(dp124
g101
g102
ssg83
g113
sg76
(lp125
S':'
asbag69
(g90
g71
NtRp126
(dp127
g74
(dp128
sg83
g113
sg76
(lp129
g69
(g70
g71
NtRp130
(dp131
g74
(dp132
g82
I5
ssg83
g126
sg76
(lp133
S'hw4'
p134
asbasbasbag69
(g85
g71
NtRp135
(dp136
g74
(dp137
sg83
g79
sg76
(lp138
g69
(g90
g71
NtRp139
(dp140
g74
(dp141
g94
g95
ssg83
g135
sg76
(lp142
g52
asbag69
(g90
g71
NtRp143
(dp144
g74
(dp145
g101
g102
ssg83
g135
sg76
(lp146
S':'
asbag69
(g90
g71
NtRp147
(dp148
g74
(dp149
sg83
g135
sg76
(lp150
g69
(g70
g71
NtRp151
(dp152
g74
(dp153
g82
I5
ssg83
g147
sg76
(lp154
g69
(g78
g71
NtRp155
(dp156
g74
(dp157
g82
I4
ssg83
Nsg76
(lp158
sbasbasbasbag69
(g85
g71
NtRp159
(dp160
g74
(dp161
sg83
g79
sg76
(lp162
g69
(g90
g71
NtRp163
(dp164
g74
(dp165
g94
g95
ssg83
g159
sg76
(lp166
S'body'
p167
asbag69
(g90
g71
NtRp168
(dp169
g74
(dp170
g101
g102
ssg83
g159
sg76
(lp171
S':'
asbag69
(g90
g71
NtRp172
(dp173
g74
(dp174
sg83
g159
sg76
(lp175
g69
(g70
g71
NtRp176
(dp177
g74
(dp178
g82
I5
ssg83
g172
sg76
(lp179
S'<cStringIO.StringO object at 0x04B81A60>'
p180
asbasbasbag69
(g85
g71
NtRp181
(dp182
g74
(dp183
sg83
g79
sg76
(lp184
g69
(g90
g71
NtRp185
(dp186
g74
(dp187
g94
g95
ssg83
g181
sg76
(lp188
S'cid'
p189
asbag69
(g90
g71
NtRp190
(dp191
g74
(dp192
g101
g102
ssg83
g181
sg76
(lp193
S':'
asbag69
(g90
g71
NtRp194
(dp195
g74
(dp196
sg83
g181
sg76
(lp197
g69
(g70
g71
NtRp198
(dp199
g74
(dp200
g82
I5
ssg83
g194
sg76
(lp201
S'None'
p202
asbasbasbag69
(g85
g71
NtRp203
(dp204
g74
(dp205
sg83
g79
sg76
(lp206
g69
(g90
g71
NtRp207
(dp208
g74
(dp209
g94
g95
ssg83
g203
sg76
(lp210
S'client'
p211
asbag69
(g90
g71
NtRp212
(dp213
g74
(dp214
g101
g102
ssg83
g203
sg76
(lp215
S':'
asbag69
(g90
g71
NtRp216
(dp217
g74
(dp218
sg83
g203
sg76
(lp219
g69
(g70
g71
NtRp220
(dp221
g74
(dp222
g82
I5
ssg83
g216
sg76
(lp223
S'127.0.0.1'
p224
asbasbasbag69
(g85
g71
NtRp225
(dp226
g74
(dp227
sg83
g79
sg76
(lp228
g69
(g90
g71
NtRp229
(dp230
g74
(dp231
g94
g95
ssg83
g225
sg76
(lp232
S'controller'
p233
asbag69
(g90
g71
NtRp234
(dp235
g74
(dp236
g101
g102
ssg83
g225
sg76
(lp237
S':'
asbag69
(g90
g71
NtRp238
(dp239
g74
(dp240
sg83
g225
sg76
(lp241
g69
(g70
g71
NtRp242
(dp243
g74
(dp244
g82
I5
ssg83
g238
sg76
(lp245
S'plugin_elrte_widget'
p246
asbasbasbag69
(g85
g71
NtRp247
(dp248
g74
(dp249
sg83
g79
sg76
(lp250
g69
(g90
g71
NtRp251
(dp252
g74
(dp253
g94
g95
ssg83
g247
sg76
(lp254
S'cookies'
p255
asbag69
(g90
g71
NtRp256
(dp257
g74
(dp258
g101
g102
ssg83
g247
sg76
(lp259
S':'
asbag69
(g90
g71
NtRp260
(dp261
g74
(dp262
sg83
g247
sg76
(lp263
g69
(g70
g71
NtRp264
(dp265
g74
(dp266
g82
I5
ssg83
g260
sg76
(lp267
g69
(g78
g71
NtRp268
(dp269
g74
(dp270
g82
I4
ssg83
Nsg76
(lp271
g69
(g85
g71
NtRp272
(dp273
g74
(dp274
sg83
g268
sg76
(lp275
g69
(g90
g71
NtRp276
(dp277
g74
(dp278
g94
g95
ssg83
g272
sg76
(lp279
S'session_id_admin'
p280
asbag69
(g90
g71
NtRp281
(dp282
g74
(dp283
g101
g102
ssg83
g272
sg76
(lp284
S':'
asbag69
(g90
g71
NtRp285
(dp286
g74
(dp287
sg83
g272
sg76
(lp288
g69
(g70
g71
NtRp289
(dp290
g74
(dp291
g82
I4
ssg83
g285
sg76
(lp292
S'127.0.0.1-085758b8-8bcc-4b19-a5fa-3f370d105c70'
p293
ag69
(g78
g71
NtRp294
(dp295
g74
(dp296
g82
I3
ssg83
Nsg76
(lp297
g69
(g85
g71
NtRp298
(dp299
g74
(dp300
sg83
g294
sg76
(lp301
g69
(g90
g71
NtRp302
(dp303
g74
(dp304
g94
g95
ssg83
g298
sg76
(lp305
S'comment'
p306
asbag69
(g90
g71
NtRp307
(dp308
g74
(dp309
g101
g102
ssg83
g298
sg76
(lp310
S':'
asbag69
(g90
g71
NtRp311
(dp312
g74
(dp313
sg83
g298
sg76
(lp314
g69
(g70
g71
NtRp315
(dp316
g74
(dp317
g82
I3
ssg83
g311
sg76
(lp318
S''
asbasbasbag69
(g85
g71
NtRp319
(dp320
g74
(dp321
sg83
g294
sg76
(lp322
g69
(g90
g71
NtRp323
(dp324
g74
(dp325
g94
g95
ssg83
g319
sg76
(lp326
S'domain'
p327
asbag69
(g90
g71
NtRp328
(dp329
g74
(dp330
g101
g102
ssg83
g319
sg76
(lp331
S':'
asbag69
(g90
g71
NtRp332
(dp333
g74
(dp334
sg83
g319
sg76
(lp335
g69
(g70
g71
NtRp336
(dp337
g74
(dp338
g82
I3
ssg83
g332
sg76
(lp339
S''
asbasbasbag69
(g85
g71
NtRp340
(dp341
g74
(dp342
sg83
g294
sg76
(lp343
g69
(g90
g71
NtRp344
(dp345
g74
(dp346
g94
g95
ssg83
g340
sg76
(lp347
S'expires'
p348
asbag69
(g90
g71
NtRp349
(dp350
g74
(dp351
g101
g102
ssg83
g340
sg76
(lp352
S':'
asbag69
(g90
g71
NtRp353
(dp354
g74
(dp355
sg83
g340
sg76
(lp356
g69
(g70
g71
NtRp357
(dp358
g74
(dp359
g82
I3
ssg83
g353
sg76
(lp360
S''
asbasbasbag69
(g85
g71
NtRp361
(dp362
g74
(dp363
sg83
g294
sg76
(lp364
g69
(g90
g71
NtRp365
(dp366
g74
(dp367
g94
g95
ssg83
g361
sg76
(lp368
S'httponly'
p369
asbag69
(g90
g71
NtRp370
(dp371
g74
(dp372
g101
g102
ssg83
g361
sg76
(lp373
S':'
asbag69
(g90
g71
NtRp374
(dp375
g74
(dp376
sg83
g361
sg76
(lp377
g69
(g70
g71
NtRp378
(dp379
g74
(dp380
g82
I3
ssg83
g374
sg76
(lp381
S''
asbasbasbag69
(g85
g71
NtRp382
(dp383
g74
(dp384
sg83
g294
sg76
(lp385
g69
(g90
g71
NtRp386
(dp387
g74
(dp388
g94
g95
ssg83
g382
sg76
(lp389
S'max-age'
p390
asbag69
(g90
g71
NtRp391
(dp392
g74
(dp393
g101
g102
ssg83
g382
sg76
(lp394
S':'
asbag69
(g90
g71
NtRp395
(dp396
g74
(dp397
sg83
g382
sg76
(lp398
g69
(g70
g71
NtRp399
(dp400
g74
(dp401
g82
I3
ssg83
g395
sg76
(lp402
S''
asbasbasbag69
(g85
g71
NtRp403
(dp404
g74
(dp405
sg83
g294
sg76
(lp406
g69
(g90
g71
NtRp407
(dp408
g74
(dp409
g94
g95
ssg83
g403
sg76
(lp410
S'path'
p411
asbag69
(g90
g71
NtRp412
(dp413
g74
(dp414
g101
g102
ssg83
g403
sg76
(lp415
S':'
asbag69
(g90
g71
NtRp416
(dp417
g74
(dp418
sg83
g403
sg76
(lp419
g69
(g70
g71
NtRp420
(dp421
g74
(dp422
g82
I3
ssg83
g416
sg76
(lp423
S''
asbasbasbag69
(g85
g71
NtRp424
(dp425
g74
(dp426
sg83
g294
sg76
(lp427
g69
(g90
g71
NtRp428
(dp429
g74
(dp430
g94
g95
ssg83
g424
sg76
(lp431
S'secure'
p432
asbag69
(g90
g71
NtRp433
(dp434
g74
(dp435
g101
g102
ssg83
g424
sg76
(lp436
S':'
asbag69
(g90
g71
NtRp437
(dp438
g74
(dp439
sg83
g424
sg76
(lp440
g69
(g70
g71
NtRp441
(dp442
g74
(dp443
g82
I3
ssg83
g437
sg76
(lp444
S''
asbasbasbag69
(g85
g71
NtRp445
(dp446
g74
(dp447
sg83
g294
sg76
(lp448
g69
(g90
g71
NtRp449
(dp450
g74
(dp451
g94
g95
ssg83
g445
sg76
(lp452
S'version'
p453
asbag69
(g90
g71
NtRp454
(dp455
g74
(dp456
g101
g102
ssg83
g445
sg76
(lp457
S':'
asbag69
(g90
g71
NtRp458
(dp459
g74
(dp460
sg83
g445
sg76
(lp461
g69
(g70
g71
NtRp462
(dp463
g74
(dp464
g82
I3
ssg83
g458
sg76
(lp465
S''
asbasbasbasbasbasbasbag69
(g85
g71
NtRp466
(dp467
g74
(dp468
sg83
g268
sg76
(lp469
g69
(g90
g71
NtRp470
(dp471
g74
(dp472
g94
g95
ssg83
g466
sg76
(lp473
S'session_id_hw4'
p474
asbag69
(g90
g71
NtRp475
(dp476
g74
(dp477
g101
g102
ssg83
g466
sg76
(lp478
S':'
asbag69
(g90
g71
NtRp479
(dp480
g74
(dp481
sg83
g466
sg76
(lp482
g69
(g70
g71
NtRp483
(dp484
g74
(dp485
g82
I4
ssg83
g479
sg76
(lp486
S'127.0.0.1-181e70b6-28ab-405f-bb11-c9eeb9b68ae3'
p487
ag69
(g78
g71
NtRp488
(dp489
g74
(dp490
g82
I3
ssg83
Nsg76
(lp491
g69
(g85
g71
NtRp492
(dp493
g74
(dp494
sg83
g488
sg76
(lp495
g69
(g90
g71
NtRp496
(dp497
g74
(dp498
g94
g95
ssg83
g492
sg76
(lp499
g306
asbag69
(g90
g71
NtRp500
(dp501
g74
(dp502
g101
g102
ssg83
g492
sg76
(lp503
S':'
asbag69
(g90
g71
NtRp504
(dp505
g74
(dp506
sg83
g492
sg76
(lp507
g69
(g70
g71
NtRp508
(dp509
g74
(dp510
g82
I3
ssg83
g504
sg76
(lp511
S''
asbasbasbag69
(g85
g71
NtRp512
(dp513
g74
(dp514
sg83
g488
sg76
(lp515
g69
(g90
g71
NtRp516
(dp517
g74
(dp518
g94
g95
ssg83
g512
sg76
(lp519
g327
asbag69
(g90
g71
NtRp520
(dp521
g74
(dp522
g101
g102
ssg83
g512
sg76
(lp523
S':'
asbag69
(g90
g71
NtRp524
(dp525
g74
(dp526
sg83
g512
sg76
(lp527
g69
(g70
g71
NtRp528
(dp529
g74
(dp530
g82
I3
ssg83
g524
sg76
(lp531
S''
asbasbasbag69
(g85
g71
NtRp532
(dp533
g74
(dp534
sg83
g488
sg76
(lp535
g69
(g90
g71
NtRp536
(dp537
g74
(dp538
g94
g95
ssg83
g532
sg76
(lp539
g348
asbag69
(g90
g71
NtRp540
(dp541
g74
(dp542
g101
g102
ssg83
g532
sg76
(lp543
S':'
asbag69
(g90
g71
NtRp544
(dp545
g74
(dp546
sg83
g532
sg76
(lp547
g69
(g70
g71
NtRp548
(dp549
g74
(dp550
g82
I3
ssg83
g544
sg76
(lp551
S''
asbasbasbag69
(g85
g71
NtRp552
(dp553
g74
(dp554
sg83
g488
sg76
(lp555
g69
(g90
g71
NtRp556
(dp557
g74
(dp558
g94
g95
ssg83
g552
sg76
(lp559
g369
asbag69
(g90
g71
NtRp560
(dp561
g74
(dp562
g101
g102
ssg83
g552
sg76
(lp563
S':'
asbag69
(g90
g71
NtRp564
(dp565
g74
(dp566
sg83
g552
sg76
(lp567
g69
(g70
g71
NtRp568
(dp569
g74
(dp570
g82
I3
ssg83
g564
sg76
(lp571
S''
asbasbasbag69
(g85
g71
NtRp572
(dp573
g74
(dp574
sg83
g488
sg76
(lp575
g69
(g90
g71
NtRp576
(dp577
g74
(dp578
g94
g95
ssg83
g572
sg76
(lp579
g390
asbag69
(g90
g71
NtRp580
(dp581
g74
(dp582
g101
g102
ssg83
g572
sg76
(lp583
S':'
asbag69
(g90
g71
NtRp584
(dp585
g74
(dp586
sg83
g572
sg76
(lp587
g69
(g70
g71
NtRp588
(dp589
g74
(dp590
g82
I3
ssg83
g584
sg76
(lp591
S''
asbasbasbag69
(g85
g71
NtRp592
(dp593
g74
(dp594
sg83
g488
sg76
(lp595
g69
(g90
g71
NtRp596
(dp597
g74
(dp598
g94
g95
ssg83
g592
sg76
(lp599
g411
asbag69
(g90
g71
NtRp600
(dp601
g74
(dp602
g101
g102
ssg83
g592
sg76
(lp603
S':'
asbag69
(g90
g71
NtRp604
(dp605
g74
(dp606
sg83
g592
sg76
(lp607
g69
(g70
g71
NtRp608
(dp609
g74
(dp610
g82
I3
ssg83
g604
sg76
(lp611
S''
asbasbasbag69
(g85
g71
NtRp612
(dp613
g74
(dp614
sg83
g488
sg76
(lp615
g69
(g90
g71
NtRp616
(dp617
g74
(dp618
g94
g95
ssg83
g612
sg76
(lp619
g432
asbag69
(g90
g71
NtRp620
(dp621
g74
(dp622
g101
g102
ssg83
g612
sg76
(lp623
S':'
asbag69
(g90
g71
NtRp624
(dp625
g74
(dp626
sg83
g612
sg76
(lp627
g69
(g70
g71
NtRp628
(dp629
g74
(dp630
g82
I3
ssg83
g624
sg76
(lp631
S''
asbasbasbag69
(g85
g71
NtRp632
(dp633
g74
(dp634
sg83
g488
sg76
(lp635
g69
(g90
g71
NtRp636
(dp637
g74
(dp638
g94
g95
ssg83
g632
sg76
(lp639
g453
asbag69
(g90
g71
NtRp640
(dp641
g74
(dp642
g101
g102
ssg83
g632
sg76
(lp643
S':'
asbag69
(g90
g71
NtRp644
(dp645
g74
(dp646
sg83
g632
sg76
(lp647
g69
(g70
g71
NtRp648
(dp649
g74
(dp650
g82
I3
ssg83
g644
sg76
(lp651
S''
asbasbasbasbasbasbasbag69
(g85
g71
NtRp652
(dp653
g74
(dp654
sg83
g268
sg76
(lp655
g69
(g90
g71
NtRp656
(dp657
g74
(dp658
g94
g95
ssg83
g652
sg76
(lp659
S'session_id_welcome'
p660
asbag69
(g90
g71
NtRp661
(dp662
g74
(dp663
g101
g102
ssg83
g652
sg76
(lp664
S':'
asbag69
(g90
g71
NtRp665
(dp666
g74
(dp667
sg83
g652
sg76
(lp668
g69
(g70
g71
NtRp669
(dp670
g74
(dp671
g82
I4
ssg83
g665
sg76
(lp672
S'127.0.0.1-951e80a4-3e2b-43af-b536-85e3a12bdc3c'
p673
ag69
(g78
g71
NtRp674
(dp675
g74
(dp676
g82
I3
ssg83
Nsg76
(lp677
g69
(g85
g71
NtRp678
(dp679
g74
(dp680
sg83
g674
sg76
(lp681
g69
(g90
g71
NtRp682
(dp683
g74
(dp684
g94
g95
ssg83
g678
sg76
(lp685
g306
asbag69
(g90
g71
NtRp686
(dp687
g74
(dp688
g101
g102
ssg83
g678
sg76
(lp689
S':'
asbag69
(g90
g71
NtRp690
(dp691
g74
(dp692
sg83
g678
sg76
(lp693
g69
(g70
g71
NtRp694
(dp695
g74
(dp696
g82
I3
ssg83
g690
sg76
(lp697
S''
asbasbasbag69
(g85
g71
NtRp698
(dp699
g74
(dp700
sg83
g674
sg76
(lp701
g69
(g90
g71
NtRp702
(dp703
g74
(dp704
g94
g95
ssg83
g698
sg76
(lp705
g327
asbag69
(g90
g71
NtRp706
(dp707
g74
(dp708
g101
g102
ssg83
g698
sg76
(lp709
S':'
asbag69
(g90
g71
NtRp710
(dp711
g74
(dp712
sg83
g698
sg76
(lp713
g69
(g70
g71
NtRp714
(dp715
g74
(dp716
g82
I3
ssg83
g710
sg76
(lp717
S''
asbasbasbag69
(g85
g71
NtRp718
(dp719
g74
(dp720
sg83
g674
sg76
(lp721
g69
(g90
g71
NtRp722
(dp723
g74
(dp724
g94
g95
ssg83
g718
sg76
(lp725
g348
asbag69
(g90
g71
NtRp726
(dp727
g74
(dp728
g101
g102
ssg83
g718
sg76
(lp729
S':'
asbag69
(g90
g71
NtRp730
(dp731
g74
(dp732
sg83
g718
sg76
(lp733
g69
(g70
g71
NtRp734
(dp735
g74
(dp736
g82
I3
ssg83
g730
sg76
(lp737
S''
asbasbasbag69
(g85
g71
NtRp738
(dp739
g74
(dp740
sg83
g674
sg76
(lp741
g69
(g90
g71
NtRp742
(dp743
g74
(dp744
g94
g95
ssg83
g738
sg76
(lp745
g369
asbag69
(g90
g71
NtRp746
(dp747
g74
(dp748
g101
g102
ssg83
g738
sg76
(lp749
S':'
asbag69
(g90
g71
NtRp750
(dp751
g74
(dp752
sg83
g738
sg76
(lp753
g69
(g70
g71
NtRp754
(dp755
g74
(dp756
g82
I3
ssg83
g750
sg76
(lp757
S''
asbasbasbag69
(g85
g71
NtRp758
(dp759
g74
(dp760
sg83
g674
sg76
(lp761
g69
(g90
g71
NtRp762
(dp763
g74
(dp764
g94
g95
ssg83
g758
sg76
(lp765
g390
asbag69
(g90
g71
NtRp766
(dp767
g74
(dp768
g101
g102
ssg83
g758
sg76
(lp769
S':'
asbag69
(g90
g71
NtRp770
(dp771
g74
(dp772
sg83
g758
sg76
(lp773
g69
(g70
g71
NtRp774
(dp775
g74
(dp776
g82
I3
ssg83
g770
sg76
(lp777
S''
asbasbasbag69
(g85
g71
NtRp778
(dp779
g74
(dp780
sg83
g674
sg76
(lp781
g69
(g90
g71
NtRp782
(dp783
g74
(dp784
g94
g95
ssg83
g778
sg76
(lp785
g411
asbag69
(g90
g71
NtRp786
(dp787
g74
(dp788
g101
g102
ssg83
g778
sg76
(lp789
S':'
asbag69
(g90
g71
NtRp790
(dp791
g74
(dp792
sg83
g778
sg76
(lp793
g69
(g70
g71
NtRp794
(dp795
g74
(dp796
g82
I3
ssg83
g790
sg76
(lp797
S''
asbasbasbag69
(g85
g71
NtRp798
(dp799
g74
(dp800
sg83
g674
sg76
(lp801
g69
(g90
g71
NtRp802
(dp803
g74
(dp804
g94
g95
ssg83
g798
sg76
(lp805
g432
asbag69
(g90
g71
NtRp806
(dp807
g74
(dp808
g101
g102
ssg83
g798
sg76
(lp809
S':'
asbag69
(g90
g71
NtRp810
(dp811
g74
(dp812
sg83
g798
sg76
(lp813
g69
(g70
g71
NtRp814
(dp815
g74
(dp816
g82
I3
ssg83
g810
sg76
(lp817
S''
asbasbasbag69
(g85
g71
NtRp818
(dp819
g74
(dp820
sg83
g674
sg76
(lp821
g69
(g90
g71
NtRp822
(dp823
g74
(dp824
g94
g95
ssg83
g818
sg76
(lp825
g453
asbag69
(g90
g71
NtRp826
(dp827
g74
(dp828
g101
g102
ssg83
g818
sg76
(lp829
S':'
asbag69
(g90
g71
NtRp830
(dp831
g74
(dp832
sg83
g818
sg76
(lp833
g69
(g70
g71
NtRp834
(dp835
g74
(dp836
g82
I3
ssg83
g830
sg76
(lp837
S''
asbasbasbasbasbasbasbasbasbasbasbag69
(g85
g71
NtRp838
(dp839
g74
(dp840
sg83
g79
sg76
(lp841
g69
(g90
g71
NtRp842
(dp843
g74
(dp844
g94
g95
ssg83
g838
sg76
(lp845
S'env'
p846
asbag69
(g90
g71
NtRp847
(dp848
g74
(dp849
g101
g102
ssg83
g838
sg76
(lp850
S':'
asbag69
(g90
g71
NtRp851
(dp852
g74
(dp853
sg83
g838
sg76
(lp854
g69
(g70
g71
NtRp855
(dp856
g74
(dp857
g82
I5
ssg83
g851
sg76
(lp858
g69
(g78
g71
NtRp859
(dp860
g74
(dp861
g82
I4
ssg83
Nsg76
(lp862
g69
(g85
g71
NtRp863
(dp864
g74
(dp865
sg83
g859
sg76
(lp866
g69
(g90
g71
NtRp867
(dp868
g74
(dp869
g94
g95
ssg83
g863
sg76
(lp870
S'app_folders'
p871
asbag69
(g90
g71
NtRp872
(dp873
g74
(dp874
g101
g102
ssg83
g863
sg76
(lp875
S':'
asbag69
(g90
g71
NtRp876
(dp877
g74
(dp878
sg83
g863
sg76
(lp879
g69
(g70
g71
NtRp880
(dp881
g74
(dp882
g82
I4
ssg83
g876
sg76
(lp883
S"set(['D:\\\\My Documents\\\\Documents\\\\Aptana Studio 3 Workspace\\\\hw2\\\\applications\\\\welcome\\\\', 'D:\\\\My Documents\\\\Documents\\\\Aptana Studio 3 Workspace\\\\hw2\\\\applications\\\\admin\\\\', 'D:\\\\My Documents\\\\Documents\\\\Aptana Studio 3 Workspace\\\\hw2\\\\applications\\\\hw4\\\\'])"
p884
asbasbasbag69
(g85
g71
NtRp885
(dp886
g74
(dp887
sg83
g859
sg76
(lp888
g69
(g90
g71
NtRp889
(dp890
g74
(dp891
g94
g95
ssg83
g885
sg76
(lp892
S'applications_parent'
p893
asbag69
(g90
g71
NtRp894
(dp895
g74
(dp896
g101
g102
ssg83
g885
sg76
(lp897
S':'
asbag69
(g90
g71
NtRp898
(dp899
g74
(dp900
sg83
g885
sg76
(lp901
g69
(g70
g71
NtRp902
(dp903
g74
(dp904
g82
I4
ssg83
g898
sg76
(lp905
S'D:\\My Documents\\Documents\\Aptana Studio 3 Workspace\\hw2'
p906
asbasbasbag69
(g85
g71
NtRp907
(dp908
g74
(dp909
sg83
g859
sg76
(lp910
g69
(g90
g71
NtRp911
(dp912
g74
(dp913
g94
g95
ssg83
g907
sg76
(lp914
S'cmd_args'
p915
asbag69
(g90
g71
NtRp916
(dp917
g74
(dp918
g101
g102
ssg83
g907
sg76
(lp919
S':'
asbag69
(g90
g71
NtRp920
(dp921
g74
(dp922
sg83
g907
sg76
(lp923
g69
(g70
g71
NtRp924
(dp925
g74
(dp926
g82
I4
ssg83
g920
sg76
(lp927
g69
(g78
g71
NtRp928
(dp929
g74
(dp930
g82
I3
ssg83
Nsg76
(lp931
sbasbasbasbag69
(g85
g71
NtRp932
(dp933
g74
(dp934
sg83
g859
sg76
(lp935
g69
(g90
g71
NtRp936
(dp937
g74
(dp938
g94
g95
ssg83
g932
sg76
(lp939
S'cmd_options'
p940
asbag69
(g90
g71
NtRp941
(dp942
g74
(dp943
g101
g102
ssg83
g932
sg76
(lp944
S':'
asbag69
(g90
g71
NtRp945
(dp946
g74
(dp947
sg83
g932
sg76
(lp948
g69
(g70
g71
NtRp949
(dp950
g74
(dp951
g82
I4
ssg83
g945
sg76
(lp952
S"<Values at 0x1523c88: {'verbose': False, 'ip': '127.0.0.1', 'with_scheduler': False, 'ips': ['192.168.201.200'], 'shutdown_timeout': 5, 'taskbar': False, 'port': 8000, 'maxthreads': None, 'softcron': False, 'server_name': 'cateacher', 'bpython': False, 'nogui': False, 'pid_filename': 'httpserver.pid', 'extcron': False, 'runcron': False, 'run_system_tests': False, 'test': None, 'folder': 'D:\\\\My Documents\\\\Documents\\\\Aptana Studio 3 Workspace\\\\hw2', 'config': '', 'import_models': False, 'winservice': '', 'shell': None, 'run': '', 'log_filename': 'httpserver.log', 'debuglevel': 30, 'args': [''], 'socket_timeout': 5, 'ssl_ca_certificate': None, 'scheduler': None, 'profiler_filename': None, 'ssl_private_key': '', 'scheduler_groups': None, 'password': '<ask>', 'request_queue_size': 5, 'ssl_certificate': '', 'cronjob': False, 'numthreads': None, 'quiet': False, 'interfaces': None, 'minthreads': None, 'timeout': 10, 'plain': False, 'nobanner': False}>"
p953
asbasbasbag69
(g85
g71
NtRp954
(dp955
g74
(dp956
sg83
g859
sg76
(lp957
g69
(g90
g71
NtRp958
(dp959
g74
(dp960
g94
g95
ssg83
g954
sg76
(lp961
S'db_sessions'
p962
asbag69
(g90
g71
NtRp963
(dp964
g74
(dp965
g101
g102
ssg83
g954
sg76
(lp966
S':'
asbag69
(g90
g71
NtRp967
(dp968
g74
(dp969
sg83
g954
sg76
(lp970
g69
(g70
g71
NtRp971
(dp972
g74
(dp973
g82
I4
ssg83
g967
sg76
(lp974
S'set([])'
p975
asbasbasbag69
(g85
g71
NtRp976
(dp977
g74
(dp978
sg83
g859
sg76
(lp979
g69
(g90
g71
NtRp980
(dp981
g74
(dp982
g94
g95
ssg83
g976
sg76
(lp983
S'debugging'
p984
asbag69
(g90
g71
NtRp985
(dp986
g74
(dp987
g101
g102
ssg83
g976
sg76
(lp988
S':'
asbag69
(g90
g71
NtRp989
(dp990
g74
(dp991
sg83
g976
sg76
(lp992
g69
(g70
g71
NtRp993
(dp994
g74
(dp995
g82
I4
ssg83
g989
sg76
(lp996
g112
asbasbasbag69
(g85
g71
NtRp997
(dp998
g74
(dp999
sg83
g859
sg76
(lp1000
g69
(g90
g71
NtRp1001
(dp1002
g74
(dp1003
g94
g95
ssg83
g997
sg76
(lp1004
S'gluon_parent'
p1005
asbag69
(g90
g71
NtRp1006
(dp1007
g74
(dp1008
g101
g102
ssg83
g997
sg76
(lp1009
S':'
asbag69
(g90
g71
NtRp1010
(dp1011
g74
(dp1012
sg83
g997
sg76
(lp1013
g69
(g70
g71
NtRp1014
(dp1015
g74
(dp1016
g82
I4
ssg83
g1010
sg76
(lp1017
S'D:\\My Documents\\Documents\\Aptana Studio 3 Workspace\\hw2'
p1018
asbasbasbag69
(g85
g71
NtRp1019
(dp1020
g74
(dp1021
sg83
g859
sg76
(lp1022
g69
(g90
g71
NtRp1023
(dp1024
g74
(dp1025
g94
g95
ssg83
g1019
sg76
(lp1026
S'http_accept'
p1027
asbag69
(g90
g71
NtRp1028
(dp1029
g74
(dp1030
g101
g102
ssg83
g1019
sg76
(lp1031
S':'
asbag69
(g90
g71
NtRp1032
(dp1033
g74
(dp1034
sg83
g1019
sg76
(lp1035
g69
(g70
g71
NtRp1036
(dp1037
g74
(dp1038
g82
I4
ssg83
g1032
sg76
(lp1039
S'*/*'
p1040
asbasbasbag69
(g85
g71
NtRp1041
(dp1042
g74
(dp1043
sg83
g859
sg76
(lp1044
g69
(g90
g71
NtRp1045
(dp1046
g74
(dp1047
g94
g95
ssg83
g1041
sg76
(lp1048
S'http_accept_encoding'
p1049
asbag69
(g90
g71
NtRp1050
(dp1051
g74
(dp1052
g101
g102
ssg83
g1041
sg76
(lp1053
S':'
asbag69
(g90
g71
NtRp1054
(dp1055
g74
(dp1056
sg83
g1041
sg76
(lp1057
g69
(g70
g71
NtRp1058
(dp1059
g74
(dp1060
g82
I4
ssg83
g1054
sg76
(lp1061
S'gzip, deflate'
p1062
asbasbasbag69
(g85
g71
NtRp1063
(dp1064
g74
(dp1065
sg83
g859
sg76
(lp1066
g69
(g90
g71
NtRp1067
(dp1068
g74
(dp1069
g94
g95
ssg83
g1063
sg76
(lp1070
S'http_accept_language'
p1071
asbag69
(g90
g71
NtRp1072
(dp1073
g74
(dp1074
g101
g102
ssg83
g1063
sg76
(lp1075
S':'
asbag69
(g90
g71
NtRp1076
(dp1077
g74
(dp1078
sg83
g1063
sg76
(lp1079
g69
(g70
g71
NtRp1080
(dp1081
g74
(dp1082
g82
I4
ssg83
g1076
sg76
(lp1083
S'zh-cn'
p1084
asbasbasbag69
(g85
g71
NtRp1085
(dp1086
g74
(dp1087
sg83
g859
sg76
(lp1088
g69
(g90
g71
NtRp1089
(dp1090
g74
(dp1091
g94
g95
ssg83
g1085
sg76
(lp1092
S'http_connection'
p1093
asbag69
(g90
g71
NtRp1094
(dp1095
g74
(dp1096
g101
g102
ssg83
g1085
sg76
(lp1097
S':'
asbag69
(g90
g71
NtRp1098
(dp1099
g74
(dp1100
sg83
g1085
sg76
(lp1101
g69
(g70
g71
NtRp1102
(dp1103
g74
(dp1104
g82
I4
ssg83
g1098
sg76
(lp1105
S'Keep-Alive'
p1106
asbasbasbag69
(g85
g71
NtRp1107
(dp1108
g74
(dp1109
sg83
g859
sg76
(lp1110
g69
(g90
g71
NtRp1111
(dp1112
g74
(dp1113
g94
g95
ssg83
g1107
sg76
(lp1114
S'http_cookie'
p1115
asbag69
(g90
g71
NtRp1116
(dp1117
g74
(dp1118
g101
g102
ssg83
g1107
sg76
(lp1119
S':'
asbag69
(g90
g71
NtRp1120
(dp1121
g74
(dp1122
sg83
g1107
sg76
(lp1123
g69
(g70
g71
NtRp1124
(dp1125
g74
(dp1126
g82
I4
ssg83
g1120
sg76
(lp1127
S'session_id_welcome=127.0.0.1-951e80a4-3e2b-43af-b536-85e3a12bdc3c; session_id_admin=127.0.0.1-085758b8-8bcc-4b19-a5fa-3f370d105c70; session_id_hw4=127.0.0.1-181e70b6-28ab-405f-bb11-c9eeb9b68ae3'
p1128
asbasbasbag69
(g85
g71
NtRp1129
(dp1130
g74
(dp1131
sg83
g859
sg76
(lp1132
g69
(g90
g71
NtRp1133
(dp1134
g74
(dp1135
g94
g95
ssg83
g1129
sg76
(lp1136
S'http_host'
p1137
asbag69
(g90
g71
NtRp1138
(dp1139
g74
(dp1140
g101
g102
ssg83
g1129
sg76
(lp1141
S':'
asbag69
(g90
g71
NtRp1142
(dp1143
g74
(dp1144
sg83
g1129
sg76
(lp1145
g69
(g70
g71
NtRp1146
(dp1147
g74
(dp1148
g82
I4
ssg83
g1142
sg76
(lp1149
S'127.0.0.1:8000'
p1150
asbasbasbag69
(g85
g71
NtRp1151
(dp1152
g74
(dp1153
sg83
g859
sg76
(lp1154
g69
(g90
g71
NtRp1155
(dp1156
g74
(dp1157
g94
g95
ssg83
g1151
sg76
(lp1158
S'http_user_agent'
p1159
asbag69
(g90
g71
NtRp1160
(dp1161
g74
(dp1162
g101
g102
ssg83
g1151
sg76
(lp1163
S':'
asbag69
(g90
g71
NtRp1164
(dp1165
g74
(dp1166
sg83
g1151
sg76
(lp1167
g69
(g70
g71
NtRp1168
(dp1169
g74
(dp1170
g82
I4
ssg83
g1164
sg76
(lp1171
S'Mozilla/4.0 (compatible; MSIE 8.0; Windows NT 5.1; Trident/4.0; Maxthon; Foxy/1; .NET CLR 2.0.50727; InfoPath.1)'
p1172
asbasbasbag69
(g85
g71
NtRp1173
(dp1174
g74
(dp1175
sg83
g859
sg76
(lp1176
g69
(g90
g71
NtRp1177
(dp1178
g74
(dp1179
g94
g95
ssg83
g1173
sg76
(lp1180
S'is_jython'
p1181
asbag69
(g90
g71
NtRp1182
(dp1183
g74
(dp1184
g101
g102
ssg83
g1173
sg76
(lp1185
S':'
asbag69
(g90
g71
NtRp1186
(dp1187
g74
(dp1188
sg83
g1173
sg76
(lp1189
g69
(g70
g71
NtRp1190
(dp1191
g74
(dp1192
g82
I4
ssg83
g1186
sg76
(lp1193
g112
asbasbasbag69
(g85
g71
NtRp1194
(dp1195
g74
(dp1196
sg83
g859
sg76
(lp1197
g69
(g90
g71
NtRp1198
(dp1199
g74
(dp1200
g94
g95
ssg83
g1194
sg76
(lp1201
S'is_pypy'
p1202
asbag69
(g90
g71
NtRp1203
(dp1204
g74
(dp1205
g101
g102
ssg83
g1194
sg76
(lp1206
S':'
asbag69
(g90
g71
NtRp1207
(dp1208
g74
(dp1209
sg83
g1194
sg76
(lp1210
g69
(g70
g71
NtRp1211
(dp1212
g74
(dp1213
g82
I4
ssg83
g1207
sg76
(lp1214
g112
asbasbasbag69
(g85
g71
NtRp1215
(dp1216
g74
(dp1217
sg83
g859
sg76
(lp1218
g69
(g90
g71
NtRp1219
(dp1220
g74
(dp1221
g94
g95
ssg83
g1215
sg76
(lp1222
S'local_hosts'
p1223
asbag69
(g90
g71
NtRp1224
(dp1225
g74
(dp1226
g101
g102
ssg83
g1215
sg76
(lp1227
S':'
asbag69
(g90
g71
NtRp1228
(dp1229
g74
(dp1230
sg83
g1215
sg76
(lp1231
g69
(g70
g71
NtRp1232
(dp1233
g74
(dp1234
g82
I4
ssg83
g1228
sg76
(lp1235
g69
(g78
g71
NtRp1236
(dp1237
g74
(dp1238
g82
I3
ssg83
Nsg76
(lp1239
g69
(g85
g71
NtRp1240
(dp1241
g74
(dp1242
sg83
g1236
sg76
(lp1243
g69
(g90
g71
NtRp1244
(dp1245
g74
(dp1246
sg83
g1240
sg76
(lp1247
g69
(g70
g71
NtRp1248
(dp1249
g74
(dp1250
g82
I3
ssg83
g1244
sg76
(lp1251
S'192.168.201.200'
p1252
asbasbasbag69
(g85
g71
NtRp1253
(dp1254
g74
(dp1255
sg83
g1236
sg76
(lp1256
g69
(g90
g71
NtRp1257
(dp1258
g74
(dp1259
sg83
g1253
sg76
(lp1260
g69
(g70
g71
NtRp1261
(dp1262
g74
(dp1263
g82
I3
ssg83
g1257
sg76
(lp1264
S'::1'
p1265
asbasbasbag69
(g85
g71
NtRp1266
(dp1267
g74
(dp1268
sg83
g1236
sg76
(lp1269
g69
(g90
g71
NtRp1270
(dp1271
g74
(dp1272
sg83
g1266
sg76
(lp1273
g69
(g70
g71
NtRp1274
(dp1275
g74
(dp1276
g82
I3
ssg83
g1270
sg76
(lp1277
S'cateacher'
p1278
asbasbasbag69
(g85
g71
NtRp1279
(dp1280
g74
(dp1281
sg83
g1236
sg76
(lp1282
g69
(g90
g71
NtRp1283
(dp1284
g74
(dp1285
sg83
g1279
sg76
(lp1286
g69
(g70
g71
NtRp1287
(dp1288
g74
(dp1289
g82
I3
ssg83
g1283
sg76
(lp1290
S'::ffff:127.0.0.1'
p1291
asbasbasbag69
(g85
g71
NtRp1292
(dp1293
g74
(dp1294
sg83
g1236
sg76
(lp1295
g69
(g90
g71
NtRp1296
(dp1297
g74
(dp1298
sg83
g1292
sg76
(lp1299
g69
(g70
g71
NtRp1300
(dp1301
g74
(dp1302
g82
I3
ssg83
g1296
sg76
(lp1303
S'127.0.0.1'
p1304
asbasbasbasbasbasbasbag69
(g85
g71
NtRp1305
(dp1306
g74
(dp1307
sg83
g859
sg76
(lp1308
g69
(g90
g71
NtRp1309
(dp1310
g74
(dp1311
g94
g95
ssg83
g1305
sg76
(lp1312
S'path_info'
p1313
asbag69
(g90
g71
NtRp1314
(dp1315
g74
(dp1316
g101
g102
ssg83
g1305
sg76
(lp1317
S':'
asbag69
(g90
g71
NtRp1318
(dp1319
g74
(dp1320
sg83
g1305
sg76
(lp1321
g69
(g70
g71
NtRp1322
(dp1323
g74
(dp1324
g82
I4
ssg83
g1318
sg76
(lp1325
S'/hw4/plugin_elrte_widget/index'
p1326
asbasbasbag69
(g85
g71
NtRp1327
(dp1328
g74
(dp1329
sg83
g859
sg76
(lp1330
g69
(g90
g71
NtRp1331
(dp1332
g74
(dp1333
g94
g95
ssg83
g1327
sg76
(lp1334
S'query_string'
p1335
asbag69
(g90
g71
NtRp1336
(dp1337
g74
(dp1338
g101
g102
ssg83
g1327
sg76
(lp1339
S':'
asbag69
(g90
g71
NtRp1340
(dp1341
g74
(dp1342
sg83
g1327
sg76
(lp1343
g69
(g70
g71
NtRp1344
(dp1345
g74
(dp1346
g82
I4
ssg83
g1340
sg76
(lp1347
S''
asbasbasbag69
(g85
g71
NtRp1348
(dp1349
g74
(dp1350
sg83
g859
sg76
(lp1351
g69
(g90
g71
NtRp1352
(dp1353
g74
(dp1354
g94
g95
ssg83
g1348
sg76
(lp1355
S'remote_addr'
p1356
asbag69
(g90
g71
NtRp1357
(dp1358
g74
(dp1359
g101
g102
ssg83
g1348
sg76
(lp1360
S':'
asbag69
(g90
g71
NtRp1361
(dp1362
g74
(dp1363
sg83
g1348
sg76
(lp1364
g69
(g70
g71
NtRp1365
(dp1366
g74
(dp1367
g82
I4
ssg83
g1361
sg76
(lp1368
g224
asbasbasbag69
(g85
g71
NtRp1369
(dp1370
g74
(dp1371
sg83
g859
sg76
(lp1372
g69
(g90
g71
NtRp1373
(dp1374
g74
(dp1375
g94
g95
ssg83
g1369
sg76
(lp1376
S'remote_port'
p1377
asbag69
(g90
g71
NtRp1378
(dp1379
g74
(dp1380
g101
g102
ssg83
g1369
sg76
(lp1381
S':'
asbag69
(g90
g71
NtRp1382
(dp1383
g74
(dp1384
sg83
g1369
sg76
(lp1385
g69
(g70
g71
NtRp1386
(dp1387
g74
(dp1388
g82
I4
ssg83
g1382
sg76
(lp1389
S'1304'
p1390
asbasbasbag69
(g85
g71
NtRp1391
(dp1392
g74
(dp1393
sg83
g859
sg76
(lp1394
g69
(g90
g71
NtRp1395
(dp1396
g74
(dp1397
g94
g95
ssg83
g1391
sg76
(lp1398
S'request_method'
p1399
asbag69
(g90
g71
NtRp1400
(dp1401
g74
(dp1402
g101
g102
ssg83
g1391
sg76
(lp1403
S':'
asbag69
(g90
g71
NtRp1404
(dp1405
g74
(dp1406
sg83
g1391
sg76
(lp1407
g69
(g70
g71
NtRp1408
(dp1409
g74
(dp1410
g82
I4
ssg83
g1404
sg76
(lp1411
S'GET'
p1412
asbasbasbag69
(g85
g71
NtRp1413
(dp1414
g74
(dp1415
sg83
g859
sg76
(lp1416
g69
(g90
g71
NtRp1417
(dp1418
g74
(dp1419
g94
g95
ssg83
g1413
sg76
(lp1420
S'request_uri'
p1421
asbag69
(g90
g71
NtRp1422
(dp1423
g74
(dp1424
g101
g102
ssg83
g1413
sg76
(lp1425
S':'
asbag69
(g90
g71
NtRp1426
(dp1427
g74
(dp1428
sg83
g1413
sg76
(lp1429
g69
(g70
g71
NtRp1430
(dp1431
g74
(dp1432
g82
I4
ssg83
g1426
sg76
(lp1433
g1326
asbasbasbag69
(g85
g71
NtRp1434
(dp1435
g74
(dp1436
sg83
g859
sg76
(lp1437
g69
(g90
g71
NtRp1438
(dp1439
g74
(dp1440
g94
g95
ssg83
g1434
sg76
(lp1441
S'script_name'
p1442
asbag69
(g90
g71
NtRp1443
(dp1444
g74
(dp1445
g101
g102
ssg83
g1434
sg76
(lp1446
S':'
asbag69
(g90
g71
NtRp1447
(dp1448
g74
(dp1449
sg83
g1434
sg76
(lp1450
g69
(g70
g71
NtRp1451
(dp1452
g74
(dp1453
g82
I4
ssg83
g1447
sg76
(lp1454
S''
asbasbasbag69
(g85
g71
NtRp1455
(dp1456
g74
(dp1457
sg83
g859
sg76
(lp1458
g69
(g90
g71
NtRp1459
(dp1460
g74
(dp1461
g94
g95
ssg83
g1455
sg76
(lp1462
S'server_name'
p1463
asbag69
(g90
g71
NtRp1464
(dp1465
g74
(dp1466
g101
g102
ssg83
g1455
sg76
(lp1467
S':'
asbag69
(g90
g71
NtRp1468
(dp1469
g74
(dp1470
sg83
g1455
sg76
(lp1471
g69
(g70
g71
NtRp1472
(dp1473
g74
(dp1474
g82
I4
ssg83
g1468
sg76
(lp1475
S'cateacher'
p1476
asbasbasbag69
(g85
g71
NtRp1477
(dp1478
g74
(dp1479
sg83
g859
sg76
(lp1480
g69
(g90
g71
NtRp1481
(dp1482
g74
(dp1483
g94
g95
ssg83
g1477
sg76
(lp1484
S'server_port'
p1485
asbag69
(g90
g71
NtRp1486
(dp1487
g74
(dp1488
g101
g102
ssg83
g1477
sg76
(lp1489
S':'
asbag69
(g90
g71
NtRp1490
(dp1491
g74
(dp1492
sg83
g1477
sg76
(lp1493
g69
(g70
g71
NtRp1494
(dp1495
g74
(dp1496
g82
I4
ssg83
g1490
sg76
(lp1497
S'8000'
p1498
asbasbasbag69
(g85
g71
NtRp1499
(dp1500
g74
(dp1501
sg83
g859
sg76
(lp1502
g69
(g90
g71
NtRp1503
(dp1504
g74
(dp1505
g94
g95
ssg83
g1499
sg76
(lp1506
S'server_protocol'
p1507
asbag69
(g90
g71
NtRp1508
(dp1509
g74
(dp1510
g101
g102
ssg83
g1499
sg76
(lp1511
S':'
asbag69
(g90
g71
NtRp1512
(dp1513
g74
(dp1514
sg83
g1499
sg76
(lp1515
g69
(g70
g71
NtRp1516
(dp1517
g74
(dp1518
g82
I4
ssg83
g1512
sg76
(lp1519
S'HTTP/1.1'
p1520
asbasbasbag69
(g85
g71
NtRp1521
(dp1522
g74
(dp1523
sg83
g859
sg76
(lp1524
g69
(g90
g71
NtRp1525
(dp1526
g74
(dp1527
g94
g95
ssg83
g1521
sg76
(lp1528
S'server_software'
p1529
asbag69
(g90
g71
NtRp1530
(dp1531
g74
(dp1532
g101
g102
ssg83
g1521
sg76
(lp1533
S':'
asbag69
(g90
g71
NtRp1534
(dp1535
g74
(dp1536
sg83
g1521
sg76
(lp1537
g69
(g70
g71
NtRp1538
(dp1539
g74
(dp1540
g82
I4
ssg83
g1534
sg76
(lp1541
S'Rocket 1.2.6'
p1542
asbasbasbag69
(g85
g71
NtRp1543
(dp1544
g74
(dp1545
sg83
g859
sg76
(lp1546
g69
(g90
g71
NtRp1547
(dp1548
g74
(dp1549
g94
g95
ssg83
g1543
sg76
(lp1550
S'web2py_path'
p1551
asbag69
(g90
g71
NtRp1552
(dp1553
g74
(dp1554
g101
g102
ssg83
g1543
sg76
(lp1555
S':'
asbag69
(g90
g71
NtRp1556
(dp1557
g74
(dp1558
sg83
g1543
sg76
(lp1559
g69
(g70
g71
NtRp1560
(dp1561
g74
(dp1562
g82
I4
ssg83
g1556
sg76
(lp1563
g906
asbasbasbag69
(g85
g71
NtRp1564
(dp1565
g74
(dp1566
sg83
g859
sg76
(lp1567
g69
(g90
g71
NtRp1568
(dp1569
g74
(dp1570
g94
g95
ssg83
g1564
sg76
(lp1571
S'web2py_version'
p1572
asbag69
(g90
g71
NtRp1573
(dp1574
g74
(dp1575
g101
g102
ssg83
g1564
sg76
(lp1576
S':'
asbag69
(g90
g71
NtRp1577
(dp1578
g74
(dp1579
sg83
g1564
sg76
(lp1580
g69
(g70
g71
NtRp1581
(dp1582
g74
(dp1583
g82
I4
ssg83
g1577
sg76
(lp1584
g69
(g78
g71
NtRp1585
(dp1586
g74
(dp1587
g82
I3
ssg83
Nsg76
(lp1588
g69
(g85
g71
NtRp1589
(dp1590
g74
(dp1591
sg83
g1585
sg76
(lp1592
g69
(g90
g71
NtRp1593
(dp1594
g74
(dp1595
sg83
g1589
sg76
(lp1596
g69
(g70
g71
NtRp1597
(dp1598
g74
(dp1599
g82
I3
ssg83
g1593
sg76
(lp1600
S'2'
asbasbasbag69
(g85
g71
NtRp1601
(dp1602
g74
(dp1603
sg83
g1585
sg76
(lp1604
g69
(g90
g71
NtRp1605
(dp1606
g74
(dp1607
sg83
g1601
sg76
(lp1608
g69
(g70
g71
NtRp1609
(dp1610
g74
(dp1611
g82
I3
ssg83
g1605
sg76
(lp1612
S'3'
asbasbasbag69
(g85
g71
NtRp1613
(dp1614
g74
(dp1615
sg83
g1585
sg76
(lp1616
g69
(g90
g71
NtRp1617
(dp1618
g74
(dp1619
sg83
g1613
sg76
(lp1620
g69
(g70
g71
NtRp1621
(dp1622
g74
(dp1623
g82
I3
ssg83
g1617
sg76
(lp1624
S'2'
asbasbasbag69
(g85
g71
NtRp1625
(dp1626
g74
(dp1627
sg83
g1585
sg76
(lp1628
g69
(g90
g71
NtRp1629
(dp1630
g74
(dp1631
sg83
g1625
sg76
(lp1632
g69
(g70
g71
NtRp1633
(dp1634
g74
(dp1635
g82
I3
ssg83
g1629
sg76
(lp1636
S'datetime.datetime(2012, 12, 17, 15, 3, 30)'
p1637
asbasbasbag69
(g85
g71
NtRp1638
(dp1639
g74
(dp1640
sg83
g1585
sg76
(lp1641
g69
(g90
g71
NtRp1642
(dp1643
g74
(dp1644
sg83
g1638
sg76
(lp1645
g69
(g70
g71
NtRp1646
(dp1647
g74
(dp1648
g82
I3
ssg83
g1642
sg76
(lp1649
S'stable'
p1650
asbasbasbasbasbasbasbag69
(g85
g71
NtRp1651
(dp1652
g74
(dp1653
sg83
g859
sg76
(lp1654
g69
(g90
g71
NtRp1655
(dp1656
g74
(dp1657
g94
g95
ssg83
g1651
sg76
(lp1658
S'wsgi_errors'
p1659
asbag69
(g90
g71
NtRp1660
(dp1661
g74
(dp1662
g101
g102
ssg83
g1651
sg76
(lp1663
S':'
asbag69
(g90
g71
NtRp1664
(dp1665
g74
(dp1666
sg83
g1651
sg76
(lp1667
g69
(g70
g71
NtRp1668
(dp1669
g74
(dp1670
g82
I4
ssg83
g1664
sg76
(lp1671
S"<open file '<stderr>', mode 'w' at 0x00AB50D0>"
p1672
asbasbasbag69
(g85
g71
NtRp1673
(dp1674
g74
(dp1675
sg83
g859
sg76
(lp1676
g69
(g90
g71
NtRp1677
(dp1678
g74
(dp1679
g94
g95
ssg83
g1673
sg76
(lp1680
S'wsgi_file_wrapper'
p1681
asbag69
(g90
g71
NtRp1682
(dp1683
g74
(dp1684
g101
g102
ssg83
g1673
sg76
(lp1685
S':'
asbag69
(g90
g71
NtRp1686
(dp1687
g74
(dp1688
sg83
g1673
sg76
(lp1689
g69
(g70
g71
NtRp1690
(dp1691
g74
(dp1692
g82
I4
ssg83
g1686
sg76
(lp1693
S'<class wsgiref.util.FileWrapper at 0x014D9618>'
p1694
asbasbasbag69
(g85
g71
NtRp1695
(dp1696
g74
(dp1697
sg83
g859
sg76
(lp1698
g69
(g90
g71
NtRp1699
(dp1700
g74
(dp1701
g94
g95
ssg83
g1695
sg76
(lp1702
S'wsgi_input'
p1703
asbag69
(g90
g71
NtRp1704
(dp1705
g74
(dp1706
g101
g102
ssg83
g1695
sg76
(lp1707
S':'
asbag69
(g90
g71
NtRp1708
(dp1709
g74
(dp1710
sg83
g1695
sg76
(lp1711
g69
(g70
g71
NtRp1712
(dp1713
g74
(dp1714
g82
I4
ssg83
g1708
sg76
(lp1715
S'<socket._fileobject object at 0x018D2970>'
p1716
asbasbasbag69
(g85
g71
NtRp1717
(dp1718
g74
(dp1719
sg83
g859
sg76
(lp1720
g69
(g90
g71
NtRp1721
(dp1722
g74
(dp1723
g94
g95
ssg83
g1717
sg76
(lp1724
S'wsgi_multiprocess'
p1725
asbag69
(g90
g71
NtRp1726
(dp1727
g74
(dp1728
g101
g102
ssg83
g1717
sg76
(lp1729
S':'
asbag69
(g90
g71
NtRp1730
(dp1731
g74
(dp1732
sg83
g1717
sg76
(lp1733
g69
(g70
g71
NtRp1734
(dp1735
g74
(dp1736
g82
I4
ssg83
g1730
sg76
(lp1737
g112
asbasbasbag69
(g85
g71
NtRp1738
(dp1739
g74
(dp1740
sg83
g859
sg76
(lp1741
g69
(g90
g71
NtRp1742
(dp1743
g74
(dp1744
g94
g95
ssg83
g1738
sg76
(lp1745
S'wsgi_multithread'
p1746
asbag69
(g90
g71
NtRp1747
(dp1748
g74
(dp1749
g101
g102
ssg83
g1738
sg76
(lp1750
S':'
asbag69
(g90
g71
NtRp1751
(dp1752
g74
(dp1753
sg83
g1738
sg76
(lp1754
g69
(g70
g71
NtRp1755
(dp1756
g74
(dp1757
g82
I4
ssg83
g1751
sg76
(lp1758
S'True'
p1759
asbasbasbag69
(g85
g71
NtRp1760
(dp1761
g74
(dp1762
sg83
g859
sg76
(lp1763
g69
(g90
g71
NtRp1764
(dp1765
g74
(dp1766
g94
g95
ssg83
g1760
sg76
(lp1767
S'wsgi_run_once'
p1768
asbag69
(g90
g71
NtRp1769
(dp1770
g74
(dp1771
g101
g102
ssg83
g1760
sg76
(lp1772
S':'
asbag69
(g90
g71
NtRp1773
(dp1774
g74
(dp1775
sg83
g1760
sg76
(lp1776
g69
(g70
g71
NtRp1777
(dp1778
g74
(dp1779
g82
I4
ssg83
g1773
sg76
(lp1780
g112
asbasbasbag69
(g85
g71
NtRp1781
(dp1782
g74
(dp1783
sg83
g859
sg76
(lp1784
g69
(g90
g71
NtRp1785
(dp1786
g74
(dp1787
g94
g95
ssg83
g1781
sg76
(lp1788
S'wsgi_url_scheme'
p1789
asbag69
(g90
g71
NtRp1790
(dp1791
g74
(dp1792
g101
g102
ssg83
g1781
sg76
(lp1793
S':'
asbag69
(g90
g71
NtRp1794
(dp1795
g74
(dp1796
sg83
g1781
sg76
(lp1797
g69
(g70
g71
NtRp1798
(dp1799
g74
(dp1800
g82
I4
ssg83
g1794
sg76
(lp1801
S'http'
p1802
asbasbasbag69
(g85
g71
NtRp1803
(dp1804
g74
(dp1805
sg83
g859
sg76
(lp1806
g69
(g90
g71
NtRp1807
(dp1808
g74
(dp1809
g94
g95
ssg83
g1803
sg76
(lp1810
S'wsgi_version'
p1811
asbag69
(g90
g71
NtRp1812
(dp1813
g74
(dp1814
g101
g102
ssg83
g1803
sg76
(lp1815
S':'
asbag69
(g90
g71
NtRp1816
(dp1817
g74
(dp1818
sg83
g1803
sg76
(lp1819
g69
(g70
g71
NtRp1820
(dp1821
g74
(dp1822
g82
I4
ssg83
g1816
sg76
(lp1823
g69
(g78
g71
NtRp1824
(dp1825
g74
(dp1826
g82
I3
ssg83
Nsg76
(lp1827
g69
(g85
g71
NtRp1828
(dp1829
g74
(dp1830
sg83
g1824
sg76
(lp1831
g69
(g90
g71
NtRp1832
(dp1833
g74
(dp1834
sg83
g1828
sg76
(lp1835
g69
(g70
g71
NtRp1836
(dp1837
g74
(dp1838
g82
I3
ssg83
g1832
sg76
(lp1839
S'1'
asbasbasbag69
(g85
g71
NtRp1840
(dp1841
g74
(dp1842
sg83
g1824
sg76
(lp1843
g69
(g90
g71
NtRp1844
(dp1845
g74
(dp1846
sg83
g1840
sg76
(lp1847
g69
(g70
g71
NtRp1848
(dp1849
g74
(dp1850
g82
I3
ssg83
g1844
sg76
(lp1851
S'0'
asbasbasbasbasbasbasbasbasbasbasbag69
(g85
g71
NtRp1852
(dp1853
g74
(dp1854
sg83
g79
sg76
(lp1855
g69
(g90
g71
NtRp1856
(dp1857
g74
(dp1858
g94
g95
ssg83
g1852
sg76
(lp1859
S'extension'
p1860
asbag69
(g90
g71
NtRp1861
(dp1862
g74
(dp1863
g101
g102
ssg83
g1852
sg76
(lp1864
S':'
asbag69
(g90
g71
NtRp1865
(dp1866
g74
(dp1867
sg83
g1852
sg76
(lp1868
g69
(g70
g71
NtRp1869
(dp1870
g74
(dp1871
g82
I5
ssg83
g1865
sg76
(lp1872
S'html'
p1873
asbasbasbag69
(g85
g71
NtRp1874
(dp1875
g74
(dp1876
sg83
g79
sg76
(lp1877
g69
(g90
g71
NtRp1878
(dp1879
g74
(dp1880
g94
g95
ssg83
g1874
sg76
(lp1881
S'folder'
p1882
asbag69
(g90
g71
NtRp1883
(dp1884
g74
(dp1885
g101
g102
ssg83
g1874
sg76
(lp1886
S':'
asbag69
(g90
g71
NtRp1887
(dp1888
g74
(dp1889
sg83
g1874
sg76
(lp1890
g69
(g70
g71
NtRp1891
(dp1892
g74
(dp1893
g82
I5
ssg83
g1887
sg76
(lp1894
S'D:\\My Documents\\Documents\\Aptana Studio 3 Workspace\\hw2\\applications\\hw4\\'
p1895
asbasbasbag69
(g85
g71
NtRp1896
(dp1897
g74
(dp1898
sg83
g79
sg76
(lp1899
g69
(g90
g71
NtRp1900
(dp1901
g74
(dp1902
g94
g95
ssg83
g1896
sg76
(lp1903
S'function'
p1904
asbag69
(g90
g71
NtRp1905
(dp1906
g74
(dp1907
g101
g102
ssg83
g1896
sg76
(lp1908
S':'
asbag69
(g90
g71
NtRp1909
(dp1910
g74
(dp1911
sg83
g1896
sg76
(lp1912
g69
(g70
g71
NtRp1913
(dp1914
g74
(dp1915
g82
I5
ssg83
g1909
sg76
(lp1916
S'index'
p1917
asbasbasbag69
(g85
g71
NtRp1918
(dp1919
g74
(dp1920
sg83
g79
sg76
(lp1921
g69
(g90
g71
NtRp1922
(dp1923
g74
(dp1924
g94
g95
ssg83
g1918
sg76
(lp1925
S'get_vars'
p1926
asbag69
(g90
g71
NtRp1927
(dp1928
g74
(dp1929
g101
g102
ssg83
g1918
sg76
(lp1930
S':'
asbag69
(g90
g71
NtRp1931
(dp1932
g74
(dp1933
sg83
g1918
sg76
(lp1934
g69
(g70
g71
NtRp1935
(dp1936
g74
(dp1937
g82
I5
ssg83
g1931
sg76
(lp1938
g69
(g78
g71
NtRp1939
(dp1940
g74
(dp1941
g82
I4
ssg83
Nsg76
(lp1942
sbasbasbasbag69
(g85
g71
NtRp1943
(dp1944
g74
(dp1945
sg83
g79
sg76
(lp1946
g69
(g90
g71
NtRp1947
(dp1948
g74
(dp1949
g94
g95
ssg83
g1943
sg76
(lp1950
S'global_settings'
p1951
asbag69
(g90
g71
NtRp1952
(dp1953
g74
(dp1954
g101
g102
ssg83
g1943
sg76
(lp1955
S':'
asbag69
(g90
g71
NtRp1956
(dp1957
g74
(dp1958
sg83
g1943
sg76
(lp1959
g69
(g70
g71
NtRp1960
(dp1961
g74
(dp1962
g82
I5
ssg83
g1956
sg76
(lp1963
g69
(g78
g71
NtRp1964
(dp1965
g74
(dp1966
g82
I4
ssg83
Nsg76
(lp1967
g69
(g85
g71
NtRp1968
(dp1969
g74
(dp1970
sg83
g1964
sg76
(lp1971
g69
(g90
g71
NtRp1972
(dp1973
g74
(dp1974
g94
g95
ssg83
g1968
sg76
(lp1975
g871
asbag69
(g90
g71
NtRp1976
(dp1977
g74
(dp1978
g101
g102
ssg83
g1968
sg76
(lp1979
S':'
asbag69
(g90
g71
NtRp1980
(dp1981
g74
(dp1982
sg83
g1968
sg76
(lp1983
g69
(g70
g71
NtRp1984
(dp1985
g74
(dp1986
g82
I4
ssg83
g1980
sg76
(lp1987
S"set(['D:\\\\My Documents\\\\Documents\\\\Aptana Studio 3 Workspace\\\\hw2\\\\applications\\\\welcome\\\\', 'D:\\\\My Documents\\\\Documents\\\\Aptana Studio 3 Workspace\\\\hw2\\\\applications\\\\admin\\\\', 'D:\\\\My Documents\\\\Documents\\\\Aptana Studio 3 Workspace\\\\hw2\\\\applications\\\\hw4\\\\'])"
p1988
asbasbasbag69
(g85
g71
NtRp1989
(dp1990
g74
(dp1991
sg83
g1964
sg76
(lp1992
g69
(g90
g71
NtRp1993
(dp1994
g74
(dp1995
g94
g95
ssg83
g1989
sg76
(lp1996
g893
asbag69
(g90
g71
NtRp1997
(dp1998
g74
(dp1999
g101
g102
ssg83
g1989
sg76
(lp2000
S':'
asbag69
(g90
g71
NtRp2001
(dp2002
g74
(dp2003
sg83
g1989
sg76
(lp2004
g69
(g70
g71
NtRp2005
(dp2006
g74
(dp2007
g82
I4
ssg83
g2001
sg76
(lp2008
g906
asbasbasbag69
(g85
g71
NtRp2009
(dp2010
g74
(dp2011
sg83
g1964
sg76
(lp2012
g69
(g90
g71
NtRp2013
(dp2014
g74
(dp2015
g94
g95
ssg83
g2009
sg76
(lp2016
g915
asbag69
(g90
g71
NtRp2017
(dp2018
g74
(dp2019
g101
g102
ssg83
g2009
sg76
(lp2020
S':'
asbag69
(g90
g71
NtRp2021
(dp2022
g74
(dp2023
sg83
g2009
sg76
(lp2024
g69
(g70
g71
NtRp2025
(dp2026
g74
(dp2027
g82
I4
ssg83
g2021
sg76
(lp2028
g69
(g78
g71
NtRp2029
(dp2030
g74
(dp2031
g82
I3
ssg83
Nsg76
(lp2032
sbasbasbasbag69
(g85
g71
NtRp2033
(dp2034
g74
(dp2035
sg83
g1964
sg76
(lp2036
g69
(g90
g71
NtRp2037
(dp2038
g74
(dp2039
g94
g95
ssg83
g2033
sg76
(lp2040
g940
asbag69
(g90
g71
NtRp2041
(dp2042
g74
(dp2043
g101
g102
ssg83
g2033
sg76
(lp2044
S':'
asbag69
(g90
g71
NtRp2045
(dp2046
g74
(dp2047
sg83
g2033
sg76
(lp2048
g69
(g70
g71
NtRp2049
(dp2050
g74
(dp2051
g82
I4
ssg83
g2045
sg76
(lp2052
S"<Values at 0x1523c88: {'verbose': False, 'ip': '127.0.0.1', 'with_scheduler': False, 'ips': ['192.168.201.200'], 'shutdown_timeout': 5, 'taskbar': False, 'port': 8000, 'maxthreads': None, 'softcron': False, 'server_name': 'cateacher', 'bpython': False, 'nogui': False, 'pid_filename': 'httpserver.pid', 'extcron': False, 'runcron': False, 'run_system_tests': False, 'test': None, 'folder': 'D:\\\\My Documents\\\\Documents\\\\Aptana Studio 3 Workspace\\\\hw2', 'config': '', 'import_models': False, 'winservice': '', 'shell': None, 'run': '', 'log_filename': 'httpserver.log', 'debuglevel': 30, 'args': [''], 'socket_timeout': 5, 'ssl_ca_certificate': None, 'scheduler': None, 'profiler_filename': None, 'ssl_private_key': '', 'scheduler_groups': None, 'password': '<ask>', 'request_queue_size': 5, 'ssl_certificate': '', 'cronjob': False, 'numthreads': None, 'quiet': False, 'interfaces': None, 'minthreads': None, 'timeout': 10, 'plain': False, 'nobanner': False}>"
p2053
asbasbasbag69
(g85
g71
NtRp2054
(dp2055
g74
(dp2056
sg83
g1964
sg76
(lp2057
g69
(g90
g71
NtRp2058
(dp2059
g74
(dp2060
g94
g95
ssg83
g2054
sg76
(lp2061
g962
asbag69
(g90
g71
NtRp2062
(dp2063
g74
(dp2064
g101
g102
ssg83
g2054
sg76
(lp2065
S':'
asbag69
(g90
g71
NtRp2066
(dp2067
g74
(dp2068
sg83
g2054
sg76
(lp2069
g69
(g70
g71
NtRp2070
(dp2071
g74
(dp2072
g82
I4
ssg83
g2066
sg76
(lp2073
S'set([])'
p2074
asbasbasbag69
(g85
g71
NtRp2075
(dp2076
g74
(dp2077
sg83
g1964
sg76
(lp2078
g69
(g90
g71
NtRp2079
(dp2080
g74
(dp2081
g94
g95
ssg83
g2075
sg76
(lp2082
g984
asbag69
(g90
g71
NtRp2083
(dp2084
g74
(dp2085
g101
g102
ssg83
g2075
sg76
(lp2086
S':'
asbag69
(g90
g71
NtRp2087
(dp2088
g74
(dp2089
sg83
g2075
sg76
(lp2090
g69
(g70
g71
NtRp2091
(dp2092
g74
(dp2093
g82
I4
ssg83
g2087
sg76
(lp2094
g112
asbasbasbag69
(g85
g71
NtRp2095
(dp2096
g74
(dp2097
sg83
g1964
sg76
(lp2098
g69
(g90
g71
NtRp2099
(dp2100
g74
(dp2101
g94
g95
ssg83
g2095
sg76
(lp2102
g1005
asbag69
(g90
g71
NtRp2103
(dp2104
g74
(dp2105
g101
g102
ssg83
g2095
sg76
(lp2106
S':'
asbag69
(g90
g71
NtRp2107
(dp2108
g74
(dp2109
sg83
g2095
sg76
(lp2110
g69
(g70
g71
NtRp2111
(dp2112
g74
(dp2113
g82
I4
ssg83
g2107
sg76
(lp2114
g1018
asbasbasbag69
(g85
g71
NtRp2115
(dp2116
g74
(dp2117
sg83
g1964
sg76
(lp2118
g69
(g90
g71
NtRp2119
(dp2120
g74
(dp2121
g94
g95
ssg83
g2115
sg76
(lp2122
g1181
asbag69
(g90
g71
NtRp2123
(dp2124
g74
(dp2125
g101
g102
ssg83
g2115
sg76
(lp2126
S':'
asbag69
(g90
g71
NtRp2127
(dp2128
g74
(dp2129
sg83
g2115
sg76
(lp2130
g69
(g70
g71
NtRp2131
(dp2132
g74
(dp2133
g82
I4
ssg83
g2127
sg76
(lp2134
g112
asbasbasbag69
(g85
g71
NtRp2135
(dp2136
g74
(dp2137
sg83
g1964
sg76
(lp2138
g69
(g90
g71
NtRp2139
(dp2140
g74
(dp2141
g94
g95
ssg83
g2135
sg76
(lp2142
g1202
asbag69
(g90
g71
NtRp2143
(dp2144
g74
(dp2145
g101
g102
ssg83
g2135
sg76
(lp2146
S':'
asbag69
(g90
g71
NtRp2147
(dp2148
g74
(dp2149
sg83
g2135
sg76
(lp2150
g69
(g70
g71
NtRp2151
(dp2152
g74
(dp2153
g82
I4
ssg83
g2147
sg76
(lp2154
g112
asbasbasbag69
(g85
g71
NtRp2155
(dp2156
g74
(dp2157
sg83
g1964
sg76
(lp2158
g69
(g90
g71
NtRp2159
(dp2160
g74
(dp2161
g94
g95
ssg83
g2155
sg76
(lp2162
g1223
asbag69
(g90
g71
NtRp2163
(dp2164
g74
(dp2165
g101
g102
ssg83
g2155
sg76
(lp2166
S':'
asbag69
(g90
g71
NtRp2167
(dp2168
g74
(dp2169
sg83
g2155
sg76
(lp2170
g69
(g70
g71
NtRp2171
(dp2172
g74
(dp2173
g82
I4
ssg83
g2167
sg76
(lp2174
g69
(g78
g71
NtRp2175
(dp2176
g74
(dp2177
g82
I3
ssg83
Nsg76
(lp2178
g69
(g85
g71
NtRp2179
(dp2180
g74
(dp2181
sg83
g2175
sg76
(lp2182
g69
(g90
g71
NtRp2183
(dp2184
g74
(dp2185
sg83
g2179
sg76
(lp2186
g69
(g70
g71
NtRp2187
(dp2188
g74
(dp2189
g82
I3
ssg83
g2183
sg76
(lp2190
g1252
asbasbasbag69
(g85
g71
NtRp2191
(dp2192
g74
(dp2193
sg83
g2175
sg76
(lp2194
g69
(g90
g71
NtRp2195
(dp2196
g74
(dp2197
sg83
g2191
sg76
(lp2198
g69
(g70
g71
NtRp2199
(dp2200
g74
(dp2201
g82
I3
ssg83
g2195
sg76
(lp2202
g1265
asbasbasbag69
(g85
g71
NtRp2203
(dp2204
g74
(dp2205
sg83
g2175
sg76
(lp2206
g69
(g90
g71
NtRp2207
(dp2208
g74
(dp2209
sg83
g2203
sg76
(lp2210
g69
(g70
g71
NtRp2211
(dp2212
g74
(dp2213
g82
I3
ssg83
g2207
sg76
(lp2214
g1278
asbasbasbag69
(g85
g71
NtRp2215
(dp2216
g74
(dp2217
sg83
g2175
sg76
(lp2218
g69
(g90
g71
NtRp2219
(dp2220
g74
(dp2221
sg83
g2215
sg76
(lp2222
g69
(g70
g71
NtRp2223
(dp2224
g74
(dp2225
g82
I3
ssg83
g2219
sg76
(lp2226
g1291
asbasbasbag69
(g85
g71
NtRp2227
(dp2228
g74
(dp2229
sg83
g2175
sg76
(lp2230
g69
(g90
g71
NtRp2231
(dp2232
g74
(dp2233
sg83
g2227
sg76
(lp2234
g69
(g70
g71
NtRp2235
(dp2236
g74
(dp2237
g82
I3
ssg83
g2231
sg76
(lp2238
g1304
asbasbasbasbasbasbasbag69
(g85
g71
NtRp2239
(dp2240
g74
(dp2241
sg83
g1964
sg76
(lp2242
g69
(g90
g71
NtRp2243
(dp2244
g74
(dp2245
g94
g95
ssg83
g2239
sg76
(lp2246
g1572
asbag69
(g90
g71
NtRp2247
(dp2248
g74
(dp2249
g101
g102
ssg83
g2239
sg76
(lp2250
S':'
asbag69
(g90
g71
NtRp2251
(dp2252
g74
(dp2253
sg83
g2239
sg76
(lp2254
g69
(g70
g71
NtRp2255
(dp2256
g74
(dp2257
g82
I4
ssg83
g2251
sg76
(lp2258
g69
(g78
g71
NtRp2259
(dp2260
g74
(dp2261
g82
I3
ssg83
Nsg76
(lp2262
g69
(g85
g71
NtRp2263
(dp2264
g74
(dp2265
sg83
g2259
sg76
(lp2266
g69
(g90
g71
NtRp2267
(dp2268
g74
(dp2269
sg83
g2263
sg76
(lp2270
g69
(g70
g71
NtRp2271
(dp2272
g74
(dp2273
g82
I3
ssg83
g2267
sg76
(lp2274
S'2'
asbasbasbag69
(g85
g71
NtRp2275
(dp2276
g74
(dp2277
sg83
g2259
sg76
(lp2278
g69
(g90
g71
NtRp2279
(dp2280
g74
(dp2281
sg83
g2275
sg76
(lp2282
g69
(g70
g71
NtRp2283
(dp2284
g74
(dp2285
g82
I3
ssg83
g2279
sg76
(lp2286
S'3'
asbasbasbag69
(g85
g71
NtRp2287
(dp2288
g74
(dp2289
sg83
g2259
sg76
(lp2290
g69
(g90
g71
NtRp2291
(dp2292
g74
(dp2293
sg83
g2287
sg76
(lp2294
g69
(g70
g71
NtRp2295
(dp2296
g74
(dp2297
g82
I3
ssg83
g2291
sg76
(lp2298
S'2'
asbasbasbag69
(g85
g71
NtRp2299
(dp2300
g74
(dp2301
sg83
g2259
sg76
(lp2302
g69
(g90
g71
NtRp2303
(dp2304
g74
(dp2305
sg83
g2299
sg76
(lp2306
g69
(g70
g71
NtRp2307
(dp2308
g74
(dp2309
g82
I3
ssg83
g2303
sg76
(lp2310
S'datetime.datetime(2012, 12, 17, 15, 3, 30)'
p2311
asbasbasbag69
(g85
g71
NtRp2312
(dp2313
g74
(dp2314
sg83
g2259
sg76
(lp2315
g69
(g90
g71
NtRp2316
(dp2317
g74
(dp2318
sg83
g2312
sg76
(lp2319
g69
(g70
g71
NtRp2320
(dp2321
g74
(dp2322
g82
I3
ssg83
g2316
sg76
(lp2323
g1650
asbasbasbasbasbasbasbasbasbasbasbag69
(g85
g71
NtRp2324
(dp2325
g74
(dp2326
sg83
g79
sg76
(lp2327
g69
(g90
g71
NtRp2328
(dp2329
g74
(dp2330
g94
g95
ssg83
g2324
sg76
(lp2331
S'is_https'
p2332
asbag69
(g90
g71
NtRp2333
(dp2334
g74
(dp2335
g101
g102
ssg83
g2324
sg76
(lp2336
S':'
asbag69
(g90
g71
NtRp2337
(dp2338
g74
(dp2339
sg83
g2324
sg76
(lp2340
g69
(g70
g71
NtRp2341
(dp2342
g74
(dp2343
g82
I5
ssg83
g2337
sg76
(lp2344
g112
asbasbasbag69
(g85
g71
NtRp2345
(dp2346
g74
(dp2347
sg83
g79
sg76
(lp2348
g69
(g90
g71
NtRp2349
(dp2350
g74
(dp2351
g94
g95
ssg83
g2345
sg76
(lp2352
S'is_local'
p2353
asbag69
(g90
g71
NtRp2354
(dp2355
g74
(dp2356
g101
g102
ssg83
g2345
sg76
(lp2357
S':'
asbag69
(g90
g71
NtRp2358
(dp2359
g74
(dp2360
sg83
g2345
sg76
(lp2361
g69
(g70
g71
NtRp2362
(dp2363
g74
(dp2364
g82
I5
ssg83
g2358
sg76
(lp2365
g1759
asbasbasbag69
(g85
g71
NtRp2366
(dp2367
g74
(dp2368
sg83
g79
sg76
(lp2369
g69
(g90
g71
NtRp2370
(dp2371
g74
(dp2372
g94
g95
ssg83
g2366
sg76
(lp2373
S'is_restful'
p2374
asbag69
(g90
g71
NtRp2375
(dp2376
g74
(dp2377
g101
g102
ssg83
g2366
sg76
(lp2378
S':'
asbag69
(g90
g71
NtRp2379
(dp2380
g74
(dp2381
sg83
g2366
sg76
(lp2382
g69
(g70
g71
NtRp2383
(dp2384
g74
(dp2385
g82
I5
ssg83
g2379
sg76
(lp2386
g112
asbasbasbag69
(g85
g71
NtRp2387
(dp2388
g74
(dp2389
sg83
g79
sg76
(lp2390
g69
(g90
g71
NtRp2391
(dp2392
g74
(dp2393
g94
g95
ssg83
g2387
sg76
(lp2394
S'now'
p2395
asbag69
(g90
g71
NtRp2396
(dp2397
g74
(dp2398
g101
g102
ssg83
g2387
sg76
(lp2399
S':'
asbag69
(g90
g71
NtRp2400
(dp2401
g74
(dp2402
sg83
g2387
sg76
(lp2403
g69
(g70
g71
NtRp2404
(dp2405
g74
(dp2406
g82
I5
ssg83
g2400
sg76
(lp2407
S'datetime.datetime(2013, 9, 3, 8, 22, 6, 117000)'
p2408
asbasbasbag69
(g85
g71
NtRp2409
(dp2410
g74
(dp2411
sg83
g79
sg76
(lp2412
g69
(g90
g71
NtRp2413
(dp2414
g74
(dp2415
g94
g95
ssg83
g2409
sg76
(lp2416
S'post_vars'
p2417
asbag69
(g90
g71
NtRp2418
(dp2419
g74
(dp2420
g101
g102
ssg83
g2409
sg76
(lp2421
S':'
asbag69
(g90
g71
NtRp2422
(dp2423
g74
(dp2424
sg83
g2409
sg76
(lp2425
g69
(g70
g71
NtRp2426
(dp2427
g74
(dp2428
g82
I5
ssg83
g2422
sg76
(lp2429
g69
(g78
g71
NtRp2430
(dp2431
g74
(dp2432
g82
I4
ssg83
Nsg76
(lp2433
sbasbasbasbag69
(g85
g71
NtRp2434
(dp2435
g74
(dp2436
sg83
g79
sg76
(lp2437
g69
(g90
g71
NtRp2438
(dp2439
g74
(dp2440
g94
g95
ssg83
g2434
sg76
(lp2441
S'raw_args'
p2442
asbag69
(g90
g71
NtRp2443
(dp2444
g74
(dp2445
g101
g102
ssg83
g2434
sg76
(lp2446
S':'
asbag69
(g90
g71
NtRp2447
(dp2448
g74
(dp2449
sg83
g2434
sg76
(lp2450
g69
(g70
g71
NtRp2451
(dp2452
g74
(dp2453
g82
I5
ssg83
g2447
sg76
(lp2454
S''
asbasbasbag69
(g85
g71
NtRp2455
(dp2456
g74
(dp2457
sg83
g79
sg76
(lp2458
g69
(g90
g71
NtRp2459
(dp2460
g74
(dp2461
g94
g95
ssg83
g2455
sg76
(lp2462
S'raw_extension'
p2463
asbag69
(g90
g71
NtRp2464
(dp2465
g74
(dp2466
g101
g102
ssg83
g2455
sg76
(lp2467
S':'
asbag69
(g90
g71
NtRp2468
(dp2469
g74
(dp2470
sg83
g2455
sg76
(lp2471
g69
(g70
g71
NtRp2472
(dp2473
g74
(dp2474
g82
I5
ssg83
g2468
sg76
(lp2475
S'None'
p2476
asbasbasbag69
(g85
g71
NtRp2477
(dp2478
g74
(dp2479
sg83
g79
sg76
(lp2480
g69
(g90
g71
NtRp2481
(dp2482
g74
(dp2483
g94
g95
ssg83
g2477
sg76
(lp2484
S'url'
p2485
asbag69
(g90
g71
NtRp2486
(dp2487
g74
(dp2488
g101
g102
ssg83
g2477
sg76
(lp2489
S':'
asbag69
(g90
g71
NtRp2490
(dp2491
g74
(dp2492
sg83
g2477
sg76
(lp2493
g69
(g70
g71
NtRp2494
(dp2495
g74
(dp2496
g82
I5
ssg83
g2490
sg76
(lp2497
g1326
asbasbasbag69
(g85
g71
NtRp2498
(dp2499
g74
(dp2500
sg83
g79
sg76
(lp2501
g69
(g90
g71
NtRp2502
(dp2503
g74
(dp2504
g94
g95
ssg83
g2498
sg76
(lp2505
S'utcnow'
p2506
asbag69
(g90
g71
NtRp2507
(dp2508
g74
(dp2509
g101
g102
ssg83
g2498
sg76
(lp2510
S':'
asbag69
(g90
g71
NtRp2511
(dp2512
g74
(dp2513
sg83
g2498
sg76
(lp2514
g69
(g70
g71
NtRp2515
(dp2516
g74
(dp2517
g82
I5
ssg83
g2511
sg76
(lp2518
S'datetime.datetime(2013, 9, 3, 0, 22, 6, 117000)'
p2519
asbasbasbag69
(g85
g71
NtRp2520
(dp2521
g74
(dp2522
sg83
g79
sg76
(lp2523
g69
(g90
g71
NtRp2524
(dp2525
g74
(dp2526
g94
g95
ssg83
g2520
sg76
(lp2527
S'uuid'
p2528
asbag69
(g90
g71
NtRp2529
(dp2530
g74
(dp2531
g101
g102
ssg83
g2520
sg76
(lp2532
S':'
asbag69
(g90
g71
NtRp2533
(dp2534
g74
(dp2535
sg83
g2520
sg76
(lp2536
g69
(g70
g71
NtRp2537
(dp2538
g74
(dp2539
g82
I5
ssg83
g2533
sg76
(lp2540
S'hw4/127.0.0.1.2013-09-03.08-22-06.bc941d4e-24c6-4043-ad9c-fc4e779661c2'
p2541
asbasbasbag69
(g85
g71
NtRp2542
(dp2543
g74
(dp2544
sg83
g79
sg76
(lp2545
g69
(g90
g71
NtRp2546
(dp2547
g74
(dp2548
g94
g95
ssg83
g2542
sg76
(lp2549
S'vars'
p2550
asbag69
(g90
g71
NtRp2551
(dp2552
g74
(dp2553
g101
g102
ssg83
g2542
sg76
(lp2554
S':'
asbag69
(g90
g71
NtRp2555
(dp2556
g74
(dp2557
sg83
g2542
sg76
(lp2558
g69
(g70
g71
NtRp2559
(dp2560
g74
(dp2561
g82
I5
ssg83
g2555
sg76
(lp2562
g69
(g78
g71
NtRp2563
(dp2564
g74
(dp2565
g82
I4
ssg83
Nsg76
(lp2566
sbasbasbasbag69
(g85
g71
NtRp2567
(dp2568
g74
(dp2569
sg83
g79
sg76
(lp2570
g69
(g90
g71
NtRp2571
(dp2572
g74
(dp2573
g94
g95
ssg83
g2567
sg76
(lp2574
S'wsgi'
p2575
asbag69
(g90
g71
NtRp2576
(dp2577
g74
(dp2578
g101
g102
ssg83
g2567
sg76
(lp2579
S':'
asbag69
(g90
g71
NtRp2580
(dp2581
g74
(dp2582
sg83
g2567
sg76
(lp2583
g69
(g70
g71
NtRp2584
(dp2585
g74
(dp2586
g82
I5
ssg83
g2580
sg76
(lp2587
g69
(g78
g71
NtRp2588
(dp2589
g74
(dp2590
g82
I4
ssg83
Nsg76
(lp2591
g69
(g85
g71
NtRp2592
(dp2593
g74
(dp2594
sg83
g2588
sg76
(lp2595
g69
(g90
g71
NtRp2596
(dp2597
g74
(dp2598
g94
g95
ssg83
g2592
sg76
(lp2599
S'environ'
p2600
asbag69
(g90
g71
NtRp2601
(dp2602
g74
(dp2603
g101
g102
ssg83
g2592
sg76
(lp2604
S':'
asbag69
(g90
g71
NtRp2605
(dp2606
g74
(dp2607
sg83
g2592
sg76
(lp2608
g69
(g70
g71
NtRp2609
(dp2610
g74
(dp2611
g82
I4
ssg83
g2605
sg76
(lp2612
g69
(g78
g71
NtRp2613
(dp2614
g74
(dp2615
g82
I3
ssg83
Nsg76
(lp2616
g69
(g85
g71
NtRp2617
(dp2618
g74
(dp2619
sg83
g2613
sg76
(lp2620
g69
(g90
g71
NtRp2621
(dp2622
g74
(dp2623
g94
g95
ssg83
g2617
sg76
(lp2624
S'HTTP_ACCEPT'
p2625
asbag69
(g90
g71
NtRp2626
(dp2627
g74
(dp2628
g101
g102
ssg83
g2617
sg76
(lp2629
S':'
asbag69
(g90
g71
NtRp2630
(dp2631
g74
(dp2632
sg83
g2617
sg76
(lp2633
g69
(g70
g71
NtRp2634
(dp2635
g74
(dp2636
g82
I3
ssg83
g2630
sg76
(lp2637
g1040
asbasbasbag69
(g85
g71
NtRp2638
(dp2639
g74
(dp2640
sg83
g2613
sg76
(lp2641
g69
(g90
g71
NtRp2642
(dp2643
g74
(dp2644
g94
g95
ssg83
g2638
sg76
(lp2645
S'HTTP_ACCEPT_ENCODING'
p2646
asbag69
(g90
g71
NtRp2647
(dp2648
g74
(dp2649
g101
g102
ssg83
g2638
sg76
(lp2650
S':'
asbag69
(g90
g71
NtRp2651
(dp2652
g74
(dp2653
sg83
g2638
sg76
(lp2654
g69
(g70
g71
NtRp2655
(dp2656
g74
(dp2657
g82
I3
ssg83
g2651
sg76
(lp2658
g1062
asbasbasbag69
(g85
g71
NtRp2659
(dp2660
g74
(dp2661
sg83
g2613
sg76
(lp2662
g69
(g90
g71
NtRp2663
(dp2664
g74
(dp2665
g94
g95
ssg83
g2659
sg76
(lp2666
S'HTTP_ACCEPT_LANGUAGE'
p2667
asbag69
(g90
g71
NtRp2668
(dp2669
g74
(dp2670
g101
g102
ssg83
g2659
sg76
(lp2671
S':'
asbag69
(g90
g71
NtRp2672
(dp2673
g74
(dp2674
sg83
g2659
sg76
(lp2675
g69
(g70
g71
NtRp2676
(dp2677
g74
(dp2678
g82
I3
ssg83
g2672
sg76
(lp2679
g1084
asbasbasbag69
(g85
g71
NtRp2680
(dp2681
g74
(dp2682
sg83
g2613
sg76
(lp2683
g69
(g90
g71
NtRp2684
(dp2685
g74
(dp2686
g94
g95
ssg83
g2680
sg76
(lp2687
S'HTTP_CONNECTION'
p2688
asbag69
(g90
g71
NtRp2689
(dp2690
g74
(dp2691
g101
g102
ssg83
g2680
sg76
(lp2692
S':'
asbag69
(g90
g71
NtRp2693
(dp2694
g74
(dp2695
sg83
g2680
sg76
(lp2696
g69
(g70
g71
NtRp2697
(dp2698
g74
(dp2699
g82
I3
ssg83
g2693
sg76
(lp2700
g1106
asbasbasbag69
(g85
g71
NtRp2701
(dp2702
g74
(dp2703
sg83
g2613
sg76
(lp2704
g69
(g90
g71
NtRp2705
(dp2706
g74
(dp2707
g94
g95
ssg83
g2701
sg76
(lp2708
S'HTTP_COOKIE'
p2709
asbag69
(g90
g71
NtRp2710
(dp2711
g74
(dp2712
g101
g102
ssg83
g2701
sg76
(lp2713
S':'
asbag69
(g90
g71
NtRp2714
(dp2715
g74
(dp2716
sg83
g2701
sg76
(lp2717
g69
(g70
g71
NtRp2718
(dp2719
g74
(dp2720
g82
I3
ssg83
g2714
sg76
(lp2721
g1128
asbasbasbag69
(g85
g71
NtRp2722
(dp2723
g74
(dp2724
sg83
g2613
sg76
(lp2725
g69
(g90
g71
NtRp2726
(dp2727
g74
(dp2728
g94
g95
ssg83
g2722
sg76
(lp2729
S'HTTP_HOST'
p2730
asbag69
(g90
g71
NtRp2731
(dp2732
g74
(dp2733
g101
g102
ssg83
g2722
sg76
(lp2734
S':'
asbag69
(g90
g71
NtRp2735
(dp2736
g74
(dp2737
sg83
g2722
sg76
(lp2738
g69
(g70
g71
NtRp2739
(dp2740
g74
(dp2741
g82
I3
ssg83
g2735
sg76
(lp2742
g1150
asbasbasbag69
(g85
g71
NtRp2743
(dp2744
g74
(dp2745
sg83
g2613
sg76
(lp2746
g69
(g90
g71
NtRp2747
(dp2748
g74
(dp2749
g94
g95
ssg83
g2743
sg76
(lp2750
S'HTTP_USER_AGENT'
p2751
asbag69
(g90
g71
NtRp2752
(dp2753
g74
(dp2754
g101
g102
ssg83
g2743
sg76
(lp2755
S':'
asbag69
(g90
g71
NtRp2756
(dp2757
g74
(dp2758
sg83
g2743
sg76
(lp2759
g69
(g70
g71
NtRp2760
(dp2761
g74
(dp2762
g82
I3
ssg83
g2756
sg76
(lp2763
g1172
asbasbasbag69
(g85
g71
NtRp2764
(dp2765
g74
(dp2766
sg83
g2613
sg76
(lp2767
g69
(g90
g71
NtRp2768
(dp2769
g74
(dp2770
g94
g95
ssg83
g2764
sg76
(lp2771
S'PATH_INFO'
p2772
asbag69
(g90
g71
NtRp2773
(dp2774
g74
(dp2775
g101
g102
ssg83
g2764
sg76
(lp2776
S':'
asbag69
(g90
g71
NtRp2777
(dp2778
g74
(dp2779
sg83
g2764
sg76
(lp2780
g69
(g70
g71
NtRp2781
(dp2782
g74
(dp2783
g82
I3
ssg83
g2777
sg76
(lp2784
g1326
asbasbasbag69
(g85
g71
NtRp2785
(dp2786
g74
(dp2787
sg83
g2613
sg76
(lp2788
g69
(g90
g71
NtRp2789
(dp2790
g74
(dp2791
g94
g95
ssg83
g2785
sg76
(lp2792
S'QUERY_STRING'
p2793
asbag69
(g90
g71
NtRp2794
(dp2795
g74
(dp2796
g101
g102
ssg83
g2785
sg76
(lp2797
S':'
asbag69
(g90
g71
NtRp2798
(dp2799
g74
(dp2800
sg83
g2785
sg76
(lp2801
g69
(g70
g71
NtRp2802
(dp2803
g74
(dp2804
g82
I3
ssg83
g2798
sg76
(lp2805
S''
asbasbasbag69
(g85
g71
NtRp2806
(dp2807
g74
(dp2808
sg83
g2613
sg76
(lp2809
g69
(g90
g71
NtRp2810
(dp2811
g74
(dp2812
g94
g95
ssg83
g2806
sg76
(lp2813
S'REMOTE_ADDR'
p2814
asbag69
(g90
g71
NtRp2815
(dp2816
g74
(dp2817
g101
g102
ssg83
g2806
sg76
(lp2818
S':'
asbag69
(g90
g71
NtRp2819
(dp2820
g74
(dp2821
sg83
g2806
sg76
(lp2822
g69
(g70
g71
NtRp2823
(dp2824
g74
(dp2825
g82
I3
ssg83
g2819
sg76
(lp2826
g224
asbasbasbag69
(g85
g71
NtRp2827
(dp2828
g74
(dp2829
sg83
g2613
sg76
(lp2830
g69
(g90
g71
NtRp2831
(dp2832
g74
(dp2833
g94
g95
ssg83
g2827
sg76
(lp2834
S'REMOTE_PORT'
p2835
asbag69
(g90
g71
NtRp2836
(dp2837
g74
(dp2838
g101
g102
ssg83
g2827
sg76
(lp2839
S':'
asbag69
(g90
g71
NtRp2840
(dp2841
g74
(dp2842
sg83
g2827
sg76
(lp2843
g69
(g70
g71
NtRp2844
(dp2845
g74
(dp2846
g82
I3
ssg83
g2840
sg76
(lp2847
g1390
asbasbasbag69
(g85
g71
NtRp2848
(dp2849
g74
(dp2850
sg83
g2613
sg76
(lp2851
g69
(g90
g71
NtRp2852
(dp2853
g74
(dp2854
g94
g95
ssg83
g2848
sg76
(lp2855
S'REQUEST_METHOD'
p2856
asbag69
(g90
g71
NtRp2857
(dp2858
g74
(dp2859
g101
g102
ssg83
g2848
sg76
(lp2860
S':'
asbag69
(g90
g71
NtRp2861
(dp2862
g74
(dp2863
sg83
g2848
sg76
(lp2864
g69
(g70
g71
NtRp2865
(dp2866
g74
(dp2867
g82
I3
ssg83
g2861
sg76
(lp2868
g1412
asbasbasbag69
(g85
g71
NtRp2869
(dp2870
g74
(dp2871
sg83
g2613
sg76
(lp2872
g69
(g90
g71
NtRp2873
(dp2874
g74
(dp2875
g94
g95
ssg83
g2869
sg76
(lp2876
S'REQUEST_URI'
p2877
asbag69
(g90
g71
NtRp2878
(dp2879
g74
(dp2880
g101
g102
ssg83
g2869
sg76
(lp2881
S':'
asbag69
(g90
g71
NtRp2882
(dp2883
g74
(dp2884
sg83
g2869
sg76
(lp2885
g69
(g70
g71
NtRp2886
(dp2887
g74
(dp2888
g82
I3
ssg83
g2882
sg76
(lp2889
g1326
asbasbasbag69
(g85
g71
NtRp2890
(dp2891
g74
(dp2892
sg83
g2613
sg76
(lp2893
g69
(g90
g71
NtRp2894
(dp2895
g74
(dp2896
g94
g95
ssg83
g2890
sg76
(lp2897
S'SCRIPT_NAME'
p2898
asbag69
(g90
g71
NtRp2899
(dp2900
g74
(dp2901
g101
g102
ssg83
g2890
sg76
(lp2902
S':'
asbag69
(g90
g71
NtRp2903
(dp2904
g74
(dp2905
sg83
g2890
sg76
(lp2906
g69
(g70
g71
NtRp2907
(dp2908
g74
(dp2909
g82
I3
ssg83
g2903
sg76
(lp2910
S''
asbasbasbag69
(g85
g71
NtRp2911
(dp2912
g74
(dp2913
sg83
g2613
sg76
(lp2914
g69
(g90
g71
NtRp2915
(dp2916
g74
(dp2917
g94
g95
ssg83
g2911
sg76
(lp2918
S'SERVER_NAME'
p2919
asbag69
(g90
g71
NtRp2920
(dp2921
g74
(dp2922
g101
g102
ssg83
g2911
sg76
(lp2923
S':'
asbag69
(g90
g71
NtRp2924
(dp2925
g74
(dp2926
sg83
g2911
sg76
(lp2927
g69
(g70
g71
NtRp2928
(dp2929
g74
(dp2930
g82
I3
ssg83
g2924
sg76
(lp2931
g1476
asbasbasbag69
(g85
g71
NtRp2932
(dp2933
g74
(dp2934
sg83
g2613
sg76
(lp2935
g69
(g90
g71
NtRp2936
(dp2937
g74
(dp2938
g94
g95
ssg83
g2932
sg76
(lp2939
S'SERVER_PORT'
p2940
asbag69
(g90
g71
NtRp2941
(dp2942
g74
(dp2943
g101
g102
ssg83
g2932
sg76
(lp2944
S':'
asbag69
(g90
g71
NtRp2945
(dp2946
g74
(dp2947
sg83
g2932
sg76
(lp2948
g69
(g70
g71
NtRp2949
(dp2950
g74
(dp2951
g82
I3
ssg83
g2945
sg76
(lp2952
g1498
asbasbasbag69
(g85
g71
NtRp2953
(dp2954
g74
(dp2955
sg83
g2613
sg76
(lp2956
g69
(g90
g71
NtRp2957
(dp2958
g74
(dp2959
g94
g95
ssg83
g2953
sg76
(lp2960
S'SERVER_PROTOCOL'
p2961
asbag69
(g90
g71
NtRp2962
(dp2963
g74
(dp2964
g101
g102
ssg83
g2953
sg76
(lp2965
S':'
asbag69
(g90
g71
NtRp2966
(dp2967
g74
(dp2968
sg83
g2953
sg76
(lp2969
g69
(g70
g71
NtRp2970
(dp2971
g74
(dp2972
g82
I3
ssg83
g2966
sg76
(lp2973
g1520
asbasbasbag69
(g85
g71
NtRp2974
(dp2975
g74
(dp2976
sg83
g2613
sg76
(lp2977
g69
(g90
g71
NtRp2978
(dp2979
g74
(dp2980
g94
g95
ssg83
g2974
sg76
(lp2981
S'SERVER_SOFTWARE'
p2982
asbag69
(g90
g71
NtRp2983
(dp2984
g74
(dp2985
g101
g102
ssg83
g2974
sg76
(lp2986
S':'
asbag69
(g90
g71
NtRp2987
(dp2988
g74
(dp2989
sg83
g2974
sg76
(lp2990
g69
(g70
g71
NtRp2991
(dp2992
g74
(dp2993
g82
I3
ssg83
g2987
sg76
(lp2994
g1542
asbasbasbag69
(g85
g71
NtRp2995
(dp2996
g74
(dp2997
sg83
g2613
sg76
(lp2998
g69
(g90
g71
NtRp2999
(dp3000
g74
(dp3001
g94
g95
ssg83
g2995
sg76
(lp3002
S'wsgi.errors'
p3003
asbag69
(g90
g71
NtRp3004
(dp3005
g74
(dp3006
g101
g102
ssg83
g2995
sg76
(lp3007
S':'
asbag69
(g90
g71
NtRp3008
(dp3009
g74
(dp3010
sg83
g2995
sg76
(lp3011
g69
(g70
g71
NtRp3012
(dp3013
g74
(dp3014
g82
I3
ssg83
g3008
sg76
(lp3015
S"<open file '<stderr>', mode 'w' at 0x00AB50D0>"
p3016
asbasbasbag69
(g85
g71
NtRp3017
(dp3018
g74
(dp3019
sg83
g2613
sg76
(lp3020
g69
(g90
g71
NtRp3021
(dp3022
g74
(dp3023
g94
g95
ssg83
g3017
sg76
(lp3024
S'wsgi.file_wrapper'
p3025
asbag69
(g90
g71
NtRp3026
(dp3027
g74
(dp3028
g101
g102
ssg83
g3017
sg76
(lp3029
S':'
asbag69
(g90
g71
NtRp3030
(dp3031
g74
(dp3032
sg83
g3017
sg76
(lp3033
g69
(g70
g71
NtRp3034
(dp3035
g74
(dp3036
g82
I3
ssg83
g3030
sg76
(lp3037
S'<class wsgiref.util.FileWrapper at 0x014D9618>'
p3038
asbasbasbag69
(g85
g71
NtRp3039
(dp3040
g74
(dp3041
sg83
g2613
sg76
(lp3042
g69
(g90
g71
NtRp3043
(dp3044
g74
(dp3045
g94
g95
ssg83
g3039
sg76
(lp3046
S'wsgi.input'
p3047
asbag69
(g90
g71
NtRp3048
(dp3049
g74
(dp3050
g101
g102
ssg83
g3039
sg76
(lp3051
S':'
asbag69
(g90
g71
NtRp3052
(dp3053
g74
(dp3054
sg83
g3039
sg76
(lp3055
g69
(g70
g71
NtRp3056
(dp3057
g74
(dp3058
g82
I3
ssg83
g3052
sg76
(lp3059
S'<cStringIO.StringO object at 0x04B81A60>'
p3060
asbasbasbag69
(g85
g71
NtRp3061
(dp3062
g74
(dp3063
sg83
g2613
sg76
(lp3064
g69
(g90
g71
NtRp3065
(dp3066
g74
(dp3067
g94
g95
ssg83
g3061
sg76
(lp3068
S'wsgi.multiprocess'
p3069
asbag69
(g90
g71
NtRp3070
(dp3071
g74
(dp3072
g101
g102
ssg83
g3061
sg76
(lp3073
S':'
asbag69
(g90
g71
NtRp3074
(dp3075
g74
(dp3076
sg83
g3061
sg76
(lp3077
g69
(g70
g71
NtRp3078
(dp3079
g74
(dp3080
g82
I3
ssg83
g3074
sg76
(lp3081
g112
asbasbasbag69
(g85
g71
NtRp3082
(dp3083
g74
(dp3084
sg83
g2613
sg76
(lp3085
g69
(g90
g71
NtRp3086
(dp3087
g74
(dp3088
g94
g95
ssg83
g3082
sg76
(lp3089
S'wsgi.multithread'
p3090
asbag69
(g90
g71
NtRp3091
(dp3092
g74
(dp3093
g101
g102
ssg83
g3082
sg76
(lp3094
S':'
asbag69
(g90
g71
NtRp3095
(dp3096
g74
(dp3097
sg83
g3082
sg76
(lp3098
g69
(g70
g71
NtRp3099
(dp3100
g74
(dp3101
g82
I3
ssg83
g3095
sg76
(lp3102
g1759
asbasbasbag69
(g85
g71
NtRp3103
(dp3104
g74
(dp3105
sg83
g2613
sg76
(lp3106
g69
(g90
g71
NtRp3107
(dp3108
g74
(dp3109
g94
g95
ssg83
g3103
sg76
(lp3110
S'wsgi.run_once'
p3111
asbag69
(g90
g71
NtRp3112
(dp3113
g74
(dp3114
g101
g102
ssg83
g3103
sg76
(lp3115
S':'
asbag69
(g90
g71
NtRp3116
(dp3117
g74
(dp3118
sg83
g3103
sg76
(lp3119
g69
(g70
g71
NtRp3120
(dp3121
g74
(dp3122
g82
I3
ssg83
g3116
sg76
(lp3123
g112
asbasbasbag69
(g85
g71
NtRp3124
(dp3125
g74
(dp3126
sg83
g2613
sg76
(lp3127
g69
(g90
g71
NtRp3128
(dp3129
g74
(dp3130
g94
g95
ssg83
g3124
sg76
(lp3131
S'wsgi.url_scheme'
p3132
asbag69
(g90
g71
NtRp3133
(dp3134
g74
(dp3135
g101
g102
ssg83
g3124
sg76
(lp3136
S':'
asbag69
(g90
g71
NtRp3137
(dp3138
g74
(dp3139
sg83
g3124
sg76
(lp3140
g69
(g70
g71
NtRp3141
(dp3142
g74
(dp3143
g82
I3
ssg83
g3137
sg76
(lp3144
g1802
asbasbasbag69
(g85
g71
NtRp3145
(dp3146
g74
(dp3147
sg83
g2613
sg76
(lp3148
g69
(g90
g71
NtRp3149
(dp3150
g74
(dp3151
g94
g95
ssg83
g3145
sg76
(lp3152
S'wsgi.version'
p3153
asbag69
(g90
g71
NtRp3154
(dp3155
g74
(dp3156
g101
g102
ssg83
g3145
sg76
(lp3157
S':'
asbag69
(g90
g71
NtRp3158
(dp3159
g74
(dp3160
sg83
g3145
sg76
(lp3161
g69
(g70
g71
NtRp3162
(dp3163
g74
(dp3164
g82
I3
ssg83
g3158
sg76
(lp3165
S'1'
asbasbasbasbasbasbasbasbasbasbasbasbasbsS'frames'
p3166
(lp3167
(dp3168
S'file'
p3169
S'D:\\My Documents\\Documents\\Aptana Studio 3 Workspace\\hw2\\gluon\\restricted.py'
p3170
sS'dump'
p3171
(dp3172
S'environment'
p3173
S"{'A': <class 'gluon.html.A'>, 'Auth': <class 'gluon.tools.Auth'>, 'B': <class 'gluon.html.B'>, 'BEAUTIFY': <class 'gluon.html.BEAUTIFY'>, 'BODY': <class 'gluon.html.BODY'>, 'BR': <class 'gluon.html.BR'>, 'BUTTON': <class 'gluon.html.BUTTON'>, 'CAT': <class 'gluon.html.CAT'>, 'CENTER': <class 'gluon.html.CENTER'>, 'CLEANUP': <class 'gluon.validators.CLEANUP'>, ...}"
p3174
sS'ccode'
p3175
S'<code object <module> at 049FCCC8, file "D:\\My D...\\hw4\\controllers/plugin_elrte_widget.py", line 2>'
p3176
ssS'lnum'
p3177
I212
sS'lines'
p3178
(dp3179
I207
S'    try:'
p3180
sI208
S'        if isinstance(code, types.CodeType):'
p3181
sI209
S'            ccode = code'
p3182
sI210
S'        else:'
p3183
sI211
S'            ccode = compile2(code, layer)'
p3184
sI212
S'        exec ccode in environment'
p3185
sI213
S'    except HTTP:'
p3186
sI214
S'        raise'
p3187
sI215
S'    except RestrictedError:'
p3188
sI216
S'        # do not encapsulate (obfuscate) the original RestrictedError'
p3189
ssS'call'
p3190
S"(code='# -*- coding: utf-8 -*-\\nfrom plugin_elrte_widget...disk_db)\\n\\nresponse._vars=response._caller(index)\\n', environment={'A': <class 'gluon.html.A'>, 'Auth': <class 'gluon.tools.Auth'>, 'B': <class 'gluon.html.B'>, 'BEAUTIFY': <class 'gluon.html.BEAUTIFY'>, 'BODY': <class 'gluon.html.BODY'>, 'BR': <class 'gluon.html.BR'>, 'BUTTON': <class 'gluon.html.BUTTON'>, 'CAT': <class 'gluon.html.CAT'>, 'CENTER': <class 'gluon.html.CENTER'>, 'CLEANUP': <class 'gluon.validators.CLEANUP'>, ...}, layer=r'D:\\My Documents\\Documents\\Aptana Studio 3 Worksp...plications\\hw4\\controllers/plugin_elrte_widget.py')"
p3191
sS'func'
p3192
S'restricted'
p3193
sa(dp3194
g3169
S'D:\\My Documents\\Documents\\Aptana Studio 3 Workspace\\hw2\\applications\\hw4\\controllers\\plugin_elrte_widget.py'
p3195
sg3171
(dp3196
S'comment'
p3197
S'undefined'
p3198
sS'Field'
p3199
S"<class 'gluon.dal.Field'>"
p3200
sS'builtinTrue'
p3201
g1759
sS'autodelete'
p3202
g3198
ssg3177
I25
sg3178
(dp3203
I20
S'image_table.image.requires = [IS_UPLOADIFY_LENGTH(10240, 1), IS_UPLOADIFY_IMAGE()]'
p3204
sI21
S''
sI22
S'# define a file table using disk db'
p3205
sI23
S"file_table = disk_db.define_table('plugin_elrte_widget_file',"
p3206
sI24
S"    Field('name'),"
p3207
sI25
S"    Field('file', 'upload', autodelete=True, comment='<- upload a file(max file size=100k)'),"
p3208
sI26
S'    )'
p3209
sI27
S'file_table.file.widget = uploadify_widget'
p3210
sI28
S'file_table.file.requires = IS_UPLOADIFY_LENGTH(102400, 1)'
p3211
sI29
S''
ssg3190
S'()'
p3212
sg3192
S'<module>'
p3213
sa(dp3214
g3169
S'D:\\My Documents\\Documents\\Aptana Studio 3 Workspace\\hw2\\gluon\\dal.py'
p3215
sg3171
(dp3216
S'fields'
p3217
S'(<gluon.dal.Field object>, <gluon.dal.Field object>)'
p3218
sS'self'
p3219
S'<DAL uri="sqlite://storage.sqlite">'
p3220
sS'args'
p3221
g21
sS'tablename'
p3222
S"'plugin_elrte_widget_file'"
p3223
sS'table'
p3224
g3198
sS'self.lazy_define_table'
p3225
S'<bound method DAL.lazy_define_table of <DAL uri="sqlite://storage.sqlite">>'
p3226
ssg3177
I7186
sg3178
(dp3227
I7181
S'                    % (tablename,invalid_args))'
p3228
sI7182
S'        if self._lazy_tables and not tablename in self._LAZY_TABLES:'
p3229
sI7183
S'            self._LAZY_TABLES[tablename] = (tablename,fields,args)'
p3230
sI7184
S'            table = None'
p3231
sI7185
S'        else:'
p3232
sI7186
S'            table = self.lazy_define_table(tablename,*fields,**args)'
p3233
sI7187
S'        if not tablename in self.tables:'
p3234
sI7188
S'            self.tables.append(tablename)'
p3235
sI7189
S'        return table'
p3236
sI7190
S''
ssg3190
S'(self=<DAL uri="sqlite://storage.sqlite">, tablename=\'plugin_elrte_widget_file\', *fields=(<gluon.dal.Field object>, <gluon.dal.Field object>), **args={})'
p3237
sg3192
S'define_table'
p3238
sa(dp3239
g3169
S'D:\\My Documents\\Documents\\Aptana Studio 3 Workspace\\hw2\\gluon\\dal.py'
p3240
sg3171
(dp3241
S'fields'
p3242
S'(<gluon.dal.Field object>, <gluon.dal.Field object>)'
p3243
sS'self'
p3244
S'<DAL uri="sqlite://storage.sqlite">'
p3245
sS'args'
p3246
g21
sS'tablename'
p3247
S"'plugin_elrte_widget_file'"
p3248
sS'table_class'
p3249
S"<class 'gluon.dal.Table'>"
p3250
sS'table'
p3251
g3198
ssg3177
I7203
sg3178
(dp3252
I7200
S'            fields = list(fields) + list(common_fields)'
p3253
sI7201
S''
sI7202
S"        table_class = args_get('table_class',Table)"
p3254
sI7203
S'        table = table_class(self, tablename, *fields, **args)'
p3255
sI7204
S'        table._actual = True'
p3256
sI7205
S'        self[tablename] = table'
p3257
sI7206
S'        # must follow above line to handle self references'
p3258
sI7207
S'        table._create_references()'
p3259
sI7198
S'        common_fields = self._common_fields'
p3260
sI7199
S'        if common_fields:'
p3261
ssg3190
S'(self=<DAL uri="sqlite://storage.sqlite">, tablename=\'plugin_elrte_widget_file\', *fields=(<gluon.dal.Field object>, <gluon.dal.Field object>), **args={})'
p3262
sg3192
S'lazy_define_table'
p3263
sa(dp3264
g3169
S'D:\\My Documents\\Documents\\Aptana Studio 3 Workspace\\hw2\\gluon\\dal.py'
p3265
sg3171
(dp3266
S'field_name'
p3267
S"'file'"
p3268
sS'db.check_reserved_keyword'
p3269
S'<bound method DAL.check_reserved_keyword of <DAL uri="sqlite://storage.sqlite">>'
p3270
sS'db'
p3271
S'<DAL uri="sqlite://storage.sqlite">'
p3272
ssg3177
I7609
sg3178
(dp3273
I7604
S'        lower_fieldnames = set()'
p3274
sI7605
S"        reserved = dir(Table) + ['fields']"
p3275
sI7606
S'        for field in fields:'
p3276
sI7607
S'            field_name = field.name'
p3277
sI7608
S'            if db and db.check_reserved:'
p3278
sI7609
S'                db.check_reserved_keyword(field_name)'
p3279
sI7610
S'            elif field_name in reserved:'
p3280
sI7611
S'                raise SyntaxError("field name %s not allowed" % field_name)'
p3281
sI7612
S''
sI7613
S'            if field_name.lower() in lower_fieldnames:'
p3282
ssg3190
S'(self=<Table plugin_elrte_widget_file (id,name)>, db=<DAL uri="sqlite://storage.sqlite">, tablename=\'plugin_elrte_widget_file\', *fields=[<gluon.dal.Field object>, <gluon.dal.Field object>, <gluon.dal.Field object>], **args={})'
p3283
sg3192
g24
sa(dp3284
g3169
S'D:\\My Documents\\Documents\\Aptana Studio 3 Workspace\\hw2\\gluon\\dal.py'
p3285
sg3171
(dp3286
S'backend.upper'
p3287
S'<built-in method upper of str object>'
p3288
sS'name'
p3289
S"'file'"
p3290
sS'backend'
p3291
S"'all'"
p3292
ssg3177
I6930
sg3178
(dp3293
I6925
S"        ['all']"
p3294
sI6926
S'        """'
p3295
sI6927
S'        for backend in self.check_reserved:'
p3296
sI6928
S'            if name.upper() in self.RSK[backend]:'
p3297
sI6929
S'                raise SyntaxError('
p3298
sI6930
S'                    \'invalid table/column name "%s" is a "%s" reserved SQL keyword\' % (name, backend.upper()))'
p3299
sI6931
S''
sI6932
S'    def parse_as_rest(self,patterns,args,vars,queries=None,nested_select=True):'
p3300
sI6933
S'        """'
p3301
sI6934
S'        EXAMPLE:'
p3302
ssg3190
S'(self=<DAL uri="sqlite://storage.sqlite">, name=\'file\')'
p3303
sg3192
S'check_reserved_keyword'
p3304
sasS'pyver'
p3305
S'Python 2.7.3: C:\\Python27\\python.exe'
p3306
sS'session'
p3307
g69
(g70
g71
NtRp3308
(dp3309
g74
(dp3310
sg76
(lp3311
g69
(g78
g71
NtRp3312
(dp3313
g74
(dp3314
g82
I5
ssg83
Nsg76
(lp3315
sbasbsS'etype'
p3316
S"<type 'exceptions.SyntaxError'>"
p3317
sS'date'
p3318
S'Tue Sep 03 08:22:06 2013'
p3319
sS'response'
p3320
g69
(g70
g71
NtRp3321
(dp3322
g74
(dp3323
sg76
(lp3324
g69
(g78
g71
NtRp3325
(dp3326
g74
(dp3327
g82
I5
ssg83
Nsg76
(lp3328
g69
(g85
g71
NtRp3329
(dp3330
g74
(dp3331
sg83
g3325
sg76
(lp3332
g69
(g90
g71
NtRp3333
(dp3334
g74
(dp3335
g94
g95
ssg83
g3329
sg76
(lp3336
g167
asbag69
(g90
g71
NtRp3337
(dp3338
g74
(dp3339
g101
g102
ssg83
g3329
sg76
(lp3340
S':'
asbag69
(g90
g71
NtRp3341
(dp3342
g74
(dp3343
sg83
g3329
sg76
(lp3344
g69
(g70
g71
NtRp3345
(dp3346
g74
(dp3347
g82
I5
ssg83
g3341
sg76
(lp3348
S'<cStringIO.StringO object at 0x018859C0>'
p3349
asbasbasbag69
(g85
g71
NtRp3350
(dp3351
g74
(dp3352
sg83
g3325
sg76
(lp3353
g69
(g90
g71
NtRp3354
(dp3355
g74
(dp3356
g94
g95
ssg83
g3350
sg76
(lp3357
g255
asbag69
(g90
g71
NtRp3358
(dp3359
g74
(dp3360
g101
g102
ssg83
g3350
sg76
(lp3361
S':'
asbag69
(g90
g71
NtRp3362
(dp3363
g74
(dp3364
sg83
g3350
sg76
(lp3365
g69
(g70
g71
NtRp3366
(dp3367
g74
(dp3368
g82
I5
ssg83
g3362
sg76
(lp3369
g69
(g78
g71
NtRp3370
(dp3371
g74
(dp3372
g82
I4
ssg83
Nsg76
(lp3373
g69
(g85
g71
NtRp3374
(dp3375
g74
(dp3376
sg83
g3370
sg76
(lp3377
g69
(g90
g71
NtRp3378
(dp3379
g74
(dp3380
g94
g95
ssg83
g3374
sg76
(lp3381
S'session_id_hw4'
p3382
asbag69
(g90
g71
NtRp3383
(dp3384
g74
(dp3385
g101
g102
ssg83
g3374
sg76
(lp3386
S':'
asbag69
(g90
g71
NtRp3387
(dp3388
g74
(dp3389
sg83
g3374
sg76
(lp3390
g69
(g70
g71
NtRp3391
(dp3392
g74
(dp3393
g82
I4
ssg83
g3387
sg76
(lp3394
g487
ag69
(g78
g71
NtRp3395
(dp3396
g74
(dp3397
g82
I3
ssg83
Nsg76
(lp3398
g69
(g85
g71
NtRp3399
(dp3400
g74
(dp3401
sg83
g3395
sg76
(lp3402
g69
(g90
g71
NtRp3403
(dp3404
g74
(dp3405
g94
g95
ssg83
g3399
sg76
(lp3406
g306
asbag69
(g90
g71
NtRp3407
(dp3408
g74
(dp3409
g101
g102
ssg83
g3399
sg76
(lp3410
S':'
asbag69
(g90
g71
NtRp3411
(dp3412
g74
(dp3413
sg83
g3399
sg76
(lp3414
g69
(g70
g71
NtRp3415
(dp3416
g74
(dp3417
g82
I3
ssg83
g3411
sg76
(lp3418
S''
asbasbasbag69
(g85
g71
NtRp3419
(dp3420
g74
(dp3421
sg83
g3395
sg76
(lp3422
g69
(g90
g71
NtRp3423
(dp3424
g74
(dp3425
g94
g95
ssg83
g3419
sg76
(lp3426
g327
asbag69
(g90
g71
NtRp3427
(dp3428
g74
(dp3429
g101
g102
ssg83
g3419
sg76
(lp3430
S':'
asbag69
(g90
g71
NtRp3431
(dp3432
g74
(dp3433
sg83
g3419
sg76
(lp3434
g69
(g70
g71
NtRp3435
(dp3436
g74
(dp3437
g82
I3
ssg83
g3431
sg76
(lp3438
S''
asbasbasbag69
(g85
g71
NtRp3439
(dp3440
g74
(dp3441
sg83
g3395
sg76
(lp3442
g69
(g90
g71
NtRp3443
(dp3444
g74
(dp3445
g94
g95
ssg83
g3439
sg76
(lp3446
g348
asbag69
(g90
g71
NtRp3447
(dp3448
g74
(dp3449
g101
g102
ssg83
g3439
sg76
(lp3450
S':'
asbag69
(g90
g71
NtRp3451
(dp3452
g74
(dp3453
sg83
g3439
sg76
(lp3454
g69
(g70
g71
NtRp3455
(dp3456
g74
(dp3457
g82
I3
ssg83
g3451
sg76
(lp3458
S''
asbasbasbag69
(g85
g71
NtRp3459
(dp3460
g74
(dp3461
sg83
g3395
sg76
(lp3462
g69
(g90
g71
NtRp3463
(dp3464
g74
(dp3465
g94
g95
ssg83
g3459
sg76
(lp3466
g369
asbag69
(g90
g71
NtRp3467
(dp3468
g74
(dp3469
g101
g102
ssg83
g3459
sg76
(lp3470
S':'
asbag69
(g90
g71
NtRp3471
(dp3472
g74
(dp3473
sg83
g3459
sg76
(lp3474
g69
(g70
g71
NtRp3475
(dp3476
g74
(dp3477
g82
I3
ssg83
g3471
sg76
(lp3478
S''
asbasbasbag69
(g85
g71
NtRp3479
(dp3480
g74
(dp3481
sg83
g3395
sg76
(lp3482
g69
(g90
g71
NtRp3483
(dp3484
g74
(dp3485
g94
g95
ssg83
g3479
sg76
(lp3486
g390
asbag69
(g90
g71
NtRp3487
(dp3488
g74
(dp3489
g101
g102
ssg83
g3479
sg76
(lp3490
S':'
asbag69
(g90
g71
NtRp3491
(dp3492
g74
(dp3493
sg83
g3479
sg76
(lp3494
g69
(g70
g71
NtRp3495
(dp3496
g74
(dp3497
g82
I3
ssg83
g3491
sg76
(lp3498
S''
asbasbasbag69
(g85
g71
NtRp3499
(dp3500
g74
(dp3501
sg83
g3395
sg76
(lp3502
g69
(g90
g71
NtRp3503
(dp3504
g74
(dp3505
g94
g95
ssg83
g3499
sg76
(lp3506
g411
asbag69
(g90
g71
NtRp3507
(dp3508
g74
(dp3509
g101
g102
ssg83
g3499
sg76
(lp3510
S':'
asbag69
(g90
g71
NtRp3511
(dp3512
g74
(dp3513
sg83
g3499
sg76
(lp3514
g69
(g70
g71
NtRp3515
(dp3516
g74
(dp3517
g82
I3
ssg83
g3511
sg76
(lp3518
S'/'
asbasbasbag69
(g85
g71
NtRp3519
(dp3520
g74
(dp3521
sg83
g3395
sg76
(lp3522
g69
(g90
g71
NtRp3523
(dp3524
g74
(dp3525
g94
g95
ssg83
g3519
sg76
(lp3526
g432
asbag69
(g90
g71
NtRp3527
(dp3528
g74
(dp3529
g101
g102
ssg83
g3519
sg76
(lp3530
S':'
asbag69
(g90
g71
NtRp3531
(dp3532
g74
(dp3533
sg83
g3519
sg76
(lp3534
g69
(g70
g71
NtRp3535
(dp3536
g74
(dp3537
g82
I3
ssg83
g3531
sg76
(lp3538
S''
asbasbasbag69
(g85
g71
NtRp3539
(dp3540
g74
(dp3541
sg83
g3395
sg76
(lp3542
g69
(g90
g71
NtRp3543
(dp3544
g74
(dp3545
g94
g95
ssg83
g3539
sg76
(lp3546
g453
asbag69
(g90
g71
NtRp3547
(dp3548
g74
(dp3549
g101
g102
ssg83
g3539
sg76
(lp3550
S':'
asbag69
(g90
g71
NtRp3551
(dp3552
g74
(dp3553
sg83
g3539
sg76
(lp3554
g69
(g70
g71
NtRp3555
(dp3556
g74
(dp3557
g82
I3
ssg83
g3551
sg76
(lp3558
S''
asbasbasbasbasbasbasbasbasbasbasbag69
(g85
g71
NtRp3559
(dp3560
g74
(dp3561
sg83
g3325
sg76
(lp3562
g69
(g90
g71
NtRp3563
(dp3564
g74
(dp3565
g94
g95
ssg83
g3559
sg76
(lp3566
S'delimiters'
p3567
asbag69
(g90
g71
NtRp3568
(dp3569
g74
(dp3570
g101
g102
ssg83
g3559
sg76
(lp3571
S':'
asbag69
(g90
g71
NtRp3572
(dp3573
g74
(dp3574
sg83
g3559
sg76
(lp3575
g69
(g70
g71
NtRp3576
(dp3577
g74
(dp3578
g82
I5
ssg83
g3572
sg76
(lp3579
g69
(g78
g71
NtRp3580
(dp3581
g74
(dp3582
g82
I4
ssg83
Nsg76
(lp3583
g69
(g85
g71
NtRp3584
(dp3585
g74
(dp3586
sg83
g3580
sg76
(lp3587
g69
(g90
g71
NtRp3588
(dp3589
g74
(dp3590
sg83
g3584
sg76
(lp3591
g69
(g70
g71
NtRp3592
(dp3593
g74
(dp3594
g82
I4
ssg83
g3588
sg76
(lp3595
S'{{'
p3596
asbasbasbag69
(g85
g71
NtRp3597
(dp3598
g74
(dp3599
sg83
g3580
sg76
(lp3600
g69
(g90
g71
NtRp3601
(dp3602
g74
(dp3603
sg83
g3597
sg76
(lp3604
g69
(g70
g71
NtRp3605
(dp3606
g74
(dp3607
g82
I4
ssg83
g3601
sg76
(lp3608
S'}}'
p3609
asbasbasbasbasbasbasbag69
(g85
g71
NtRp3610
(dp3611
g74
(dp3612
sg83
g3325
sg76
(lp3613
g69
(g90
g71
NtRp3614
(dp3615
g74
(dp3616
g94
g95
ssg83
g3610
sg76
(lp3617
S'files'
p3618
asbag69
(g90
g71
NtRp3619
(dp3620
g74
(dp3621
g101
g102
ssg83
g3610
sg76
(lp3622
S':'
asbag69
(g90
g71
NtRp3623
(dp3624
g74
(dp3625
sg83
g3610
sg76
(lp3626
g69
(g70
g71
NtRp3627
(dp3628
g74
(dp3629
g82
I5
ssg83
g3623
sg76
(lp3630
g69
(g78
g71
NtRp3631
(dp3632
g74
(dp3633
g82
I4
ssg83
Nsg76
(lp3634
sbasbasbasbag69
(g85
g71
NtRp3635
(dp3636
g74
(dp3637
sg83
g3325
sg76
(lp3638
g69
(g90
g71
NtRp3639
(dp3640
g74
(dp3641
g94
g95
ssg83
g3635
sg76
(lp3642
S'flash'
p3643
asbag69
(g90
g71
NtRp3644
(dp3645
g74
(dp3646
g101
g102
ssg83
g3635
sg76
(lp3647
S':'
asbag69
(g90
g71
NtRp3648
(dp3649
g74
(dp3650
sg83
g3635
sg76
(lp3651
g69
(g70
g71
NtRp3652
(dp3653
g74
(dp3654
g82
I5
ssg83
g3648
sg76
(lp3655
S''
asbasbasbag69
(g85
g71
NtRp3656
(dp3657
g74
(dp3658
sg83
g3325
sg76
(lp3659
g69
(g90
g71
NtRp3660
(dp3661
g74
(dp3662
g94
g95
ssg83
g3656
sg76
(lp3663
S'generic_patterns'
p3664
asbag69
(g90
g71
NtRp3665
(dp3666
g74
(dp3667
g101
g102
ssg83
g3656
sg76
(lp3668
S':'
asbag69
(g90
g71
NtRp3669
(dp3670
g74
(dp3671
sg83
g3656
sg76
(lp3672
g69
(g70
g71
NtRp3673
(dp3674
g74
(dp3675
g82
I5
ssg83
g3669
sg76
(lp3676
g69
(g78
g71
NtRp3677
(dp3678
g74
(dp3679
g82
I4
ssg83
Nsg76
(lp3680
g69
(g85
g71
NtRp3681
(dp3682
g74
(dp3683
sg83
g3677
sg76
(lp3684
g69
(g90
g71
NtRp3685
(dp3686
g74
(dp3687
sg83
g3681
sg76
(lp3688
g69
(g70
g71
NtRp3689
(dp3690
g74
(dp3691
g82
I4
ssg83
g3685
sg76
(lp3692
S'*'
asbasbasbasbasbasbasbag69
(g85
g71
NtRp3693
(dp3694
g74
(dp3695
sg83
g3325
sg76
(lp3696
g69
(g90
g71
NtRp3697
(dp3698
g74
(dp3699
g94
g95
ssg83
g3693
sg76
(lp3700
S'google_analytics_id'
p3701
asbag69
(g90
g71
NtRp3702
(dp3703
g74
(dp3704
g101
g102
ssg83
g3693
sg76
(lp3705
S':'
asbag69
(g90
g71
NtRp3706
(dp3707
g74
(dp3708
sg83
g3693
sg76
(lp3709
g69
(g70
g71
NtRp3710
(dp3711
g74
(dp3712
g82
I5
ssg83
g3706
sg76
(lp3713
S'None'
p3714
asbasbasbag69
(g85
g71
NtRp3715
(dp3716
g74
(dp3717
sg83
g3325
sg76
(lp3718
g69
(g90
g71
NtRp3719
(dp3720
g74
(dp3721
g94
g95
ssg83
g3715
sg76
(lp3722
S'headers'
p3723
asbag69
(g90
g71
NtRp3724
(dp3725
g74
(dp3726
g101
g102
ssg83
g3715
sg76
(lp3727
S':'
asbag69
(g90
g71
NtRp3728
(dp3729
g74
(dp3730
sg83
g3715
sg76
(lp3731
g69
(g70
g71
NtRp3732
(dp3733
g74
(dp3734
g82
I5
ssg83
g3728
sg76
(lp3735
g69
(g78
g71
NtRp3736
(dp3737
g74
(dp3738
g82
I4
ssg83
Nsg76
(lp3739
g69
(g85
g71
NtRp3740
(dp3741
g74
(dp3742
sg83
g3736
sg76
(lp3743
g69
(g90
g71
NtRp3744
(dp3745
g74
(dp3746
g94
g95
ssg83
g3740
sg76
(lp3747
S'X-Powered-By'
p3748
asbag69
(g90
g71
NtRp3749
(dp3750
g74
(dp3751
g101
g102
ssg83
g3740
sg76
(lp3752
S':'
asbag69
(g90
g71
NtRp3753
(dp3754
g74
(dp3755
sg83
g3740
sg76
(lp3756
g69
(g70
g71
NtRp3757
(dp3758
g74
(dp3759
g82
I4
ssg83
g3753
sg76
(lp3760
S'web2py'
p3761
asbasbasbasbasbasbasbag69
(g85
g71
NtRp3762
(dp3763
g74
(dp3764
sg83
g3325
sg76
(lp3765
g69
(g90
g71
NtRp3766
(dp3767
g74
(dp3768
g94
g95
ssg83
g3762
sg76
(lp3769
S'logo'
p3770
asbag69
(g90
g71
NtRp3771
(dp3772
g74
(dp3773
g101
g102
ssg83
g3762
sg76
(lp3774
S':'
asbag69
(g90
g71
NtRp3775
(dp3776
g74
(dp3777
sg83
g3762
sg76
(lp3778
g69
(g70
g71
NtRp3779
(dp3780
g74
(dp3781
g82
I5
ssg83
g3775
sg76
(lp3782
g69
(cgluon.html
A
p3783
g71
NtRp3784
(dp3785
g74
(dp3786
S'_class'
p3787
S'brand'
p3788
sS'_href'
p3789
S'http://www.ningwai.net/'
p3790
ssg83
Nsg76
(lp3791
g69
(cgluon.html
B
p3792
g71
NtRp3793
(dp3794
g74
(dp3795
sg83
g3784
sg76
(lp3796
S'ningwai'
p3797
asbacgluon.html
XML_unpickle
p3798
(S's\r\x00\x00\x00&trade;&nbsp;'
tRp3799
asbasbasbasbag69
(g85
g71
NtRp3800
(dp3801
g74
(dp3802
sg83
g3325
sg76
(lp3803
g69
(g90
g71
NtRp3804
(dp3805
g74
(dp3806
g94
g95
ssg83
g3800
sg76
(lp3807
S'menu'
p3808
asbag69
(g90
g71
NtRp3809
(dp3810
g74
(dp3811
g101
g102
ssg83
g3800
sg76
(lp3812
S':'
asbag69
(g90
g71
NtRp3813
(dp3814
g74
(dp3815
sg83
g3800
sg76
(lp3816
g69
(g70
g71
NtRp3817
(dp3818
g74
(dp3819
g82
I5
ssg83
g3813
sg76
(lp3820
g69
(g78
g71
NtRp3821
(dp3822
g74
(dp3823
g82
I4
ssg83
Nsg76
(lp3824
g69
(g85
g71
NtRp3825
(dp3826
g74
(dp3827
sg83
g3821
sg76
(lp3828
g69
(g90
g71
NtRp3829
(dp3830
g74
(dp3831
sg83
g3825
sg76
(lp3832
g69
(g70
g71
NtRp3833
(dp3834
g74
(dp3835
g82
I4
ssg83
g3829
sg76
(lp3836
g69
(g78
g71
NtRp3837
(dp3838
g74
(dp3839
g82
I3
ssg83
Nsg76
(lp3840
g69
(g85
g71
NtRp3841
(dp3842
g74
(dp3843
sg83
g3837
sg76
(lp3844
g69
(g90
g71
NtRp3845
(dp3846
g74
(dp3847
sg83
g3841
sg76
(lp3848
g69
(g70
g71
NtRp3849
(dp3850
g74
(dp3851
g82
I3
ssg83
g3845
sg76
(lp3852
cgluon.languages
lazyT_unpickle
p3853
(S's\x04\x00\x00\x00Home'
tRp3854
asbasbasbag69
(g85
g71
NtRp3855
(dp3856
g74
(dp3857
sg83
g3837
sg76
(lp3858
g69
(g90
g71
NtRp3859
(dp3860
g74
(dp3861
sg83
g3855
sg76
(lp3862
g69
(g70
g71
NtRp3863
(dp3864
g74
(dp3865
g82
I3
ssg83
g3859
sg76
(lp3866
g112
asbasbasbag69
(g85
g71
NtRp3867
(dp3868
g74
(dp3869
sg83
g3837
sg76
(lp3870
g69
(g90
g71
NtRp3871
(dp3872
g74
(dp3873
sg83
g3867
sg76
(lp3874
g69
(g70
g71
NtRp3875
(dp3876
g74
(dp3877
g82
I3
ssg83
g3871
sg76
(lp3878
S'/hw4/default/index'
p3879
asbasbasbag69
(g85
g71
NtRp3880
(dp3881
g74
(dp3882
sg83
g3837
sg76
(lp3883
g69
(g90
g71
NtRp3884
(dp3885
g74
(dp3886
sg83
g3880
sg76
(lp3887
g69
(g70
g71
NtRp3888
(dp3889
g74
(dp3890
g82
I3
ssg83
g3884
sg76
(lp3891
g69
(g78
g71
NtRp3892
(dp3893
g74
(dp3894
g82
I2
ssg83
Nsg76
(lp3895
sbasbasbasbasbasbasbasbag69
(g85
g71
NtRp3896
(dp3897
g74
(dp3898
sg83
g3821
sg76
(lp3899
g69
(g90
g71
NtRp3900
(dp3901
g74
(dp3902
sg83
g3896
sg76
(lp3903
g69
(g70
g71
NtRp3904
(dp3905
g74
(dp3906
g82
I4
ssg83
g3900
sg76
(lp3907
g69
(g78
g71
NtRp3908
(dp3909
g74
(dp3910
g82
I3
ssg83
Nsg76
(lp3911
g69
(g85
g71
NtRp3912
(dp3913
g74
(dp3914
sg83
g3908
sg76
(lp3915
g69
(g90
g71
NtRp3916
(dp3917
g74
(dp3918
sg83
g3912
sg76
(lp3919
g69
(g70
g71
NtRp3920
(dp3921
g74
(dp3922
g82
I3
ssg83
g3916
sg76
(lp3923
S'\xe4\xbd\x9c\xe4\xb8\x9a\xe6\x8f\x90\xe4\xba\xa4\xe7\xb3\xbb\xe7\xbb\x9f'
p3924
asbasbasbag69
(g85
g71
NtRp3925
(dp3926
g74
(dp3927
sg83
g3908
sg76
(lp3928
g69
(g90
g71
NtRp3929
(dp3930
g74
(dp3931
sg83
g3925
sg76
(lp3932
g69
(g70
g71
NtRp3933
(dp3934
g74
(dp3935
g82
I3
ssg83
g3929
sg76
(lp3936
g112
asbasbasbag69
(g85
g71
NtRp3937
(dp3938
g74
(dp3939
sg83
g3908
sg76
(lp3940
g69
(g90
g71
NtRp3941
(dp3942
g74
(dp3943
sg83
g3937
sg76
(lp3944
g69
(g70
g71
NtRp3945
(dp3946
g74
(dp3947
g82
I3
ssg83
g3941
sg76
(lp3948
S'/hw4/default/course_list'
p3949
asbasbasbag69
(g85
g71
NtRp3950
(dp3951
g74
(dp3952
sg83
g3908
sg76
(lp3953
g69
(g90
g71
NtRp3954
(dp3955
g74
(dp3956
sg83
g3950
sg76
(lp3957
g69
(g70
g71
NtRp3958
(dp3959
g74
(dp3960
g82
I3
ssg83
g3954
sg76
(lp3961
g69
(g78
g71
NtRp3962
(dp3963
g74
(dp3964
g82
I2
ssg83
Nsg76
(lp3965
sbasbasbasbasbasbasbasbasbasbasbasbag69
(g85
g71
NtRp3966
(dp3967
g74
(dp3968
sg83
g3325
sg76
(lp3969
g69
(g90
g71
NtRp3970
(dp3971
g74
(dp3972
g94
g95
ssg83
g3966
sg76
(lp3973
S'meta'
p3974
asbag69
(g90
g71
NtRp3975
(dp3976
g74
(dp3977
g101
g102
ssg83
g3966
sg76
(lp3978
S':'
asbag69
(g90
g71
NtRp3979
(dp3980
g74
(dp3981
sg83
g3966
sg76
(lp3982
g69
(g70
g71
NtRp3983
(dp3984
g74
(dp3985
g82
I5
ssg83
g3979
sg76
(lp3986
g69
(g78
g71
NtRp3987
(dp3988
g74
(dp3989
g82
I4
ssg83
Nsg76
(lp3990
g69
(g85
g71
NtRp3991
(dp3992
g74
(dp3993
sg83
g3987
sg76
(lp3994
g69
(g90
g71
NtRp3995
(dp3996
g74
(dp3997
g94
g95
ssg83
g3991
sg76
(lp3998
S'author'
p3999
asbag69
(g90
g71
NtRp4000
(dp4001
g74
(dp4002
g101
g102
ssg83
g3991
sg76
(lp4003
S':'
asbag69
(g90
g71
NtRp4004
(dp4005
g74
(dp4006
sg83
g3991
sg76
(lp4007
g69
(g70
g71
NtRp4008
(dp4009
g74
(dp4010
g82
I4
ssg83
g4004
sg76
(lp4011
S''
asbasbasbag69
(g85
g71
NtRp4012
(dp4013
g74
(dp4014
sg83
g3987
sg76
(lp4015
g69
(g90
g71
NtRp4016
(dp4017
g74
(dp4018
g94
g95
ssg83
g4012
sg76
(lp4019
S'description'
p4020
asbag69
(g90
g71
NtRp4021
(dp4022
g74
(dp4023
g101
g102
ssg83
g4012
sg76
(lp4024
S':'
asbag69
(g90
g71
NtRp4025
(dp4026
g74
(dp4027
sg83
g4012
sg76
(lp4028
g69
(g70
g71
NtRp4029
(dp4030
g74
(dp4031
g82
I4
ssg83
g4025
sg76
(lp4032
S''
asbasbasbag69
(g85
g71
NtRp4033
(dp4034
g74
(dp4035
sg83
g3987
sg76
(lp4036
g69
(g90
g71
NtRp4037
(dp4038
g74
(dp4039
g94
g95
ssg83
g4033
sg76
(lp4040
S'generator'
p4041
asbag69
(g90
g71
NtRp4042
(dp4043
g74
(dp4044
g101
g102
ssg83
g4033
sg76
(lp4045
S':'
asbag69
(g90
g71
NtRp4046
(dp4047
g74
(dp4048
sg83
g4033
sg76
(lp4049
g69
(g70
g71
NtRp4050
(dp4051
g74
(dp4052
g82
I4
ssg83
g4046
sg76
(lp4053
S''
asbasbasbag69
(g85
g71
NtRp4054
(dp4055
g74
(dp4056
sg83
g3987
sg76
(lp4057
g69
(g90
g71
NtRp4058
(dp4059
g74
(dp4060
g94
g95
ssg83
g4054
sg76
(lp4061
S'keywords'
p4062
asbag69
(g90
g71
NtRp4063
(dp4064
g74
(dp4065
g101
g102
ssg83
g4054
sg76
(lp4066
S':'
asbag69
(g90
g71
NtRp4067
(dp4068
g74
(dp4069
sg83
g4054
sg76
(lp4070
g69
(g70
g71
NtRp4071
(dp4072
g74
(dp4073
g82
I4
ssg83
g4067
sg76
(lp4074
S''
asbasbasbasbasbasbasbag69
(g85
g71
NtRp4075
(dp4076
g74
(dp4077
sg83
g3325
sg76
(lp4078
g69
(g90
g71
NtRp4079
(dp4080
g74
(dp4081
g94
g95
ssg83
g4075
sg76
(lp4082
S'models_to_run'
p4083
asbag69
(g90
g71
NtRp4084
(dp4085
g74
(dp4086
g101
g102
ssg83
g4075
sg76
(lp4087
S':'
asbag69
(g90
g71
NtRp4088
(dp4089
g74
(dp4090
sg83
g4075
sg76
(lp4091
g69
(g70
g71
NtRp4092
(dp4093
g74
(dp4094
g82
I5
ssg83
g4088
sg76
(lp4095
g69
(g78
g71
NtRp4096
(dp4097
g74
(dp4098
g82
I4
ssg83
Nsg76
(lp4099
g69
(g85
g71
NtRp4100
(dp4101
g74
(dp4102
sg83
g4096
sg76
(lp4103
g69
(g90
g71
NtRp4104
(dp4105
g74
(dp4106
sg83
g4100
sg76
(lp4107
g69
(g70
g71
NtRp4108
(dp4109
g74
(dp4110
g82
I4
ssg83
g4104
sg76
(lp4111
S'^\\w+\\.py$'
p4112
asbasbasbag69
(g85
g71
NtRp4113
(dp4114
g74
(dp4115
sg83
g4096
sg76
(lp4116
g69
(g90
g71
NtRp4117
(dp4118
g74
(dp4119
sg83
g4113
sg76
(lp4120
g69
(g70
g71
NtRp4121
(dp4122
g74
(dp4123
g82
I4
ssg83
g4117
sg76
(lp4124
S'^plugin_elrte_widget/\\w+\\.py$'
p4125
asbasbasbag69
(g85
g71
NtRp4126
(dp4127
g74
(dp4128
sg83
g4096
sg76
(lp4129
g69
(g90
g71
NtRp4130
(dp4131
g74
(dp4132
sg83
g4126
sg76
(lp4133
g69
(g70
g71
NtRp4134
(dp4135
g74
(dp4136
g82
I4
ssg83
g4130
sg76
(lp4137
S'^plugin_elrte_widget/index/\\w+\\.py$'
p4138
asbasbasbasbasbasbasbag69
(g85
g71
NtRp4139
(dp4140
g74
(dp4141
sg83
g3325
sg76
(lp4142
g69
(g90
g71
NtRp4143
(dp4144
g74
(dp4145
g94
g95
ssg83
g4139
sg76
(lp4146
S'postprocessing'
p4147
asbag69
(g90
g71
NtRp4148
(dp4149
g74
(dp4150
g101
g102
ssg83
g4139
sg76
(lp4151
S':'
asbag69
(g90
g71
NtRp4152
(dp4153
g74
(dp4154
sg83
g4139
sg76
(lp4155
g69
(g70
g71
NtRp4156
(dp4157
g74
(dp4158
g82
I5
ssg83
g4152
sg76
(lp4159
g69
(g78
g71
NtRp4160
(dp4161
g74
(dp4162
g82
I4
ssg83
Nsg76
(lp4163
sbasbasbasbag69
(g85
g71
NtRp4164
(dp4165
g74
(dp4166
sg83
g3325
sg76
(lp4167
g69
(g90
g71
NtRp4168
(dp4169
g74
(dp4170
g94
g95
ssg83
g4164
sg76
(lp4171
S'session_cookie_expires'
p4172
asbag69
(g90
g71
NtRp4173
(dp4174
g74
(dp4175
g101
g102
ssg83
g4164
sg76
(lp4176
S':'
asbag69
(g90
g71
NtRp4177
(dp4178
g74
(dp4179
sg83
g4164
sg76
(lp4180
g69
(g70
g71
NtRp4181
(dp4182
g74
(dp4183
g82
I5
ssg83
g4177
sg76
(lp4184
S'None'
p4185
asbasbasbag69
(g85
g71
NtRp4186
(dp4187
g74
(dp4188
sg83
g3325
sg76
(lp4189
g69
(g90
g71
NtRp4190
(dp4191
g74
(dp4192
g94
g95
ssg83
g4186
sg76
(lp4193
S'session_data_name'
p4194
asbag69
(g90
g71
NtRp4195
(dp4196
g74
(dp4197
g101
g102
ssg83
g4186
sg76
(lp4198
S':'
asbag69
(g90
g71
NtRp4199
(dp4200
g74
(dp4201
sg83
g4186
sg76
(lp4202
g69
(g70
g71
NtRp4203
(dp4204
g74
(dp4205
g82
I5
ssg83
g4199
sg76
(lp4206
S'session_data_hw4'
p4207
asbasbasbag69
(g85
g71
NtRp4208
(dp4209
g74
(dp4210
sg83
g3325
sg76
(lp4211
g69
(g90
g71
NtRp4212
(dp4213
g74
(dp4214
g94
g95
ssg83
g4208
sg76
(lp4215
S'session_file'
p4216
asbag69
(g90
g71
NtRp4217
(dp4218
g74
(dp4219
g101
g102
ssg83
g4208
sg76
(lp4220
S':'
asbag69
(g90
g71
NtRp4221
(dp4222
g74
(dp4223
sg83
g4208
sg76
(lp4224
g69
(g70
g71
NtRp4225
(dp4226
g74
(dp4227
g82
I5
ssg83
g4221
sg76
(lp4228
S'None'
p4229
asbasbasbag69
(g85
g71
NtRp4230
(dp4231
g74
(dp4232
sg83
g3325
sg76
(lp4233
g69
(g90
g71
NtRp4234
(dp4235
g74
(dp4236
g94
g95
ssg83
g4230
sg76
(lp4237
S'session_filename'
p4238
asbag69
(g90
g71
NtRp4239
(dp4240
g74
(dp4241
g101
g102
ssg83
g4230
sg76
(lp4242
S':'
asbag69
(g90
g71
NtRp4243
(dp4244
g74
(dp4245
sg83
g4230
sg76
(lp4246
g69
(g70
g71
NtRp4247
(dp4248
g74
(dp4249
g82
I5
ssg83
g4243
sg76
(lp4250
S'D:\\My Documents\\Documents\\Aptana Studio 3 Workspace\\hw2\\applications\\hw4\\sessions\\127.0.0.1-181e70b6-28ab-405f-bb11-c9eeb9b68ae3'
p4251
asbasbasbag69
(g85
g71
NtRp4252
(dp4253
g74
(dp4254
sg83
g3325
sg76
(lp4255
g69
(g90
g71
NtRp4256
(dp4257
g74
(dp4258
g94
g95
ssg83
g4252
sg76
(lp4259
S'session_id'
p4260
asbag69
(g90
g71
NtRp4261
(dp4262
g74
(dp4263
g101
g102
ssg83
g4252
sg76
(lp4264
S':'
asbag69
(g90
g71
NtRp4265
(dp4266
g74
(dp4267
sg83
g4252
sg76
(lp4268
g69
(g70
g71
NtRp4269
(dp4270
g74
(dp4271
g82
I5
ssg83
g4265
sg76
(lp4272
g487
asbasbasbag69
(g85
g71
NtRp4273
(dp4274
g74
(dp4275
sg83
g3325
sg76
(lp4276
g69
(g90
g71
NtRp4277
(dp4278
g74
(dp4279
g94
g95
ssg83
g4273
sg76
(lp4280
S'session_id_name'
p4281
asbag69
(g90
g71
NtRp4282
(dp4283
g74
(dp4284
g101
g102
ssg83
g4273
sg76
(lp4285
S':'
asbag69
(g90
g71
NtRp4286
(dp4287
g74
(dp4288
sg83
g4273
sg76
(lp4289
g69
(g70
g71
NtRp4290
(dp4291
g74
(dp4292
g82
I5
ssg83
g4286
sg76
(lp4293
g3382
asbasbasbag69
(g85
g71
NtRp4294
(dp4295
g74
(dp4296
sg83
g3325
sg76
(lp4297
g69
(g90
g71
NtRp4298
(dp4299
g74
(dp4300
g94
g95
ssg83
g4294
sg76
(lp4301
S'session_new'
p4302
asbag69
(g90
g71
NtRp4303
(dp4304
g74
(dp4305
g101
g102
ssg83
g4294
sg76
(lp4306
S':'
asbag69
(g90
g71
NtRp4307
(dp4308
g74
(dp4309
sg83
g4294
sg76
(lp4310
g69
(g70
g71
NtRp4311
(dp4312
g74
(dp4313
g82
I5
ssg83
g4307
sg76
(lp4314
g112
asbasbasbag69
(g85
g71
NtRp4315
(dp4316
g74
(dp4317
sg83
g3325
sg76
(lp4318
g69
(g90
g71
NtRp4319
(dp4320
g74
(dp4321
g94
g95
ssg83
g4315
sg76
(lp4322
S'session_storage_type'
p4323
asbag69
(g90
g71
NtRp4324
(dp4325
g74
(dp4326
g101
g102
ssg83
g4315
sg76
(lp4327
S':'
asbag69
(g90
g71
NtRp4328
(dp4329
g74
(dp4330
sg83
g4315
sg76
(lp4331
g69
(g70
g71
NtRp4332
(dp4333
g74
(dp4334
g82
I5
ssg83
g4328
sg76
(lp4335
g3169
asbasbasbag69
(g85
g71
NtRp4336
(dp4337
g74
(dp4338
sg83
g3325
sg76
(lp4339
g69
(g90
g71
NtRp4340
(dp4341
g74
(dp4342
g94
g95
ssg83
g4336
sg76
(lp4343
S'status'
p4344
asbag69
(g90
g71
NtRp4345
(dp4346
g74
(dp4347
g101
g102
ssg83
g4336
sg76
(lp4348
S':'
asbag69
(g90
g71
NtRp4349
(dp4350
g74
(dp4351
sg83
g4336
sg76
(lp4352
g69
(g70
g71
NtRp4353
(dp4354
g74
(dp4355
g82
I5
ssg83
g4349
sg76
(lp4356
S'200'
p4357
asbasbasbag69
(g85
g71
NtRp4358
(dp4359
g74
(dp4360
sg83
g3325
sg76
(lp4361
g69
(g90
g71
NtRp4362
(dp4363
g74
(dp4364
g94
g95
ssg83
g4358
sg76
(lp4365
S'subtitle'
p4366
asbag69
(g90
g71
NtRp4367
(dp4368
g74
(dp4369
g101
g102
ssg83
g4358
sg76
(lp4370
S':'
asbag69
(g90
g71
NtRp4371
(dp4372
g74
(dp4373
sg83
g4358
sg76
(lp4374
g69
(g70
g71
NtRp4375
(dp4376
g74
(dp4377
g82
I5
ssg83
g4371
sg76
(lp4378
g3853
(S't\x00\x00\x00\x00'
tRp4379
asbasbasbag69
(g85
g71
NtRp4380
(dp4381
g74
(dp4382
sg83
g3325
sg76
(lp4383
g69
(g90
g71
NtRp4384
(dp4385
g74
(dp4386
g94
g95
ssg83
g4380
sg76
(lp4387
S'title'
p4388
asbag69
(g90
g71
NtRp4389
(dp4390
g74
(dp4391
g101
g102
ssg83
g4380
sg76
(lp4392
S':'
asbag69
(g90
g71
NtRp4393
(dp4394
g74
(dp4395
sg83
g4380
sg76
(lp4396
g69
(g70
g71
NtRp4397
(dp4398
g74
(dp4399
g82
I5
ssg83
g4393
sg76
(lp4400
S'\xe5\xae\x81\xe6\xb3\xa2\xe5\xa4\x96\xe5\x9b\xbd\xe8\xaf\xad\xe5\xad\xa6\xe6\xa0\xa1\xe4\xbf\xa1\xe6\x81\xaf\xe6\x8a\x80\xe6\x9c\xaf\xe8\xaf\xbe'
p4401
asbasbasbag69
(g85
g71
NtRp4402
(dp4403
g74
(dp4404
sg83
g3325
sg76
(lp4405
g69
(g90
g71
NtRp4406
(dp4407
g74
(dp4408
g94
g95
ssg83
g4402
sg76
(lp4409
S'view'
p4410
asbag69
(g90
g71
NtRp4411
(dp4412
g74
(dp4413
g101
g102
ssg83
g4402
sg76
(lp4414
S':'
asbag69
(g90
g71
NtRp4415
(dp4416
g74
(dp4417
sg83
g4402
sg76
(lp4418
g69
(g70
g71
NtRp4419
(dp4420
g74
(dp4421
g82
I5
ssg83
g4415
sg76
(lp4422
S'plugin_elrte_widget/index.html'
p4423
asbasbasbasbasbsS'locals'
p4424
(dp4425
S'self'
p4426
S'<DAL uri="sqlite://storage.sqlite">'
p4427
sS'name'
p4428
S"'file'"
p4429
sS'backend'
p4430
S"'all'"
p4431
sssS'traceback'
p4432
S'Traceback (most recent call last):\n  File "D:\\My Documents\\Documents\\Aptana Studio 3 Workspace\\hw2\\gluon\\restricted.py", line 212, in restricted\n    exec ccode in environment\n  File "D:\\My Documents\\Documents\\Aptana Studio 3 Workspace\\hw2\\applications\\hw4\\controllers/plugin_elrte_widget.py", line 25, in <module>\n    Field(\'file\', \'upload\', autodelete=True, comment=\'<- upload a file(max file size=100k)\'),\n  File "D:\\My Documents\\Documents\\Aptana Studio 3 Workspace\\hw2\\gluon\\dal.py", line 7186, in define_table\n    table = self.lazy_define_table(tablename,*fields,**args)\n  File "D:\\My Documents\\Documents\\Aptana Studio 3 Workspace\\hw2\\gluon\\dal.py", line 7203, in lazy_define_table\n    table = table_class(self, tablename, *fields, **args)\n  File "D:\\My Documents\\Documents\\Aptana Studio 3 Workspace\\hw2\\gluon\\dal.py", line 7609, in __init__\n    db.check_reserved_keyword(field_name)\n  File "D:\\My Documents\\Documents\\Aptana Studio 3 Workspace\\hw2\\gluon\\dal.py", line 6930, in check_reserved_keyword\n    \'invalid table/column name "%s" is a "%s" reserved SQL keyword\' % (name, backend.upper()))\nSyntaxError: invalid table/column name "file" is a "ALL" reserved SQL keyword\n'
p4433
s.