(dp1
S'output'
p2
S"<type 'exceptions.SyntaxError'> invalid syntax (db.py, line 143)"
p3
sS'layer'
p4
S'C:\\Python27\\web2py\\applications\\hw4\\models\\db.py'
p5
sS'code'
p6
S"# -*- coding: utf-8 -*-\n\n#########################################################################\n## This scaffolding model makes your app work on Google App Engine too\n## File is released under public domain and you can use without limitations\n#########################################################################\n\n## if SSL/HTTPS is properly configured and you want all HTTP requests to\n## be redirected to HTTPS, uncomment the line below:\n# request.requires_https()\n\nif not request.env.web2py_runtime_gae:\n    ## if NOT running on Google App Engine use SQLite or other DB\n    db = DAL('sqlite://storage.sqlite',pool_size=1,check_reserved=['all'])\nelse:\n    ## connect to Google BigTable (optional 'google:datastore://namespace')\n    db = DAL('google:datastore')\n    ## store sessions and tickets there\n    session.connect(request, response, db=db)\n    ## or store session in Memcache, Redis, etc.\n    ## from gluon.contrib.memdb import MEMDB\n    ## from google.appengine.api.memcache import Client\n    ## session.connect(request, response, db = MEMDB(Client()))\n\n## by default give a view/generic.extension to all actions from localhost\n## none otherwise. a pattern can be 'controller/function.extension'\nresponse.generic_patterns = ['*'] if request.is_local else []\n## (optional) optimize handling of static files\n# response.optimize_css = 'concat,minify,inline'\n# response.optimize_js = 'concat,minify,inline'\n\n#########################################################################\n## Here is sample code if you need for\n## - email capabilities\n## - authentication (registration, login, logout, ... )\n## - authorization (role based authorization)\n## - services (xml, csv, json, xmlrpc, jsonrpc, amf, rss)\n## - old style crud actions\n## (more options discussed in gluon/tools.py)\n#########################################################################\n\nfrom gluon.tools import Auth, Crud, Service, PluginManager, prettydate\nauth = Auth(db)\ncrud, service, plugins = Crud(db), Service(), PluginManager()\nauth.settings.extra_fields['auth_user']= [\n  Field('jie',label='\xe5\xb1\x8a'),\n  Field('banji',label='\xe7\x8f\xad\xe7\xba\xa7')\n]\nauth.define_tables()\ndb.auth_user.first_name.label='\xe5\xa7\x93\xe5\x90\x8d'\ndb.auth_user.last_name.label='\xe5\xad\xa6\xe5\x8f\xb7'\ndb.auth_user.first_name.requires=IS_NOT_EMPTY()\ndb.auth_user.last_name.requires=[IS_NOT_EMPTY(),IS_MATCH('\\d\\d',error_message='two number:like 11,02')]\ndb.auth_user.jie.requires=[IS_NOT_EMPTY(),IS_MATCH('\\d\\d',error_message='two number:like 11,02')]\ndb.auth_user.banji.requires=[IS_NOT_EMPTY(),IS_MATCH('\\d\\d',error_message='two number:like 11,02')]\n\n## create all tables needed by auth if not custom tables\nauth.define_tables(username=False, signature=False)\n\n## configure email\nmail = auth.settings.mailer\nmail.settings.server = 'logging' or 'smtp.gmail.com:587'\nmail.settings.sender = 'you@gmail.com'\nmail.settings.login = 'username:password'\n\n## configure auth policy\nauth.settings.registration_requires_verification = False\nauth.settings.registration_requires_approval = False\nauth.settings.reset_password_requires_verification = True\nauth.settings.actions_disabled = []\n## if you need to use OpenID, Facebook, MySpace, Twitter, Linkedin, etc.\n## register with janrain.com, write your domain:api_key in private/janrain.key\nfrom gluon.contrib.login_methods.rpx_account import use_janrain\nuse_janrain(auth, filename='private/janrain.key')\n\n#########################################################################\n## Define your tables below (or better in another model file) for example\n##\n## >>> db.define_table('mytable',Field('myfield','string'))\n##\n## Fields can be 'string','text','password','integer','double','boolean'\n##       'date','time','datetime','blob','upload', 'reference TABLENAME'\n## There is an implicit 'id integer autoincrement' field\n## Consult manual for more options, validators, etc.\n##\n## More API examples for controllers:\n##\n## >>> db.mytable.insert(myfield='value')\n## >>> rows=db(db.mytable.myfield=='value').select(db.mytable.ALL)\n## >>> for row in rows: print row.id, row.myfield\n#########################################################################\n\n## after defining tables, uncomment below to enable auditing\n# auth.enable_record_versioning(db)\nMAX_UPLOAD_FILESIZE=50000000\nNETDISK_SIZE=100000000\n\n\nimport os\ndb.define_table('course',\n                Field('title',requires=IS_NOT_EMPTY(),label='\xe5\x90\x8d\xe7\xa7\xb0'),\n                Field('nianji',requires=IS_IN_SET([1,2]),label='\xe5\xb9\xb4\xe7\xba\xa7'),\n                Field('xueqi',requires=IS_IN_SET([1,2]),label='\xe5\xad\xa6\xe6\x9c\x9f'),\n                Field('neirong','text',label='\xe5\x86\x85\xe5\xae\xb9'),\n                Field('kejian','upload',\n                      uploadfolder=os.path.join(request.folder,'uploads/kejian'),\n                      autodelete=True,label='\xe8\xaf\xbe\xe4\xbb\xb6'),\n                format='%(nianji)s%(xueqi)s_%(title)s')\n\ndb.define_table('keshi',\n                Field('xuenian',requires=IS_MATCH('\\d\\d'),label='\xe5\xad\xa6\xe5\xb9\xb4'),\n                Field('xueqi',requires=IS_NOT_EMPTY(),label='\xe5\xad\xa6\xe6\x9c\x9f'),\n                Field('nianji',requires=IS_IN_SET([1,2]),label='\xe5\xb9\xb4\xe7\xba\xa7'),\n                Field('keshi',requires=IS_NOT_EMPTY(),label='\xe8\xaf\xbe\xe6\x97\xb6'),\n                Field('kecheng',db.course,label='\xe8\xaf\xbe\xe7\xa8\x8b'),\n                Field('haszuoye','boolean',default=True),\n                format='%(xuenian)s_%(xueqi)s+%(nianji)s_%(keshi)s')\n\ndb.define_table('timu',\n                Field('course',db.course,label='\xe8\xaf\xbe\xe7\xa8\x8b'),\n                Field('wenti',label='\xe9\x97\xae\xe9\xa2\x98'),\n                Field('daan',label='\xe7\xad\x94\xe6\xa1\x88'),\n                format='%(course)s_%(wenti)s')\n\ndb.define_table('lianxi',\n                Field('keshi',db.keshi,label='\xe8\xaf\xbe\xe6\x97\xb6'),\n                Field('bianhao','integer',label='\xe7\xbc\x96\xe5\x8f\xb7'),\n                Field('timu',db.timu,label='\xe9\xa2\x98\xe7\x9b\xae'),\n                )\n\ndb.define_table('zuoti',\n                Field('lianxi',db.lianxi,label='\xe7\xbb\x83\xe4\xb9\xa0'),\n                Field('zuozhe',db.auth_user,label='\xe4\xbd\x9c\xe8\x80\x85'),\n                Field('zuoda','text',label='\xe7\xad\x94\xe9\xa2\x98'),\n                Field('defen'),label='\xe5\xbe\x97\xe5\x88\x86')\n\ndb.define_table('zuoye',\n                Field('keshi',db.keshi,writable=False,widget=SQLFORM.widgets.string.widget,label='\xe8\xaf\xbe\xe6\x97\xb6'),\n                Field('zuozhe',db.auth_user,writable=False,widget=SQLFORM.widgets.string.widget,label='\xe4\xbd\x9c\xe8\x80\x85'),\n                Field('wenjian','upload',autodelete=True,requires=IS_LENGTH(maxsize=MAX_UPLOAD_FILESIZE),label='\xe6\x96\x87\xe4\xbb\xb6'),\n                Field('defen','integer',writeable=False,label='\xe5\xbe\x97\xe5\x88\x86')\n\ndb.define_table('wangpan',\n                Field('yonghu',db.auth_user,readable=False,writable=False),\n                Field('daxiao','integer'),\n                Field('leixin'),\n                Field('wenjian','upload',autodelete=True,requires=IS_LENGTH(maxsize=MAX_UPLOAD_FILESIZE)))\n\ndb.define_table('defen',Field('keshi',db.keshi,label='\xe8\xaf\xbe\xe6\x97\xb6'),\n                Field('xuesheng',db.auth_user,label='\xe5\xad\xa6\xe7\x94\x9f'),\n                Field('chengji'),label='\xe6\x88\x90\xe7\xbb\xa9')"
p7
sS'snapshot'
p8
(dp9
S'exception'
p10
(dp11
S'__getslice__'
p12
S"<method-wrapper '__getslice__' of exceptions.SyntaxError object>"
p13
sS'text'
p14
S'"db.define_table(\'wangpan\',\\n"'
p15
sS'__str__'
p16
S"<method-wrapper '__str__' of exceptions.SyntaxError object>"
p17
sS'__reduce__'
p18
S'<built-in method __reduce__ of exceptions.SyntaxError object>'
p19
sS'__dict__'
p20
S'{}'
p21
sS'__sizeof__'
p22
S'<built-in method __sizeof__ of exceptions.SyntaxError object>'
p23
sS'__init__'
p24
S"<method-wrapper '__init__' of exceptions.SyntaxError object>"
p25
sS'__setattr__'
p26
S"<method-wrapper '__setattr__' of exceptions.SyntaxError object>"
p27
sS'__reduce_ex__'
p28
S'<built-in method __reduce_ex__ of exceptions.SyntaxError object>'
p29
sS'__new__'
p30
S'<built-in method __new__ of type object>'
p31
sS'__format__'
p32
S'<built-in method __format__ of exceptions.SyntaxError object>'
p33
sS'__class__'
p34
S"<type 'exceptions.SyntaxError'>"
p35
sS'filename'
p36
S"r'C:\\Python27\\web2py\\applications\\hw4\\models\\db.py'"
p37
sS'lineno'
p38
S'143'
p39
sS'msg'
p40
S"'invalid syntax'"
p41
sS'__doc__'
p42
S"'Invalid syntax.'"
p43
sS'__getitem__'
p44
S"<method-wrapper '__getitem__' of exceptions.SyntaxError object>"
p45
sS'__setstate__'
p46
S'<built-in method __setstate__ of exceptions.SyntaxError object>'
p47
sS'__getattribute__'
p48
S"<method-wrapper '__getattribute__' of exceptions.SyntaxError object>"
p49
sS'print_file_and_line'
p50
S'None'
p51
sS'args'
p52
S'(\'invalid syntax\', (r\'C:\\Python27\\web2py\\applications\\hw4\\models\\db.py\', 143, 2, "db.define_table(\'wangpan\',\\n"))'
p53
sS'__subclasshook__'
p54
S'<built-in method __subclasshook__ of type object>'
p55
sS'offset'
p56
S'2'
sS'__unicode__'
p57
S'<built-in method __unicode__ of exceptions.SyntaxError object>'
p58
sS'__delattr__'
p59
S"<method-wrapper '__delattr__' of exceptions.SyntaxError object>"
p60
sS'__repr__'
p61
S"<method-wrapper '__repr__' of exceptions.SyntaxError object>"
p62
sS'__hash__'
p63
S"<method-wrapper '__hash__' of exceptions.SyntaxError object>"
p64
ssS'evalue'
p65
S'invalid syntax (db.py, line 143)'
p66
sS'request'
p67
ccopy_reg
_reconstructor
p68
(cgluon.html
BEAUTIFY
p69
c__builtin__
object
p70
NtRp71
(dp72
S'attributes'
p73
(dp74
sS'components'
p75
(lp76
g68
(cgluon.html
TABLE
p77
g70
NtRp78
(dp79
g73
(dp80
S'level'
p81
I5
ssS'parent'
p82
Nsg75
(lp83
g68
(cgluon.html
TR
p84
g70
NtRp85
(dp86
g73
(dp87
sg82
g78
sg75
(lp88
g68
(cgluon.html
TD
p89
g70
NtRp90
(dp91
g73
(dp92
S'_style'
p93
S'font-weight:bold;vertical-align:top'
p94
ssg82
g85
sg75
(lp95
S'ajax'
p96
asbag68
(g89
g70
NtRp97
(dp98
g73
(dp99
S'_valign'
p100
S'top'
p101
ssg82
g85
sg75
(lp102
S':'
asbag68
(g89
g70
NtRp103
(dp104
g73
(dp105
sg82
g85
sg75
(lp106
g68
(g69
g70
NtRp107
(dp108
g73
(dp109
g81
I5
ssg82
g103
sg75
(lp110
S'False'
p111
asbasbasbag68
(g84
g70
NtRp112
(dp113
g73
(dp114
sg82
g78
sg75
(lp115
g68
(g89
g70
NtRp116
(dp117
g73
(dp118
g93
g94
ssg82
g112
sg75
(lp119
S'application'
p120
asbag68
(g89
g70
NtRp121
(dp122
g73
(dp123
g100
g101
ssg82
g112
sg75
(lp124
S':'
asbag68
(g89
g70
NtRp125
(dp126
g73
(dp127
sg82
g112
sg75
(lp128
g68
(g69
g70
NtRp129
(dp130
g73
(dp131
g81
I5
ssg82
g125
sg75
(lp132
S'hw4'
p133
asbasbasbag68
(g84
g70
NtRp134
(dp135
g73
(dp136
sg82
g78
sg75
(lp137
g68
(g89
g70
NtRp138
(dp139
g73
(dp140
g93
g94
ssg82
g134
sg75
(lp141
g52
asbag68
(g89
g70
NtRp142
(dp143
g73
(dp144
g100
g101
ssg82
g134
sg75
(lp145
S':'
asbag68
(g89
g70
NtRp146
(dp147
g73
(dp148
sg82
g134
sg75
(lp149
g68
(g69
g70
NtRp150
(dp151
g73
(dp152
g81
I5
ssg82
g146
sg75
(lp153
g68
(g77
g70
NtRp154
(dp155
g73
(dp156
g81
I4
ssg82
Nsg75
(lp157
g68
(g84
g70
NtRp158
(dp159
g73
(dp160
sg82
g154
sg75
(lp161
g68
(g89
g70
NtRp162
(dp163
g73
(dp164
sg82
g158
sg75
(lp165
g68
(g69
g70
NtRp166
(dp167
g73
(dp168
g81
I4
ssg82
g162
sg75
(lp169
S'1'
asbasbasbasbasbasbasbag68
(g84
g70
NtRp170
(dp171
g73
(dp172
sg82
g78
sg75
(lp173
g68
(g89
g70
NtRp174
(dp175
g73
(dp176
g93
g94
ssg82
g170
sg75
(lp177
S'body'
p178
asbag68
(g89
g70
NtRp179
(dp180
g73
(dp181
g100
g101
ssg82
g170
sg75
(lp182
S':'
asbag68
(g89
g70
NtRp183
(dp184
g73
(dp185
sg82
g170
sg75
(lp186
g68
(g69
g70
NtRp187
(dp188
g73
(dp189
g81
I5
ssg82
g183
sg75
(lp190
S'<cStringIO.StringO object at 0x05879300>'
p191
asbasbasbag68
(g84
g70
NtRp192
(dp193
g73
(dp194
sg82
g78
sg75
(lp195
g68
(g89
g70
NtRp196
(dp197
g73
(dp198
g93
g94
ssg82
g192
sg75
(lp199
S'cid'
p200
asbag68
(g89
g70
NtRp201
(dp202
g73
(dp203
g100
g101
ssg82
g192
sg75
(lp204
S':'
asbag68
(g89
g70
NtRp205
(dp206
g73
(dp207
sg82
g192
sg75
(lp208
g68
(g69
g70
NtRp209
(dp210
g73
(dp211
g81
I5
ssg82
g205
sg75
(lp212
S'None'
p213
asbasbasbag68
(g84
g70
NtRp214
(dp215
g73
(dp216
sg82
g78
sg75
(lp217
g68
(g89
g70
NtRp218
(dp219
g73
(dp220
g93
g94
ssg82
g214
sg75
(lp221
S'client'
p222
asbag68
(g89
g70
NtRp223
(dp224
g73
(dp225
g100
g101
ssg82
g214
sg75
(lp226
S':'
asbag68
(g89
g70
NtRp227
(dp228
g73
(dp229
sg82
g214
sg75
(lp230
g68
(g69
g70
NtRp231
(dp232
g73
(dp233
g81
I5
ssg82
g227
sg75
(lp234
S'127.0.0.1'
p235
asbasbasbag68
(g84
g70
NtRp236
(dp237
g73
(dp238
sg82
g78
sg75
(lp239
g68
(g89
g70
NtRp240
(dp241
g73
(dp242
g93
g94
ssg82
g236
sg75
(lp243
S'controller'
p244
asbag68
(g89
g70
NtRp245
(dp246
g73
(dp247
g100
g101
ssg82
g236
sg75
(lp248
S':'
asbag68
(g89
g70
NtRp249
(dp250
g73
(dp251
sg82
g236
sg75
(lp252
g68
(g69
g70
NtRp253
(dp254
g73
(dp255
g81
I5
ssg82
g249
sg75
(lp256
S'default'
p257
asbasbasbag68
(g84
g70
NtRp258
(dp259
g73
(dp260
sg82
g78
sg75
(lp261
g68
(g89
g70
NtRp262
(dp263
g73
(dp264
g93
g94
ssg82
g258
sg75
(lp265
S'cookies'
p266
asbag68
(g89
g70
NtRp267
(dp268
g73
(dp269
g100
g101
ssg82
g258
sg75
(lp270
S':'
asbag68
(g89
g70
NtRp271
(dp272
g73
(dp273
sg82
g258
sg75
(lp274
g68
(g69
g70
NtRp275
(dp276
g73
(dp277
g81
I5
ssg82
g271
sg75
(lp278
g68
(g77
g70
NtRp279
(dp280
g73
(dp281
g81
I4
ssg82
Nsg75
(lp282
g68
(g84
g70
NtRp283
(dp284
g73
(dp285
sg82
g279
sg75
(lp286
g68
(g89
g70
NtRp287
(dp288
g73
(dp289
g93
g94
ssg82
g283
sg75
(lp290
S'session_id_admin'
p291
asbag68
(g89
g70
NtRp292
(dp293
g73
(dp294
g100
g101
ssg82
g283
sg75
(lp295
S':'
asbag68
(g89
g70
NtRp296
(dp297
g73
(dp298
sg82
g283
sg75
(lp299
g68
(g69
g70
NtRp300
(dp301
g73
(dp302
g81
I4
ssg82
g296
sg75
(lp303
S'127.0.0.1-040c41f2-b876-42e9-978e-9a080de27126'
p304
ag68
(g77
g70
NtRp305
(dp306
g73
(dp307
g81
I3
ssg82
Nsg75
(lp308
g68
(g84
g70
NtRp309
(dp310
g73
(dp311
sg82
g305
sg75
(lp312
g68
(g89
g70
NtRp313
(dp314
g73
(dp315
g93
g94
ssg82
g309
sg75
(lp316
S'comment'
p317
asbag68
(g89
g70
NtRp318
(dp319
g73
(dp320
g100
g101
ssg82
g309
sg75
(lp321
S':'
asbag68
(g89
g70
NtRp322
(dp323
g73
(dp324
sg82
g309
sg75
(lp325
g68
(g69
g70
NtRp326
(dp327
g73
(dp328
g81
I3
ssg82
g322
sg75
(lp329
S''
asbasbasbag68
(g84
g70
NtRp330
(dp331
g73
(dp332
sg82
g305
sg75
(lp333
g68
(g89
g70
NtRp334
(dp335
g73
(dp336
g93
g94
ssg82
g330
sg75
(lp337
S'domain'
p338
asbag68
(g89
g70
NtRp339
(dp340
g73
(dp341
g100
g101
ssg82
g330
sg75
(lp342
S':'
asbag68
(g89
g70
NtRp343
(dp344
g73
(dp345
sg82
g330
sg75
(lp346
g68
(g69
g70
NtRp347
(dp348
g73
(dp349
g81
I3
ssg82
g343
sg75
(lp350
S''
asbasbasbag68
(g84
g70
NtRp351
(dp352
g73
(dp353
sg82
g305
sg75
(lp354
g68
(g89
g70
NtRp355
(dp356
g73
(dp357
g93
g94
ssg82
g351
sg75
(lp358
S'expires'
p359
asbag68
(g89
g70
NtRp360
(dp361
g73
(dp362
g100
g101
ssg82
g351
sg75
(lp363
S':'
asbag68
(g89
g70
NtRp364
(dp365
g73
(dp366
sg82
g351
sg75
(lp367
g68
(g69
g70
NtRp368
(dp369
g73
(dp370
g81
I3
ssg82
g364
sg75
(lp371
S''
asbasbasbag68
(g84
g70
NtRp372
(dp373
g73
(dp374
sg82
g305
sg75
(lp375
g68
(g89
g70
NtRp376
(dp377
g73
(dp378
g93
g94
ssg82
g372
sg75
(lp379
S'httponly'
p380
asbag68
(g89
g70
NtRp381
(dp382
g73
(dp383
g100
g101
ssg82
g372
sg75
(lp384
S':'
asbag68
(g89
g70
NtRp385
(dp386
g73
(dp387
sg82
g372
sg75
(lp388
g68
(g69
g70
NtRp389
(dp390
g73
(dp391
g81
I3
ssg82
g385
sg75
(lp392
S''
asbasbasbag68
(g84
g70
NtRp393
(dp394
g73
(dp395
sg82
g305
sg75
(lp396
g68
(g89
g70
NtRp397
(dp398
g73
(dp399
g93
g94
ssg82
g393
sg75
(lp400
S'max-age'
p401
asbag68
(g89
g70
NtRp402
(dp403
g73
(dp404
g100
g101
ssg82
g393
sg75
(lp405
S':'
asbag68
(g89
g70
NtRp406
(dp407
g73
(dp408
sg82
g393
sg75
(lp409
g68
(g69
g70
NtRp410
(dp411
g73
(dp412
g81
I3
ssg82
g406
sg75
(lp413
S''
asbasbasbag68
(g84
g70
NtRp414
(dp415
g73
(dp416
sg82
g305
sg75
(lp417
g68
(g89
g70
NtRp418
(dp419
g73
(dp420
g93
g94
ssg82
g414
sg75
(lp421
S'path'
p422
asbag68
(g89
g70
NtRp423
(dp424
g73
(dp425
g100
g101
ssg82
g414
sg75
(lp426
S':'
asbag68
(g89
g70
NtRp427
(dp428
g73
(dp429
sg82
g414
sg75
(lp430
g68
(g69
g70
NtRp431
(dp432
g73
(dp433
g81
I3
ssg82
g427
sg75
(lp434
S''
asbasbasbag68
(g84
g70
NtRp435
(dp436
g73
(dp437
sg82
g305
sg75
(lp438
g68
(g89
g70
NtRp439
(dp440
g73
(dp441
g93
g94
ssg82
g435
sg75
(lp442
S'secure'
p443
asbag68
(g89
g70
NtRp444
(dp445
g73
(dp446
g100
g101
ssg82
g435
sg75
(lp447
S':'
asbag68
(g89
g70
NtRp448
(dp449
g73
(dp450
sg82
g435
sg75
(lp451
g68
(g69
g70
NtRp452
(dp453
g73
(dp454
g81
I3
ssg82
g448
sg75
(lp455
S''
asbasbasbag68
(g84
g70
NtRp456
(dp457
g73
(dp458
sg82
g305
sg75
(lp459
g68
(g89
g70
NtRp460
(dp461
g73
(dp462
g93
g94
ssg82
g456
sg75
(lp463
S'version'
p464
asbag68
(g89
g70
NtRp465
(dp466
g73
(dp467
g100
g101
ssg82
g456
sg75
(lp468
S':'
asbag68
(g89
g70
NtRp469
(dp470
g73
(dp471
sg82
g456
sg75
(lp472
g68
(g69
g70
NtRp473
(dp474
g73
(dp475
g81
I3
ssg82
g469
sg75
(lp476
S''
asbasbasbasbasbasbasbag68
(g84
g70
NtRp477
(dp478
g73
(dp479
sg82
g279
sg75
(lp480
g68
(g89
g70
NtRp481
(dp482
g73
(dp483
g93
g94
ssg82
g477
sg75
(lp484
S'session_id_hw4'
p485
asbag68
(g89
g70
NtRp486
(dp487
g73
(dp488
g100
g101
ssg82
g477
sg75
(lp489
S':'
asbag68
(g89
g70
NtRp490
(dp491
g73
(dp492
sg82
g477
sg75
(lp493
g68
(g69
g70
NtRp494
(dp495
g73
(dp496
g81
I4
ssg82
g490
sg75
(lp497
S'127.0.0.1-47db4407-5ca2-4b4f-b702-e73004465f15'
p498
ag68
(g77
g70
NtRp499
(dp500
g73
(dp501
g81
I3
ssg82
Nsg75
(lp502
g68
(g84
g70
NtRp503
(dp504
g73
(dp505
sg82
g499
sg75
(lp506
g68
(g89
g70
NtRp507
(dp508
g73
(dp509
g93
g94
ssg82
g503
sg75
(lp510
g317
asbag68
(g89
g70
NtRp511
(dp512
g73
(dp513
g100
g101
ssg82
g503
sg75
(lp514
S':'
asbag68
(g89
g70
NtRp515
(dp516
g73
(dp517
sg82
g503
sg75
(lp518
g68
(g69
g70
NtRp519
(dp520
g73
(dp521
g81
I3
ssg82
g515
sg75
(lp522
S''
asbasbasbag68
(g84
g70
NtRp523
(dp524
g73
(dp525
sg82
g499
sg75
(lp526
g68
(g89
g70
NtRp527
(dp528
g73
(dp529
g93
g94
ssg82
g523
sg75
(lp530
g338
asbag68
(g89
g70
NtRp531
(dp532
g73
(dp533
g100
g101
ssg82
g523
sg75
(lp534
S':'
asbag68
(g89
g70
NtRp535
(dp536
g73
(dp537
sg82
g523
sg75
(lp538
g68
(g69
g70
NtRp539
(dp540
g73
(dp541
g81
I3
ssg82
g535
sg75
(lp542
S''
asbasbasbag68
(g84
g70
NtRp543
(dp544
g73
(dp545
sg82
g499
sg75
(lp546
g68
(g89
g70
NtRp547
(dp548
g73
(dp549
g93
g94
ssg82
g543
sg75
(lp550
g359
asbag68
(g89
g70
NtRp551
(dp552
g73
(dp553
g100
g101
ssg82
g543
sg75
(lp554
S':'
asbag68
(g89
g70
NtRp555
(dp556
g73
(dp557
sg82
g543
sg75
(lp558
g68
(g69
g70
NtRp559
(dp560
g73
(dp561
g81
I3
ssg82
g555
sg75
(lp562
S''
asbasbasbag68
(g84
g70
NtRp563
(dp564
g73
(dp565
sg82
g499
sg75
(lp566
g68
(g89
g70
NtRp567
(dp568
g73
(dp569
g93
g94
ssg82
g563
sg75
(lp570
g380
asbag68
(g89
g70
NtRp571
(dp572
g73
(dp573
g100
g101
ssg82
g563
sg75
(lp574
S':'
asbag68
(g89
g70
NtRp575
(dp576
g73
(dp577
sg82
g563
sg75
(lp578
g68
(g69
g70
NtRp579
(dp580
g73
(dp581
g81
I3
ssg82
g575
sg75
(lp582
S''
asbasbasbag68
(g84
g70
NtRp583
(dp584
g73
(dp585
sg82
g499
sg75
(lp586
g68
(g89
g70
NtRp587
(dp588
g73
(dp589
g93
g94
ssg82
g583
sg75
(lp590
g401
asbag68
(g89
g70
NtRp591
(dp592
g73
(dp593
g100
g101
ssg82
g583
sg75
(lp594
S':'
asbag68
(g89
g70
NtRp595
(dp596
g73
(dp597
sg82
g583
sg75
(lp598
g68
(g69
g70
NtRp599
(dp600
g73
(dp601
g81
I3
ssg82
g595
sg75
(lp602
S''
asbasbasbag68
(g84
g70
NtRp603
(dp604
g73
(dp605
sg82
g499
sg75
(lp606
g68
(g89
g70
NtRp607
(dp608
g73
(dp609
g93
g94
ssg82
g603
sg75
(lp610
g422
asbag68
(g89
g70
NtRp611
(dp612
g73
(dp613
g100
g101
ssg82
g603
sg75
(lp614
S':'
asbag68
(g89
g70
NtRp615
(dp616
g73
(dp617
sg82
g603
sg75
(lp618
g68
(g69
g70
NtRp619
(dp620
g73
(dp621
g81
I3
ssg82
g615
sg75
(lp622
S''
asbasbasbag68
(g84
g70
NtRp623
(dp624
g73
(dp625
sg82
g499
sg75
(lp626
g68
(g89
g70
NtRp627
(dp628
g73
(dp629
g93
g94
ssg82
g623
sg75
(lp630
g443
asbag68
(g89
g70
NtRp631
(dp632
g73
(dp633
g100
g101
ssg82
g623
sg75
(lp634
S':'
asbag68
(g89
g70
NtRp635
(dp636
g73
(dp637
sg82
g623
sg75
(lp638
g68
(g69
g70
NtRp639
(dp640
g73
(dp641
g81
I3
ssg82
g635
sg75
(lp642
S''
asbasbasbag68
(g84
g70
NtRp643
(dp644
g73
(dp645
sg82
g499
sg75
(lp646
g68
(g89
g70
NtRp647
(dp648
g73
(dp649
g93
g94
ssg82
g643
sg75
(lp650
g464
asbag68
(g89
g70
NtRp651
(dp652
g73
(dp653
g100
g101
ssg82
g643
sg75
(lp654
S':'
asbag68
(g89
g70
NtRp655
(dp656
g73
(dp657
sg82
g643
sg75
(lp658
g68
(g69
g70
NtRp659
(dp660
g73
(dp661
g81
I3
ssg82
g655
sg75
(lp662
S''
asbasbasbasbasbasbasbag68
(g84
g70
NtRp663
(dp664
g73
(dp665
sg82
g279
sg75
(lp666
g68
(g89
g70
NtRp667
(dp668
g73
(dp669
g93
g94
ssg82
g663
sg75
(lp670
S'session_id_welcome'
p671
asbag68
(g89
g70
NtRp672
(dp673
g73
(dp674
g100
g101
ssg82
g663
sg75
(lp675
S':'
asbag68
(g89
g70
NtRp676
(dp677
g73
(dp678
sg82
g663
sg75
(lp679
g68
(g69
g70
NtRp680
(dp681
g73
(dp682
g81
I4
ssg82
g676
sg75
(lp683
S'127.0.0.1-9063a53c-65d7-44ea-bfb7-52c745d08152'
p684
ag68
(g77
g70
NtRp685
(dp686
g73
(dp687
g81
I3
ssg82
Nsg75
(lp688
g68
(g84
g70
NtRp689
(dp690
g73
(dp691
sg82
g685
sg75
(lp692
g68
(g89
g70
NtRp693
(dp694
g73
(dp695
g93
g94
ssg82
g689
sg75
(lp696
g317
asbag68
(g89
g70
NtRp697
(dp698
g73
(dp699
g100
g101
ssg82
g689
sg75
(lp700
S':'
asbag68
(g89
g70
NtRp701
(dp702
g73
(dp703
sg82
g689
sg75
(lp704
g68
(g69
g70
NtRp705
(dp706
g73
(dp707
g81
I3
ssg82
g701
sg75
(lp708
S''
asbasbasbag68
(g84
g70
NtRp709
(dp710
g73
(dp711
sg82
g685
sg75
(lp712
g68
(g89
g70
NtRp713
(dp714
g73
(dp715
g93
g94
ssg82
g709
sg75
(lp716
g338
asbag68
(g89
g70
NtRp717
(dp718
g73
(dp719
g100
g101
ssg82
g709
sg75
(lp720
S':'
asbag68
(g89
g70
NtRp721
(dp722
g73
(dp723
sg82
g709
sg75
(lp724
g68
(g69
g70
NtRp725
(dp726
g73
(dp727
g81
I3
ssg82
g721
sg75
(lp728
S''
asbasbasbag68
(g84
g70
NtRp729
(dp730
g73
(dp731
sg82
g685
sg75
(lp732
g68
(g89
g70
NtRp733
(dp734
g73
(dp735
g93
g94
ssg82
g729
sg75
(lp736
g359
asbag68
(g89
g70
NtRp737
(dp738
g73
(dp739
g100
g101
ssg82
g729
sg75
(lp740
S':'
asbag68
(g89
g70
NtRp741
(dp742
g73
(dp743
sg82
g729
sg75
(lp744
g68
(g69
g70
NtRp745
(dp746
g73
(dp747
g81
I3
ssg82
g741
sg75
(lp748
S''
asbasbasbag68
(g84
g70
NtRp749
(dp750
g73
(dp751
sg82
g685
sg75
(lp752
g68
(g89
g70
NtRp753
(dp754
g73
(dp755
g93
g94
ssg82
g749
sg75
(lp756
g380
asbag68
(g89
g70
NtRp757
(dp758
g73
(dp759
g100
g101
ssg82
g749
sg75
(lp760
S':'
asbag68
(g89
g70
NtRp761
(dp762
g73
(dp763
sg82
g749
sg75
(lp764
g68
(g69
g70
NtRp765
(dp766
g73
(dp767
g81
I3
ssg82
g761
sg75
(lp768
S''
asbasbasbag68
(g84
g70
NtRp769
(dp770
g73
(dp771
sg82
g685
sg75
(lp772
g68
(g89
g70
NtRp773
(dp774
g73
(dp775
g93
g94
ssg82
g769
sg75
(lp776
g401
asbag68
(g89
g70
NtRp777
(dp778
g73
(dp779
g100
g101
ssg82
g769
sg75
(lp780
S':'
asbag68
(g89
g70
NtRp781
(dp782
g73
(dp783
sg82
g769
sg75
(lp784
g68
(g69
g70
NtRp785
(dp786
g73
(dp787
g81
I3
ssg82
g781
sg75
(lp788
S''
asbasbasbag68
(g84
g70
NtRp789
(dp790
g73
(dp791
sg82
g685
sg75
(lp792
g68
(g89
g70
NtRp793
(dp794
g73
(dp795
g93
g94
ssg82
g789
sg75
(lp796
g422
asbag68
(g89
g70
NtRp797
(dp798
g73
(dp799
g100
g101
ssg82
g789
sg75
(lp800
S':'
asbag68
(g89
g70
NtRp801
(dp802
g73
(dp803
sg82
g789
sg75
(lp804
g68
(g69
g70
NtRp805
(dp806
g73
(dp807
g81
I3
ssg82
g801
sg75
(lp808
S''
asbasbasbag68
(g84
g70
NtRp809
(dp810
g73
(dp811
sg82
g685
sg75
(lp812
g68
(g89
g70
NtRp813
(dp814
g73
(dp815
g93
g94
ssg82
g809
sg75
(lp816
g443
asbag68
(g89
g70
NtRp817
(dp818
g73
(dp819
g100
g101
ssg82
g809
sg75
(lp820
S':'
asbag68
(g89
g70
NtRp821
(dp822
g73
(dp823
sg82
g809
sg75
(lp824
g68
(g69
g70
NtRp825
(dp826
g73
(dp827
g81
I3
ssg82
g821
sg75
(lp828
S''
asbasbasbag68
(g84
g70
NtRp829
(dp830
g73
(dp831
sg82
g685
sg75
(lp832
g68
(g89
g70
NtRp833
(dp834
g73
(dp835
g93
g94
ssg82
g829
sg75
(lp836
g464
asbag68
(g89
g70
NtRp837
(dp838
g73
(dp839
g100
g101
ssg82
g829
sg75
(lp840
S':'
asbag68
(g89
g70
NtRp841
(dp842
g73
(dp843
sg82
g829
sg75
(lp844
g68
(g69
g70
NtRp845
(dp846
g73
(dp847
g81
I3
ssg82
g841
sg75
(lp848
S''
asbasbasbasbasbasbasbasbasbasbasbag68
(g84
g70
NtRp849
(dp850
g73
(dp851
sg82
g78
sg75
(lp852
g68
(g89
g70
NtRp853
(dp854
g73
(dp855
g93
g94
ssg82
g849
sg75
(lp856
S'env'
p857
asbag68
(g89
g70
NtRp858
(dp859
g73
(dp860
g100
g101
ssg82
g849
sg75
(lp861
S':'
asbag68
(g89
g70
NtRp862
(dp863
g73
(dp864
sg82
g849
sg75
(lp865
g68
(g69
g70
NtRp866
(dp867
g73
(dp868
g81
I5
ssg82
g862
sg75
(lp869
g68
(g77
g70
NtRp870
(dp871
g73
(dp872
g81
I4
ssg82
Nsg75
(lp873
g68
(g84
g70
NtRp874
(dp875
g73
(dp876
sg82
g870
sg75
(lp877
g68
(g89
g70
NtRp878
(dp879
g73
(dp880
g93
g94
ssg82
g874
sg75
(lp881
S'app_folders'
p882
asbag68
(g89
g70
NtRp883
(dp884
g73
(dp885
g100
g101
ssg82
g874
sg75
(lp886
S':'
asbag68
(g89
g70
NtRp887
(dp888
g73
(dp889
sg82
g874
sg75
(lp890
g68
(g69
g70
NtRp891
(dp892
g73
(dp893
g81
I4
ssg82
g887
sg75
(lp894
S"set(['C:\\\\Python27\\\\web2py\\\\applications\\\\admin\\\\', 'C:\\\\Python27\\\\web2py\\\\applications\\\\welcome\\\\', 'C:\\\\Python27\\\\web2py\\\\applications\\\\hw4\\\\'])"
p895
asbasbasbag68
(g84
g70
NtRp896
(dp897
g73
(dp898
sg82
g870
sg75
(lp899
g68
(g89
g70
NtRp900
(dp901
g73
(dp902
g93
g94
ssg82
g896
sg75
(lp903
S'applications_parent'
p904
asbag68
(g89
g70
NtRp905
(dp906
g73
(dp907
g100
g101
ssg82
g896
sg75
(lp908
S':'
asbag68
(g89
g70
NtRp909
(dp910
g73
(dp911
sg82
g896
sg75
(lp912
g68
(g69
g70
NtRp913
(dp914
g73
(dp915
g81
I4
ssg82
g909
sg75
(lp916
S'C:\\Python27\\web2py'
p917
asbasbasbag68
(g84
g70
NtRp918
(dp919
g73
(dp920
sg82
g870
sg75
(lp921
g68
(g89
g70
NtRp922
(dp923
g73
(dp924
g93
g94
ssg82
g918
sg75
(lp925
S'cmd_args'
p926
asbag68
(g89
g70
NtRp927
(dp928
g73
(dp929
g100
g101
ssg82
g918
sg75
(lp930
S':'
asbag68
(g89
g70
NtRp931
(dp932
g73
(dp933
sg82
g918
sg75
(lp934
g68
(g69
g70
NtRp935
(dp936
g73
(dp937
g81
I4
ssg82
g931
sg75
(lp938
g68
(g77
g70
NtRp939
(dp940
g73
(dp941
g81
I3
ssg82
Nsg75
(lp942
sbasbasbasbag68
(g84
g70
NtRp943
(dp944
g73
(dp945
sg82
g870
sg75
(lp946
g68
(g89
g70
NtRp947
(dp948
g73
(dp949
g93
g94
ssg82
g943
sg75
(lp950
S'cmd_options'
p951
asbag68
(g89
g70
NtRp952
(dp953
g73
(dp954
g100
g101
ssg82
g943
sg75
(lp955
S':'
asbag68
(g89
g70
NtRp956
(dp957
g73
(dp958
sg82
g943
sg75
(lp959
g68
(g69
g70
NtRp960
(dp961
g73
(dp962
g81
I4
ssg82
g956
sg75
(lp963
S"<Values at 0x17c00f8: {'verbose': False, 'ip': '127.0.0.1', 'with_scheduler': False, 'ips': ['192.168.1.101'], 'shutdown_timeout': 5, 'taskbar': False, 'port': 8000, 'maxthreads': None, 'softcron': False, 'server_name': 'FREESKYC-5359CC', 'bpython': False, 'nogui': False, 'pid_filename': 'httpserver.pid', 'extcron': False, 'runcron': False, 'run_system_tests': False, 'test': None, 'folder': 'C:\\\\Python27\\\\web2py', 'config': '', 'import_models': False, 'winservice': '', 'shell': None, 'run': '', 'log_filename': 'httpserver.log', 'debuglevel': 30, 'args': [''], 'socket_timeout': 5, 'ssl_ca_certificate': None, 'scheduler': None, 'profiler_filename': None, 'ssl_private_key': '', 'scheduler_groups': None, 'password': '<ask>', 'request_queue_size': 5, 'ssl_certificate': '', 'cronjob': False, 'numthreads': None, 'quiet': False, 'interfaces': None, 'minthreads': None, 'timeout': 10, 'plain': False, 'nobanner': False}>"
p964
asbasbasbag68
(g84
g70
NtRp965
(dp966
g73
(dp967
sg82
g870
sg75
(lp968
g68
(g89
g70
NtRp969
(dp970
g73
(dp971
g93
g94
ssg82
g965
sg75
(lp972
S'db_sessions'
p973
asbag68
(g89
g70
NtRp974
(dp975
g73
(dp976
g100
g101
ssg82
g965
sg75
(lp977
S':'
asbag68
(g89
g70
NtRp978
(dp979
g73
(dp980
sg82
g965
sg75
(lp981
g68
(g69
g70
NtRp982
(dp983
g73
(dp984
g81
I4
ssg82
g978
sg75
(lp985
S'set([])'
p986
asbasbasbag68
(g84
g70
NtRp987
(dp988
g73
(dp989
sg82
g870
sg75
(lp990
g68
(g89
g70
NtRp991
(dp992
g73
(dp993
g93
g94
ssg82
g987
sg75
(lp994
S'debugging'
p995
asbag68
(g89
g70
NtRp996
(dp997
g73
(dp998
g100
g101
ssg82
g987
sg75
(lp999
S':'
asbag68
(g89
g70
NtRp1000
(dp1001
g73
(dp1002
sg82
g987
sg75
(lp1003
g68
(g69
g70
NtRp1004
(dp1005
g73
(dp1006
g81
I4
ssg82
g1000
sg75
(lp1007
g111
asbasbasbag68
(g84
g70
NtRp1008
(dp1009
g73
(dp1010
sg82
g870
sg75
(lp1011
g68
(g89
g70
NtRp1012
(dp1013
g73
(dp1014
g93
g94
ssg82
g1008
sg75
(lp1015
S'gluon_parent'
p1016
asbag68
(g89
g70
NtRp1017
(dp1018
g73
(dp1019
g100
g101
ssg82
g1008
sg75
(lp1020
S':'
asbag68
(g89
g70
NtRp1021
(dp1022
g73
(dp1023
sg82
g1008
sg75
(lp1024
g68
(g69
g70
NtRp1025
(dp1026
g73
(dp1027
g81
I4
ssg82
g1021
sg75
(lp1028
S'C:\\Python27\\web2py'
p1029
asbasbasbag68
(g84
g70
NtRp1030
(dp1031
g73
(dp1032
sg82
g870
sg75
(lp1033
g68
(g89
g70
NtRp1034
(dp1035
g73
(dp1036
g93
g94
ssg82
g1030
sg75
(lp1037
S'http_accept'
p1038
asbag68
(g89
g70
NtRp1039
(dp1040
g73
(dp1041
g100
g101
ssg82
g1030
sg75
(lp1042
S':'
asbag68
(g89
g70
NtRp1043
(dp1044
g73
(dp1045
sg82
g1030
sg75
(lp1046
g68
(g69
g70
NtRp1047
(dp1048
g73
(dp1049
g81
I4
ssg82
g1043
sg75
(lp1050
S'text/html,application/xhtml+xml,application/xml;q=0.9,*/*;q=0.8'
p1051
asbasbasbag68
(g84
g70
NtRp1052
(dp1053
g73
(dp1054
sg82
g870
sg75
(lp1055
g68
(g89
g70
NtRp1056
(dp1057
g73
(dp1058
g93
g94
ssg82
g1052
sg75
(lp1059
S'http_accept_encoding'
p1060
asbag68
(g89
g70
NtRp1061
(dp1062
g73
(dp1063
g100
g101
ssg82
g1052
sg75
(lp1064
S':'
asbag68
(g89
g70
NtRp1065
(dp1066
g73
(dp1067
sg82
g1052
sg75
(lp1068
g68
(g69
g70
NtRp1069
(dp1070
g73
(dp1071
g81
I4
ssg82
g1065
sg75
(lp1072
S'gzip, deflate'
p1073
asbasbasbag68
(g84
g70
NtRp1074
(dp1075
g73
(dp1076
sg82
g870
sg75
(lp1077
g68
(g89
g70
NtRp1078
(dp1079
g73
(dp1080
g93
g94
ssg82
g1074
sg75
(lp1081
S'http_accept_language'
p1082
asbag68
(g89
g70
NtRp1083
(dp1084
g73
(dp1085
g100
g101
ssg82
g1074
sg75
(lp1086
S':'
asbag68
(g89
g70
NtRp1087
(dp1088
g73
(dp1089
sg82
g1074
sg75
(lp1090
g68
(g69
g70
NtRp1091
(dp1092
g73
(dp1093
g81
I4
ssg82
g1087
sg75
(lp1094
S'zh-cn,zh;q=0.8,en-us;q=0.5,en;q=0.3'
p1095
asbasbasbag68
(g84
g70
NtRp1096
(dp1097
g73
(dp1098
sg82
g870
sg75
(lp1099
g68
(g89
g70
NtRp1100
(dp1101
g73
(dp1102
g93
g94
ssg82
g1096
sg75
(lp1103
S'http_cache_control'
p1104
asbag68
(g89
g70
NtRp1105
(dp1106
g73
(dp1107
g100
g101
ssg82
g1096
sg75
(lp1108
S':'
asbag68
(g89
g70
NtRp1109
(dp1110
g73
(dp1111
sg82
g1096
sg75
(lp1112
g68
(g69
g70
NtRp1113
(dp1114
g73
(dp1115
g81
I4
ssg82
g1109
sg75
(lp1116
S'max-age=0'
p1117
asbasbasbag68
(g84
g70
NtRp1118
(dp1119
g73
(dp1120
sg82
g870
sg75
(lp1121
g68
(g89
g70
NtRp1122
(dp1123
g73
(dp1124
g93
g94
ssg82
g1118
sg75
(lp1125
S'http_connection'
p1126
asbag68
(g89
g70
NtRp1127
(dp1128
g73
(dp1129
g100
g101
ssg82
g1118
sg75
(lp1130
S':'
asbag68
(g89
g70
NtRp1131
(dp1132
g73
(dp1133
sg82
g1118
sg75
(lp1134
g68
(g69
g70
NtRp1135
(dp1136
g73
(dp1137
g81
I4
ssg82
g1131
sg75
(lp1138
S'keep-alive'
p1139
asbasbasbag68
(g84
g70
NtRp1140
(dp1141
g73
(dp1142
sg82
g870
sg75
(lp1143
g68
(g89
g70
NtRp1144
(dp1145
g73
(dp1146
g93
g94
ssg82
g1140
sg75
(lp1147
S'http_cookie'
p1148
asbag68
(g89
g70
NtRp1149
(dp1150
g73
(dp1151
g100
g101
ssg82
g1140
sg75
(lp1152
S':'
asbag68
(g89
g70
NtRp1153
(dp1154
g73
(dp1155
sg82
g1140
sg75
(lp1156
g68
(g69
g70
NtRp1157
(dp1158
g73
(dp1159
g81
I4
ssg82
g1153
sg75
(lp1160
S'session_id_welcome=127.0.0.1-9063a53c-65d7-44ea-bfb7-52c745d08152; session_id_admin=127.0.0.1-040c41f2-b876-42e9-978e-9a080de27126; session_id_hw4=127.0.0.1-47db4407-5ca2-4b4f-b702-e73004465f15'
p1161
asbasbasbag68
(g84
g70
NtRp1162
(dp1163
g73
(dp1164
sg82
g870
sg75
(lp1165
g68
(g89
g70
NtRp1166
(dp1167
g73
(dp1168
g93
g94
ssg82
g1162
sg75
(lp1169
S'http_dnt'
p1170
asbag68
(g89
g70
NtRp1171
(dp1172
g73
(dp1173
g100
g101
ssg82
g1162
sg75
(lp1174
S':'
asbag68
(g89
g70
NtRp1175
(dp1176
g73
(dp1177
sg82
g1162
sg75
(lp1178
g68
(g69
g70
NtRp1179
(dp1180
g73
(dp1181
g81
I4
ssg82
g1175
sg75
(lp1182
S'1'
asbasbasbag68
(g84
g70
NtRp1183
(dp1184
g73
(dp1185
sg82
g870
sg75
(lp1186
g68
(g89
g70
NtRp1187
(dp1188
g73
(dp1189
g93
g94
ssg82
g1183
sg75
(lp1190
S'http_host'
p1191
asbag68
(g89
g70
NtRp1192
(dp1193
g73
(dp1194
g100
g101
ssg82
g1183
sg75
(lp1195
S':'
asbag68
(g89
g70
NtRp1196
(dp1197
g73
(dp1198
sg82
g1183
sg75
(lp1199
g68
(g69
g70
NtRp1200
(dp1201
g73
(dp1202
g81
I4
ssg82
g1196
sg75
(lp1203
S'127.0.0.1:8000'
p1204
asbasbasbag68
(g84
g70
NtRp1205
(dp1206
g73
(dp1207
sg82
g870
sg75
(lp1208
g68
(g89
g70
NtRp1209
(dp1210
g73
(dp1211
g93
g94
ssg82
g1205
sg75
(lp1212
S'http_referer'
p1213
asbag68
(g89
g70
NtRp1214
(dp1215
g73
(dp1216
g100
g101
ssg82
g1205
sg75
(lp1217
S':'
asbag68
(g89
g70
NtRp1218
(dp1219
g73
(dp1220
sg82
g1205
sg75
(lp1221
g68
(g69
g70
NtRp1222
(dp1223
g73
(dp1224
g81
I4
ssg82
g1218
sg75
(lp1225
S'http://127.0.0.1:8000/hw4/default/study/1'
p1226
asbasbasbag68
(g84
g70
NtRp1227
(dp1228
g73
(dp1229
sg82
g870
sg75
(lp1230
g68
(g89
g70
NtRp1231
(dp1232
g73
(dp1233
g93
g94
ssg82
g1227
sg75
(lp1234
S'http_user_agent'
p1235
asbag68
(g89
g70
NtRp1236
(dp1237
g73
(dp1238
g100
g101
ssg82
g1227
sg75
(lp1239
S':'
asbag68
(g89
g70
NtRp1240
(dp1241
g73
(dp1242
sg82
g1227
sg75
(lp1243
g68
(g69
g70
NtRp1244
(dp1245
g73
(dp1246
g81
I4
ssg82
g1240
sg75
(lp1247
S'Mozilla/5.0 (Windows NT 5.1; rv:23.0) Gecko/20100101 Firefox/23.0'
p1248
asbasbasbag68
(g84
g70
NtRp1249
(dp1250
g73
(dp1251
sg82
g870
sg75
(lp1252
g68
(g89
g70
NtRp1253
(dp1254
g73
(dp1255
g93
g94
ssg82
g1249
sg75
(lp1256
S'is_jython'
p1257
asbag68
(g89
g70
NtRp1258
(dp1259
g73
(dp1260
g100
g101
ssg82
g1249
sg75
(lp1261
S':'
asbag68
(g89
g70
NtRp1262
(dp1263
g73
(dp1264
sg82
g1249
sg75
(lp1265
g68
(g69
g70
NtRp1266
(dp1267
g73
(dp1268
g81
I4
ssg82
g1262
sg75
(lp1269
g111
asbasbasbag68
(g84
g70
NtRp1270
(dp1271
g73
(dp1272
sg82
g870
sg75
(lp1273
g68
(g89
g70
NtRp1274
(dp1275
g73
(dp1276
g93
g94
ssg82
g1270
sg75
(lp1277
S'is_pypy'
p1278
asbag68
(g89
g70
NtRp1279
(dp1280
g73
(dp1281
g100
g101
ssg82
g1270
sg75
(lp1282
S':'
asbag68
(g89
g70
NtRp1283
(dp1284
g73
(dp1285
sg82
g1270
sg75
(lp1286
g68
(g69
g70
NtRp1287
(dp1288
g73
(dp1289
g81
I4
ssg82
g1283
sg75
(lp1290
g111
asbasbasbag68
(g84
g70
NtRp1291
(dp1292
g73
(dp1293
sg82
g870
sg75
(lp1294
g68
(g89
g70
NtRp1295
(dp1296
g73
(dp1297
g93
g94
ssg82
g1291
sg75
(lp1298
S'local_hosts'
p1299
asbag68
(g89
g70
NtRp1300
(dp1301
g73
(dp1302
g100
g101
ssg82
g1291
sg75
(lp1303
S':'
asbag68
(g89
g70
NtRp1304
(dp1305
g73
(dp1306
sg82
g1291
sg75
(lp1307
g68
(g69
g70
NtRp1308
(dp1309
g73
(dp1310
g81
I4
ssg82
g1304
sg75
(lp1311
g68
(g77
g70
NtRp1312
(dp1313
g73
(dp1314
g81
I3
ssg82
Nsg75
(lp1315
g68
(g84
g70
NtRp1316
(dp1317
g73
(dp1318
sg82
g1312
sg75
(lp1319
g68
(g89
g70
NtRp1320
(dp1321
g73
(dp1322
sg82
g1316
sg75
(lp1323
g68
(g69
g70
NtRp1324
(dp1325
g73
(dp1326
g81
I3
ssg82
g1320
sg75
(lp1327
S'192.168.1.101'
p1328
asbasbasbag68
(g84
g70
NtRp1329
(dp1330
g73
(dp1331
sg82
g1312
sg75
(lp1332
g68
(g89
g70
NtRp1333
(dp1334
g73
(dp1335
sg82
g1329
sg75
(lp1336
g68
(g69
g70
NtRp1337
(dp1338
g73
(dp1339
g81
I3
ssg82
g1333
sg75
(lp1340
S'::1'
p1341
asbasbasbag68
(g84
g70
NtRp1342
(dp1343
g73
(dp1344
sg82
g1312
sg75
(lp1345
g68
(g89
g70
NtRp1346
(dp1347
g73
(dp1348
sg82
g1342
sg75
(lp1349
g68
(g69
g70
NtRp1350
(dp1351
g73
(dp1352
g81
I3
ssg82
g1346
sg75
(lp1353
S'FREESKYC-5359CC'
p1354
asbasbasbag68
(g84
g70
NtRp1355
(dp1356
g73
(dp1357
sg82
g1312
sg75
(lp1358
g68
(g89
g70
NtRp1359
(dp1360
g73
(dp1361
sg82
g1355
sg75
(lp1362
g68
(g69
g70
NtRp1363
(dp1364
g73
(dp1365
g81
I3
ssg82
g1359
sg75
(lp1366
S'::ffff:127.0.0.1'
p1367
asbasbasbag68
(g84
g70
NtRp1368
(dp1369
g73
(dp1370
sg82
g1312
sg75
(lp1371
g68
(g89
g70
NtRp1372
(dp1373
g73
(dp1374
sg82
g1368
sg75
(lp1375
g68
(g69
g70
NtRp1376
(dp1377
g73
(dp1378
g81
I3
ssg82
g1372
sg75
(lp1379
S'127.0.0.1'
p1380
asbasbasbasbasbasbasbag68
(g84
g70
NtRp1381
(dp1382
g73
(dp1383
sg82
g870
sg75
(lp1384
g68
(g89
g70
NtRp1385
(dp1386
g73
(dp1387
g93
g94
ssg82
g1381
sg75
(lp1388
S'path_info'
p1389
asbag68
(g89
g70
NtRp1390
(dp1391
g73
(dp1392
g100
g101
ssg82
g1381
sg75
(lp1393
S':'
asbag68
(g89
g70
NtRp1394
(dp1395
g73
(dp1396
sg82
g1381
sg75
(lp1397
g68
(g69
g70
NtRp1398
(dp1399
g73
(dp1400
g81
I4
ssg82
g1394
sg75
(lp1401
S'/hw4/default/zuoye/1'
p1402
asbasbasbag68
(g84
g70
NtRp1403
(dp1404
g73
(dp1405
sg82
g870
sg75
(lp1406
g68
(g89
g70
NtRp1407
(dp1408
g73
(dp1409
g93
g94
ssg82
g1403
sg75
(lp1410
S'query_string'
p1411
asbag68
(g89
g70
NtRp1412
(dp1413
g73
(dp1414
g100
g101
ssg82
g1403
sg75
(lp1415
S':'
asbag68
(g89
g70
NtRp1416
(dp1417
g73
(dp1418
sg82
g1403
sg75
(lp1419
g68
(g69
g70
NtRp1420
(dp1421
g73
(dp1422
g81
I4
ssg82
g1416
sg75
(lp1423
S''
asbasbasbag68
(g84
g70
NtRp1424
(dp1425
g73
(dp1426
sg82
g870
sg75
(lp1427
g68
(g89
g70
NtRp1428
(dp1429
g73
(dp1430
g93
g94
ssg82
g1424
sg75
(lp1431
S'remote_addr'
p1432
asbag68
(g89
g70
NtRp1433
(dp1434
g73
(dp1435
g100
g101
ssg82
g1424
sg75
(lp1436
S':'
asbag68
(g89
g70
NtRp1437
(dp1438
g73
(dp1439
sg82
g1424
sg75
(lp1440
g68
(g69
g70
NtRp1441
(dp1442
g73
(dp1443
g81
I4
ssg82
g1437
sg75
(lp1444
g235
asbasbasbag68
(g84
g70
NtRp1445
(dp1446
g73
(dp1447
sg82
g870
sg75
(lp1448
g68
(g89
g70
NtRp1449
(dp1450
g73
(dp1451
g93
g94
ssg82
g1445
sg75
(lp1452
S'remote_port'
p1453
asbag68
(g89
g70
NtRp1454
(dp1455
g73
(dp1456
g100
g101
ssg82
g1445
sg75
(lp1457
S':'
asbag68
(g89
g70
NtRp1458
(dp1459
g73
(dp1460
sg82
g1445
sg75
(lp1461
g68
(g69
g70
NtRp1462
(dp1463
g73
(dp1464
g81
I4
ssg82
g1458
sg75
(lp1465
S'2565'
p1466
asbasbasbag68
(g84
g70
NtRp1467
(dp1468
g73
(dp1469
sg82
g870
sg75
(lp1470
g68
(g89
g70
NtRp1471
(dp1472
g73
(dp1473
g93
g94
ssg82
g1467
sg75
(lp1474
S'request_method'
p1475
asbag68
(g89
g70
NtRp1476
(dp1477
g73
(dp1478
g100
g101
ssg82
g1467
sg75
(lp1479
S':'
asbag68
(g89
g70
NtRp1480
(dp1481
g73
(dp1482
sg82
g1467
sg75
(lp1483
g68
(g69
g70
NtRp1484
(dp1485
g73
(dp1486
g81
I4
ssg82
g1480
sg75
(lp1487
S'GET'
p1488
asbasbasbag68
(g84
g70
NtRp1489
(dp1490
g73
(dp1491
sg82
g870
sg75
(lp1492
g68
(g89
g70
NtRp1493
(dp1494
g73
(dp1495
g93
g94
ssg82
g1489
sg75
(lp1496
S'request_uri'
p1497
asbag68
(g89
g70
NtRp1498
(dp1499
g73
(dp1500
g100
g101
ssg82
g1489
sg75
(lp1501
S':'
asbag68
(g89
g70
NtRp1502
(dp1503
g73
(dp1504
sg82
g1489
sg75
(lp1505
g68
(g69
g70
NtRp1506
(dp1507
g73
(dp1508
g81
I4
ssg82
g1502
sg75
(lp1509
g1402
asbasbasbag68
(g84
g70
NtRp1510
(dp1511
g73
(dp1512
sg82
g870
sg75
(lp1513
g68
(g89
g70
NtRp1514
(dp1515
g73
(dp1516
g93
g94
ssg82
g1510
sg75
(lp1517
S'script_name'
p1518
asbag68
(g89
g70
NtRp1519
(dp1520
g73
(dp1521
g100
g101
ssg82
g1510
sg75
(lp1522
S':'
asbag68
(g89
g70
NtRp1523
(dp1524
g73
(dp1525
sg82
g1510
sg75
(lp1526
g68
(g69
g70
NtRp1527
(dp1528
g73
(dp1529
g81
I4
ssg82
g1523
sg75
(lp1530
S''
asbasbasbag68
(g84
g70
NtRp1531
(dp1532
g73
(dp1533
sg82
g870
sg75
(lp1534
g68
(g89
g70
NtRp1535
(dp1536
g73
(dp1537
g93
g94
ssg82
g1531
sg75
(lp1538
S'server_name'
p1539
asbag68
(g89
g70
NtRp1540
(dp1541
g73
(dp1542
g100
g101
ssg82
g1531
sg75
(lp1543
S':'
asbag68
(g89
g70
NtRp1544
(dp1545
g73
(dp1546
sg82
g1531
sg75
(lp1547
g68
(g69
g70
NtRp1548
(dp1549
g73
(dp1550
g81
I4
ssg82
g1544
sg75
(lp1551
S'FREESKYC-5359CC'
p1552
asbasbasbag68
(g84
g70
NtRp1553
(dp1554
g73
(dp1555
sg82
g870
sg75
(lp1556
g68
(g89
g70
NtRp1557
(dp1558
g73
(dp1559
g93
g94
ssg82
g1553
sg75
(lp1560
S'server_port'
p1561
asbag68
(g89
g70
NtRp1562
(dp1563
g73
(dp1564
g100
g101
ssg82
g1553
sg75
(lp1565
S':'
asbag68
(g89
g70
NtRp1566
(dp1567
g73
(dp1568
sg82
g1553
sg75
(lp1569
g68
(g69
g70
NtRp1570
(dp1571
g73
(dp1572
g81
I4
ssg82
g1566
sg75
(lp1573
S'8000'
p1574
asbasbasbag68
(g84
g70
NtRp1575
(dp1576
g73
(dp1577
sg82
g870
sg75
(lp1578
g68
(g89
g70
NtRp1579
(dp1580
g73
(dp1581
g93
g94
ssg82
g1575
sg75
(lp1582
S'server_protocol'
p1583
asbag68
(g89
g70
NtRp1584
(dp1585
g73
(dp1586
g100
g101
ssg82
g1575
sg75
(lp1587
S':'
asbag68
(g89
g70
NtRp1588
(dp1589
g73
(dp1590
sg82
g1575
sg75
(lp1591
g68
(g69
g70
NtRp1592
(dp1593
g73
(dp1594
g81
I4
ssg82
g1588
sg75
(lp1595
S'HTTP/1.1'
p1596
asbasbasbag68
(g84
g70
NtRp1597
(dp1598
g73
(dp1599
sg82
g870
sg75
(lp1600
g68
(g89
g70
NtRp1601
(dp1602
g73
(dp1603
g93
g94
ssg82
g1597
sg75
(lp1604
S'server_software'
p1605
asbag68
(g89
g70
NtRp1606
(dp1607
g73
(dp1608
g100
g101
ssg82
g1597
sg75
(lp1609
S':'
asbag68
(g89
g70
NtRp1610
(dp1611
g73
(dp1612
sg82
g1597
sg75
(lp1613
g68
(g69
g70
NtRp1614
(dp1615
g73
(dp1616
g81
I4
ssg82
g1610
sg75
(lp1617
S'Rocket 1.2.6'
p1618
asbasbasbag68
(g84
g70
NtRp1619
(dp1620
g73
(dp1621
sg82
g870
sg75
(lp1622
g68
(g89
g70
NtRp1623
(dp1624
g73
(dp1625
g93
g94
ssg82
g1619
sg75
(lp1626
S'web2py_path'
p1627
asbag68
(g89
g70
NtRp1628
(dp1629
g73
(dp1630
g100
g101
ssg82
g1619
sg75
(lp1631
S':'
asbag68
(g89
g70
NtRp1632
(dp1633
g73
(dp1634
sg82
g1619
sg75
(lp1635
g68
(g69
g70
NtRp1636
(dp1637
g73
(dp1638
g81
I4
ssg82
g1632
sg75
(lp1639
g917
asbasbasbag68
(g84
g70
NtRp1640
(dp1641
g73
(dp1642
sg82
g870
sg75
(lp1643
g68
(g89
g70
NtRp1644
(dp1645
g73
(dp1646
g93
g94
ssg82
g1640
sg75
(lp1647
S'web2py_version'
p1648
asbag68
(g89
g70
NtRp1649
(dp1650
g73
(dp1651
g100
g101
ssg82
g1640
sg75
(lp1652
S':'
asbag68
(g89
g70
NtRp1653
(dp1654
g73
(dp1655
sg82
g1640
sg75
(lp1656
g68
(g69
g70
NtRp1657
(dp1658
g73
(dp1659
g81
I4
ssg82
g1653
sg75
(lp1660
g68
(g77
g70
NtRp1661
(dp1662
g73
(dp1663
g81
I3
ssg82
Nsg75
(lp1664
g68
(g84
g70
NtRp1665
(dp1666
g73
(dp1667
sg82
g1661
sg75
(lp1668
g68
(g89
g70
NtRp1669
(dp1670
g73
(dp1671
sg82
g1665
sg75
(lp1672
g68
(g69
g70
NtRp1673
(dp1674
g73
(dp1675
g81
I3
ssg82
g1669
sg75
(lp1676
S'2'
asbasbasbag68
(g84
g70
NtRp1677
(dp1678
g73
(dp1679
sg82
g1661
sg75
(lp1680
g68
(g89
g70
NtRp1681
(dp1682
g73
(dp1683
sg82
g1677
sg75
(lp1684
g68
(g69
g70
NtRp1685
(dp1686
g73
(dp1687
g81
I3
ssg82
g1681
sg75
(lp1688
S'3'
asbasbasbag68
(g84
g70
NtRp1689
(dp1690
g73
(dp1691
sg82
g1661
sg75
(lp1692
g68
(g89
g70
NtRp1693
(dp1694
g73
(dp1695
sg82
g1689
sg75
(lp1696
g68
(g69
g70
NtRp1697
(dp1698
g73
(dp1699
g81
I3
ssg82
g1693
sg75
(lp1700
S'2'
asbasbasbag68
(g84
g70
NtRp1701
(dp1702
g73
(dp1703
sg82
g1661
sg75
(lp1704
g68
(g89
g70
NtRp1705
(dp1706
g73
(dp1707
sg82
g1701
sg75
(lp1708
g68
(g69
g70
NtRp1709
(dp1710
g73
(dp1711
g81
I3
ssg82
g1705
sg75
(lp1712
S'datetime.datetime(2012, 12, 17, 15, 3, 30)'
p1713
asbasbasbag68
(g84
g70
NtRp1714
(dp1715
g73
(dp1716
sg82
g1661
sg75
(lp1717
g68
(g89
g70
NtRp1718
(dp1719
g73
(dp1720
sg82
g1714
sg75
(lp1721
g68
(g69
g70
NtRp1722
(dp1723
g73
(dp1724
g81
I3
ssg82
g1718
sg75
(lp1725
S'stable'
p1726
asbasbasbasbasbasbasbag68
(g84
g70
NtRp1727
(dp1728
g73
(dp1729
sg82
g870
sg75
(lp1730
g68
(g89
g70
NtRp1731
(dp1732
g73
(dp1733
g93
g94
ssg82
g1727
sg75
(lp1734
S'wsgi_errors'
p1735
asbag68
(g89
g70
NtRp1736
(dp1737
g73
(dp1738
g100
g101
ssg82
g1727
sg75
(lp1739
S':'
asbag68
(g89
g70
NtRp1740
(dp1741
g73
(dp1742
sg82
g1727
sg75
(lp1743
g68
(g69
g70
NtRp1744
(dp1745
g73
(dp1746
g81
I4
ssg82
g1740
sg75
(lp1747
S"<open file '<stderr>', mode 'w' at 0x00AD50D0>"
p1748
asbasbasbag68
(g84
g70
NtRp1749
(dp1750
g73
(dp1751
sg82
g870
sg75
(lp1752
g68
(g89
g70
NtRp1753
(dp1754
g73
(dp1755
g93
g94
ssg82
g1749
sg75
(lp1756
S'wsgi_file_wrapper'
p1757
asbag68
(g89
g70
NtRp1758
(dp1759
g73
(dp1760
g100
g101
ssg82
g1749
sg75
(lp1761
S':'
asbag68
(g89
g70
NtRp1762
(dp1763
g73
(dp1764
sg82
g1749
sg75
(lp1765
g68
(g69
g70
NtRp1766
(dp1767
g73
(dp1768
g81
I4
ssg82
g1762
sg75
(lp1769
S'<class wsgiref.util.FileWrapper at 0x01736C38>'
p1770
asbasbasbag68
(g84
g70
NtRp1771
(dp1772
g73
(dp1773
sg82
g870
sg75
(lp1774
g68
(g89
g70
NtRp1775
(dp1776
g73
(dp1777
g93
g94
ssg82
g1771
sg75
(lp1778
S'wsgi_input'
p1779
asbag68
(g89
g70
NtRp1780
(dp1781
g73
(dp1782
g100
g101
ssg82
g1771
sg75
(lp1783
S':'
asbag68
(g89
g70
NtRp1784
(dp1785
g73
(dp1786
sg82
g1771
sg75
(lp1787
g68
(g69
g70
NtRp1788
(dp1789
g73
(dp1790
g81
I4
ssg82
g1784
sg75
(lp1791
S'<socket._fileobject object at 0x058C3EB0>'
p1792
asbasbasbag68
(g84
g70
NtRp1793
(dp1794
g73
(dp1795
sg82
g870
sg75
(lp1796
g68
(g89
g70
NtRp1797
(dp1798
g73
(dp1799
g93
g94
ssg82
g1793
sg75
(lp1800
S'wsgi_multiprocess'
p1801
asbag68
(g89
g70
NtRp1802
(dp1803
g73
(dp1804
g100
g101
ssg82
g1793
sg75
(lp1805
S':'
asbag68
(g89
g70
NtRp1806
(dp1807
g73
(dp1808
sg82
g1793
sg75
(lp1809
g68
(g69
g70
NtRp1810
(dp1811
g73
(dp1812
g81
I4
ssg82
g1806
sg75
(lp1813
g111
asbasbasbag68
(g84
g70
NtRp1814
(dp1815
g73
(dp1816
sg82
g870
sg75
(lp1817
g68
(g89
g70
NtRp1818
(dp1819
g73
(dp1820
g93
g94
ssg82
g1814
sg75
(lp1821
S'wsgi_multithread'
p1822
asbag68
(g89
g70
NtRp1823
(dp1824
g73
(dp1825
g100
g101
ssg82
g1814
sg75
(lp1826
S':'
asbag68
(g89
g70
NtRp1827
(dp1828
g73
(dp1829
sg82
g1814
sg75
(lp1830
g68
(g69
g70
NtRp1831
(dp1832
g73
(dp1833
g81
I4
ssg82
g1827
sg75
(lp1834
S'True'
p1835
asbasbasbag68
(g84
g70
NtRp1836
(dp1837
g73
(dp1838
sg82
g870
sg75
(lp1839
g68
(g89
g70
NtRp1840
(dp1841
g73
(dp1842
g93
g94
ssg82
g1836
sg75
(lp1843
S'wsgi_run_once'
p1844
asbag68
(g89
g70
NtRp1845
(dp1846
g73
(dp1847
g100
g101
ssg82
g1836
sg75
(lp1848
S':'
asbag68
(g89
g70
NtRp1849
(dp1850
g73
(dp1851
sg82
g1836
sg75
(lp1852
g68
(g69
g70
NtRp1853
(dp1854
g73
(dp1855
g81
I4
ssg82
g1849
sg75
(lp1856
g111
asbasbasbag68
(g84
g70
NtRp1857
(dp1858
g73
(dp1859
sg82
g870
sg75
(lp1860
g68
(g89
g70
NtRp1861
(dp1862
g73
(dp1863
g93
g94
ssg82
g1857
sg75
(lp1864
S'wsgi_url_scheme'
p1865
asbag68
(g89
g70
NtRp1866
(dp1867
g73
(dp1868
g100
g101
ssg82
g1857
sg75
(lp1869
S':'
asbag68
(g89
g70
NtRp1870
(dp1871
g73
(dp1872
sg82
g1857
sg75
(lp1873
g68
(g69
g70
NtRp1874
(dp1875
g73
(dp1876
g81
I4
ssg82
g1870
sg75
(lp1877
S'http'
p1878
asbasbasbag68
(g84
g70
NtRp1879
(dp1880
g73
(dp1881
sg82
g870
sg75
(lp1882
g68
(g89
g70
NtRp1883
(dp1884
g73
(dp1885
g93
g94
ssg82
g1879
sg75
(lp1886
S'wsgi_version'
p1887
asbag68
(g89
g70
NtRp1888
(dp1889
g73
(dp1890
g100
g101
ssg82
g1879
sg75
(lp1891
S':'
asbag68
(g89
g70
NtRp1892
(dp1893
g73
(dp1894
sg82
g1879
sg75
(lp1895
g68
(g69
g70
NtRp1896
(dp1897
g73
(dp1898
g81
I4
ssg82
g1892
sg75
(lp1899
g68
(g77
g70
NtRp1900
(dp1901
g73
(dp1902
g81
I3
ssg82
Nsg75
(lp1903
g68
(g84
g70
NtRp1904
(dp1905
g73
(dp1906
sg82
g1900
sg75
(lp1907
g68
(g89
g70
NtRp1908
(dp1909
g73
(dp1910
sg82
g1904
sg75
(lp1911
g68
(g69
g70
NtRp1912
(dp1913
g73
(dp1914
g81
I3
ssg82
g1908
sg75
(lp1915
S'1'
asbasbasbag68
(g84
g70
NtRp1916
(dp1917
g73
(dp1918
sg82
g1900
sg75
(lp1919
g68
(g89
g70
NtRp1920
(dp1921
g73
(dp1922
sg82
g1916
sg75
(lp1923
g68
(g69
g70
NtRp1924
(dp1925
g73
(dp1926
g81
I3
ssg82
g1920
sg75
(lp1927
S'0'
asbasbasbasbasbasbasbasbasbasbasbag68
(g84
g70
NtRp1928
(dp1929
g73
(dp1930
sg82
g78
sg75
(lp1931
g68
(g89
g70
NtRp1932
(dp1933
g73
(dp1934
g93
g94
ssg82
g1928
sg75
(lp1935
S'extension'
p1936
asbag68
(g89
g70
NtRp1937
(dp1938
g73
(dp1939
g100
g101
ssg82
g1928
sg75
(lp1940
S':'
asbag68
(g89
g70
NtRp1941
(dp1942
g73
(dp1943
sg82
g1928
sg75
(lp1944
g68
(g69
g70
NtRp1945
(dp1946
g73
(dp1947
g81
I5
ssg82
g1941
sg75
(lp1948
S'html'
p1949
asbasbasbag68
(g84
g70
NtRp1950
(dp1951
g73
(dp1952
sg82
g78
sg75
(lp1953
g68
(g89
g70
NtRp1954
(dp1955
g73
(dp1956
g93
g94
ssg82
g1950
sg75
(lp1957
S'folder'
p1958
asbag68
(g89
g70
NtRp1959
(dp1960
g73
(dp1961
g100
g101
ssg82
g1950
sg75
(lp1962
S':'
asbag68
(g89
g70
NtRp1963
(dp1964
g73
(dp1965
sg82
g1950
sg75
(lp1966
g68
(g69
g70
NtRp1967
(dp1968
g73
(dp1969
g81
I5
ssg82
g1963
sg75
(lp1970
S'C:\\Python27\\web2py\\applications\\hw4\\'
p1971
asbasbasbag68
(g84
g70
NtRp1972
(dp1973
g73
(dp1974
sg82
g78
sg75
(lp1975
g68
(g89
g70
NtRp1976
(dp1977
g73
(dp1978
g93
g94
ssg82
g1972
sg75
(lp1979
S'function'
p1980
asbag68
(g89
g70
NtRp1981
(dp1982
g73
(dp1983
g100
g101
ssg82
g1972
sg75
(lp1984
S':'
asbag68
(g89
g70
NtRp1985
(dp1986
g73
(dp1987
sg82
g1972
sg75
(lp1988
g68
(g69
g70
NtRp1989
(dp1990
g73
(dp1991
g81
I5
ssg82
g1985
sg75
(lp1992
S'zuoye'
p1993
asbasbasbag68
(g84
g70
NtRp1994
(dp1995
g73
(dp1996
sg82
g78
sg75
(lp1997
g68
(g89
g70
NtRp1998
(dp1999
g73
(dp2000
g93
g94
ssg82
g1994
sg75
(lp2001
S'get_vars'
p2002
asbag68
(g89
g70
NtRp2003
(dp2004
g73
(dp2005
g100
g101
ssg82
g1994
sg75
(lp2006
S':'
asbag68
(g89
g70
NtRp2007
(dp2008
g73
(dp2009
sg82
g1994
sg75
(lp2010
g68
(g69
g70
NtRp2011
(dp2012
g73
(dp2013
g81
I5
ssg82
g2007
sg75
(lp2014
g68
(g77
g70
NtRp2015
(dp2016
g73
(dp2017
g81
I4
ssg82
Nsg75
(lp2018
sbasbasbasbag68
(g84
g70
NtRp2019
(dp2020
g73
(dp2021
sg82
g78
sg75
(lp2022
g68
(g89
g70
NtRp2023
(dp2024
g73
(dp2025
g93
g94
ssg82
g2019
sg75
(lp2026
S'global_settings'
p2027
asbag68
(g89
g70
NtRp2028
(dp2029
g73
(dp2030
g100
g101
ssg82
g2019
sg75
(lp2031
S':'
asbag68
(g89
g70
NtRp2032
(dp2033
g73
(dp2034
sg82
g2019
sg75
(lp2035
g68
(g69
g70
NtRp2036
(dp2037
g73
(dp2038
g81
I5
ssg82
g2032
sg75
(lp2039
g68
(g77
g70
NtRp2040
(dp2041
g73
(dp2042
g81
I4
ssg82
Nsg75
(lp2043
g68
(g84
g70
NtRp2044
(dp2045
g73
(dp2046
sg82
g2040
sg75
(lp2047
g68
(g89
g70
NtRp2048
(dp2049
g73
(dp2050
g93
g94
ssg82
g2044
sg75
(lp2051
g882
asbag68
(g89
g70
NtRp2052
(dp2053
g73
(dp2054
g100
g101
ssg82
g2044
sg75
(lp2055
S':'
asbag68
(g89
g70
NtRp2056
(dp2057
g73
(dp2058
sg82
g2044
sg75
(lp2059
g68
(g69
g70
NtRp2060
(dp2061
g73
(dp2062
g81
I4
ssg82
g2056
sg75
(lp2063
S"set(['C:\\\\Python27\\\\web2py\\\\applications\\\\admin\\\\', 'C:\\\\Python27\\\\web2py\\\\applications\\\\welcome\\\\', 'C:\\\\Python27\\\\web2py\\\\applications\\\\hw4\\\\'])"
p2064
asbasbasbag68
(g84
g70
NtRp2065
(dp2066
g73
(dp2067
sg82
g2040
sg75
(lp2068
g68
(g89
g70
NtRp2069
(dp2070
g73
(dp2071
g93
g94
ssg82
g2065
sg75
(lp2072
g904
asbag68
(g89
g70
NtRp2073
(dp2074
g73
(dp2075
g100
g101
ssg82
g2065
sg75
(lp2076
S':'
asbag68
(g89
g70
NtRp2077
(dp2078
g73
(dp2079
sg82
g2065
sg75
(lp2080
g68
(g69
g70
NtRp2081
(dp2082
g73
(dp2083
g81
I4
ssg82
g2077
sg75
(lp2084
g917
asbasbasbag68
(g84
g70
NtRp2085
(dp2086
g73
(dp2087
sg82
g2040
sg75
(lp2088
g68
(g89
g70
NtRp2089
(dp2090
g73
(dp2091
g93
g94
ssg82
g2085
sg75
(lp2092
g926
asbag68
(g89
g70
NtRp2093
(dp2094
g73
(dp2095
g100
g101
ssg82
g2085
sg75
(lp2096
S':'
asbag68
(g89
g70
NtRp2097
(dp2098
g73
(dp2099
sg82
g2085
sg75
(lp2100
g68
(g69
g70
NtRp2101
(dp2102
g73
(dp2103
g81
I4
ssg82
g2097
sg75
(lp2104
g68
(g77
g70
NtRp2105
(dp2106
g73
(dp2107
g81
I3
ssg82
Nsg75
(lp2108
sbasbasbasbag68
(g84
g70
NtRp2109
(dp2110
g73
(dp2111
sg82
g2040
sg75
(lp2112
g68
(g89
g70
NtRp2113
(dp2114
g73
(dp2115
g93
g94
ssg82
g2109
sg75
(lp2116
g951
asbag68
(g89
g70
NtRp2117
(dp2118
g73
(dp2119
g100
g101
ssg82
g2109
sg75
(lp2120
S':'
asbag68
(g89
g70
NtRp2121
(dp2122
g73
(dp2123
sg82
g2109
sg75
(lp2124
g68
(g69
g70
NtRp2125
(dp2126
g73
(dp2127
g81
I4
ssg82
g2121
sg75
(lp2128
S"<Values at 0x17c00f8: {'verbose': False, 'ip': '127.0.0.1', 'with_scheduler': False, 'ips': ['192.168.1.101'], 'shutdown_timeout': 5, 'taskbar': False, 'port': 8000, 'maxthreads': None, 'softcron': False, 'server_name': 'FREESKYC-5359CC', 'bpython': False, 'nogui': False, 'pid_filename': 'httpserver.pid', 'extcron': False, 'runcron': False, 'run_system_tests': False, 'test': None, 'folder': 'C:\\\\Python27\\\\web2py', 'config': '', 'import_models': False, 'winservice': '', 'shell': None, 'run': '', 'log_filename': 'httpserver.log', 'debuglevel': 30, 'args': [''], 'socket_timeout': 5, 'ssl_ca_certificate': None, 'scheduler': None, 'profiler_filename': None, 'ssl_private_key': '', 'scheduler_groups': None, 'password': '<ask>', 'request_queue_size': 5, 'ssl_certificate': '', 'cronjob': False, 'numthreads': None, 'quiet': False, 'interfaces': None, 'minthreads': None, 'timeout': 10, 'plain': False, 'nobanner': False}>"
p2129
asbasbasbag68
(g84
g70
NtRp2130
(dp2131
g73
(dp2132
sg82
g2040
sg75
(lp2133
g68
(g89
g70
NtRp2134
(dp2135
g73
(dp2136
g93
g94
ssg82
g2130
sg75
(lp2137
g973
asbag68
(g89
g70
NtRp2138
(dp2139
g73
(dp2140
g100
g101
ssg82
g2130
sg75
(lp2141
S':'
asbag68
(g89
g70
NtRp2142
(dp2143
g73
(dp2144
sg82
g2130
sg75
(lp2145
g68
(g69
g70
NtRp2146
(dp2147
g73
(dp2148
g81
I4
ssg82
g2142
sg75
(lp2149
S'set([])'
p2150
asbasbasbag68
(g84
g70
NtRp2151
(dp2152
g73
(dp2153
sg82
g2040
sg75
(lp2154
g68
(g89
g70
NtRp2155
(dp2156
g73
(dp2157
g93
g94
ssg82
g2151
sg75
(lp2158
g995
asbag68
(g89
g70
NtRp2159
(dp2160
g73
(dp2161
g100
g101
ssg82
g2151
sg75
(lp2162
S':'
asbag68
(g89
g70
NtRp2163
(dp2164
g73
(dp2165
sg82
g2151
sg75
(lp2166
g68
(g69
g70
NtRp2167
(dp2168
g73
(dp2169
g81
I4
ssg82
g2163
sg75
(lp2170
g111
asbasbasbag68
(g84
g70
NtRp2171
(dp2172
g73
(dp2173
sg82
g2040
sg75
(lp2174
g68
(g89
g70
NtRp2175
(dp2176
g73
(dp2177
g93
g94
ssg82
g2171
sg75
(lp2178
g1016
asbag68
(g89
g70
NtRp2179
(dp2180
g73
(dp2181
g100
g101
ssg82
g2171
sg75
(lp2182
S':'
asbag68
(g89
g70
NtRp2183
(dp2184
g73
(dp2185
sg82
g2171
sg75
(lp2186
g68
(g69
g70
NtRp2187
(dp2188
g73
(dp2189
g81
I4
ssg82
g2183
sg75
(lp2190
g1029
asbasbasbag68
(g84
g70
NtRp2191
(dp2192
g73
(dp2193
sg82
g2040
sg75
(lp2194
g68
(g89
g70
NtRp2195
(dp2196
g73
(dp2197
g93
g94
ssg82
g2191
sg75
(lp2198
g1257
asbag68
(g89
g70
NtRp2199
(dp2200
g73
(dp2201
g100
g101
ssg82
g2191
sg75
(lp2202
S':'
asbag68
(g89
g70
NtRp2203
(dp2204
g73
(dp2205
sg82
g2191
sg75
(lp2206
g68
(g69
g70
NtRp2207
(dp2208
g73
(dp2209
g81
I4
ssg82
g2203
sg75
(lp2210
g111
asbasbasbag68
(g84
g70
NtRp2211
(dp2212
g73
(dp2213
sg82
g2040
sg75
(lp2214
g68
(g89
g70
NtRp2215
(dp2216
g73
(dp2217
g93
g94
ssg82
g2211
sg75
(lp2218
g1278
asbag68
(g89
g70
NtRp2219
(dp2220
g73
(dp2221
g100
g101
ssg82
g2211
sg75
(lp2222
S':'
asbag68
(g89
g70
NtRp2223
(dp2224
g73
(dp2225
sg82
g2211
sg75
(lp2226
g68
(g69
g70
NtRp2227
(dp2228
g73
(dp2229
g81
I4
ssg82
g2223
sg75
(lp2230
g111
asbasbasbag68
(g84
g70
NtRp2231
(dp2232
g73
(dp2233
sg82
g2040
sg75
(lp2234
g68
(g89
g70
NtRp2235
(dp2236
g73
(dp2237
g93
g94
ssg82
g2231
sg75
(lp2238
g1299
asbag68
(g89
g70
NtRp2239
(dp2240
g73
(dp2241
g100
g101
ssg82
g2231
sg75
(lp2242
S':'
asbag68
(g89
g70
NtRp2243
(dp2244
g73
(dp2245
sg82
g2231
sg75
(lp2246
g68
(g69
g70
NtRp2247
(dp2248
g73
(dp2249
g81
I4
ssg82
g2243
sg75
(lp2250
g68
(g77
g70
NtRp2251
(dp2252
g73
(dp2253
g81
I3
ssg82
Nsg75
(lp2254
g68
(g84
g70
NtRp2255
(dp2256
g73
(dp2257
sg82
g2251
sg75
(lp2258
g68
(g89
g70
NtRp2259
(dp2260
g73
(dp2261
sg82
g2255
sg75
(lp2262
g68
(g69
g70
NtRp2263
(dp2264
g73
(dp2265
g81
I3
ssg82
g2259
sg75
(lp2266
g1328
asbasbasbag68
(g84
g70
NtRp2267
(dp2268
g73
(dp2269
sg82
g2251
sg75
(lp2270
g68
(g89
g70
NtRp2271
(dp2272
g73
(dp2273
sg82
g2267
sg75
(lp2274
g68
(g69
g70
NtRp2275
(dp2276
g73
(dp2277
g81
I3
ssg82
g2271
sg75
(lp2278
g1341
asbasbasbag68
(g84
g70
NtRp2279
(dp2280
g73
(dp2281
sg82
g2251
sg75
(lp2282
g68
(g89
g70
NtRp2283
(dp2284
g73
(dp2285
sg82
g2279
sg75
(lp2286
g68
(g69
g70
NtRp2287
(dp2288
g73
(dp2289
g81
I3
ssg82
g2283
sg75
(lp2290
g1354
asbasbasbag68
(g84
g70
NtRp2291
(dp2292
g73
(dp2293
sg82
g2251
sg75
(lp2294
g68
(g89
g70
NtRp2295
(dp2296
g73
(dp2297
sg82
g2291
sg75
(lp2298
g68
(g69
g70
NtRp2299
(dp2300
g73
(dp2301
g81
I3
ssg82
g2295
sg75
(lp2302
g1367
asbasbasbag68
(g84
g70
NtRp2303
(dp2304
g73
(dp2305
sg82
g2251
sg75
(lp2306
g68
(g89
g70
NtRp2307
(dp2308
g73
(dp2309
sg82
g2303
sg75
(lp2310
g68
(g69
g70
NtRp2311
(dp2312
g73
(dp2313
g81
I3
ssg82
g2307
sg75
(lp2314
g1380
asbasbasbasbasbasbasbag68
(g84
g70
NtRp2315
(dp2316
g73
(dp2317
sg82
g2040
sg75
(lp2318
g68
(g89
g70
NtRp2319
(dp2320
g73
(dp2321
g93
g94
ssg82
g2315
sg75
(lp2322
g1648
asbag68
(g89
g70
NtRp2323
(dp2324
g73
(dp2325
g100
g101
ssg82
g2315
sg75
(lp2326
S':'
asbag68
(g89
g70
NtRp2327
(dp2328
g73
(dp2329
sg82
g2315
sg75
(lp2330
g68
(g69
g70
NtRp2331
(dp2332
g73
(dp2333
g81
I4
ssg82
g2327
sg75
(lp2334
g68
(g77
g70
NtRp2335
(dp2336
g73
(dp2337
g81
I3
ssg82
Nsg75
(lp2338
g68
(g84
g70
NtRp2339
(dp2340
g73
(dp2341
sg82
g2335
sg75
(lp2342
g68
(g89
g70
NtRp2343
(dp2344
g73
(dp2345
sg82
g2339
sg75
(lp2346
g68
(g69
g70
NtRp2347
(dp2348
g73
(dp2349
g81
I3
ssg82
g2343
sg75
(lp2350
S'2'
asbasbasbag68
(g84
g70
NtRp2351
(dp2352
g73
(dp2353
sg82
g2335
sg75
(lp2354
g68
(g89
g70
NtRp2355
(dp2356
g73
(dp2357
sg82
g2351
sg75
(lp2358
g68
(g69
g70
NtRp2359
(dp2360
g73
(dp2361
g81
I3
ssg82
g2355
sg75
(lp2362
S'3'
asbasbasbag68
(g84
g70
NtRp2363
(dp2364
g73
(dp2365
sg82
g2335
sg75
(lp2366
g68
(g89
g70
NtRp2367
(dp2368
g73
(dp2369
sg82
g2363
sg75
(lp2370
g68
(g69
g70
NtRp2371
(dp2372
g73
(dp2373
g81
I3
ssg82
g2367
sg75
(lp2374
S'2'
asbasbasbag68
(g84
g70
NtRp2375
(dp2376
g73
(dp2377
sg82
g2335
sg75
(lp2378
g68
(g89
g70
NtRp2379
(dp2380
g73
(dp2381
sg82
g2375
sg75
(lp2382
g68
(g69
g70
NtRp2383
(dp2384
g73
(dp2385
g81
I3
ssg82
g2379
sg75
(lp2386
S'datetime.datetime(2012, 12, 17, 15, 3, 30)'
p2387
asbasbasbag68
(g84
g70
NtRp2388
(dp2389
g73
(dp2390
sg82
g2335
sg75
(lp2391
g68
(g89
g70
NtRp2392
(dp2393
g73
(dp2394
sg82
g2388
sg75
(lp2395
g68
(g69
g70
NtRp2396
(dp2397
g73
(dp2398
g81
I3
ssg82
g2392
sg75
(lp2399
g1726
asbasbasbasbasbasbasbasbasbasbasbag68
(g84
g70
NtRp2400
(dp2401
g73
(dp2402
sg82
g78
sg75
(lp2403
g68
(g89
g70
NtRp2404
(dp2405
g73
(dp2406
g93
g94
ssg82
g2400
sg75
(lp2407
S'is_https'
p2408
asbag68
(g89
g70
NtRp2409
(dp2410
g73
(dp2411
g100
g101
ssg82
g2400
sg75
(lp2412
S':'
asbag68
(g89
g70
NtRp2413
(dp2414
g73
(dp2415
sg82
g2400
sg75
(lp2416
g68
(g69
g70
NtRp2417
(dp2418
g73
(dp2419
g81
I5
ssg82
g2413
sg75
(lp2420
g111
asbasbasbag68
(g84
g70
NtRp2421
(dp2422
g73
(dp2423
sg82
g78
sg75
(lp2424
g68
(g89
g70
NtRp2425
(dp2426
g73
(dp2427
g93
g94
ssg82
g2421
sg75
(lp2428
S'is_local'
p2429
asbag68
(g89
g70
NtRp2430
(dp2431
g73
(dp2432
g100
g101
ssg82
g2421
sg75
(lp2433
S':'
asbag68
(g89
g70
NtRp2434
(dp2435
g73
(dp2436
sg82
g2421
sg75
(lp2437
g68
(g69
g70
NtRp2438
(dp2439
g73
(dp2440
g81
I5
ssg82
g2434
sg75
(lp2441
g1835
asbasbasbag68
(g84
g70
NtRp2442
(dp2443
g73
(dp2444
sg82
g78
sg75
(lp2445
g68
(g89
g70
NtRp2446
(dp2447
g73
(dp2448
g93
g94
ssg82
g2442
sg75
(lp2449
S'is_restful'
p2450
asbag68
(g89
g70
NtRp2451
(dp2452
g73
(dp2453
g100
g101
ssg82
g2442
sg75
(lp2454
S':'
asbag68
(g89
g70
NtRp2455
(dp2456
g73
(dp2457
sg82
g2442
sg75
(lp2458
g68
(g69
g70
NtRp2459
(dp2460
g73
(dp2461
g81
I5
ssg82
g2455
sg75
(lp2462
g111
asbasbasbag68
(g84
g70
NtRp2463
(dp2464
g73
(dp2465
sg82
g78
sg75
(lp2466
g68
(g89
g70
NtRp2467
(dp2468
g73
(dp2469
g93
g94
ssg82
g2463
sg75
(lp2470
S'now'
p2471
asbag68
(g89
g70
NtRp2472
(dp2473
g73
(dp2474
g100
g101
ssg82
g2463
sg75
(lp2475
S':'
asbag68
(g89
g70
NtRp2476
(dp2477
g73
(dp2478
sg82
g2463
sg75
(lp2479
g68
(g69
g70
NtRp2480
(dp2481
g73
(dp2482
g81
I5
ssg82
g2476
sg75
(lp2483
S'datetime.datetime(2013, 8, 29, 20, 15, 46, 390000)'
p2484
asbasbasbag68
(g84
g70
NtRp2485
(dp2486
g73
(dp2487
sg82
g78
sg75
(lp2488
g68
(g89
g70
NtRp2489
(dp2490
g73
(dp2491
g93
g94
ssg82
g2485
sg75
(lp2492
S'post_vars'
p2493
asbag68
(g89
g70
NtRp2494
(dp2495
g73
(dp2496
g100
g101
ssg82
g2485
sg75
(lp2497
S':'
asbag68
(g89
g70
NtRp2498
(dp2499
g73
(dp2500
sg82
g2485
sg75
(lp2501
g68
(g69
g70
NtRp2502
(dp2503
g73
(dp2504
g81
I5
ssg82
g2498
sg75
(lp2505
g68
(g77
g70
NtRp2506
(dp2507
g73
(dp2508
g81
I4
ssg82
Nsg75
(lp2509
sbasbasbasbag68
(g84
g70
NtRp2510
(dp2511
g73
(dp2512
sg82
g78
sg75
(lp2513
g68
(g89
g70
NtRp2514
(dp2515
g73
(dp2516
g93
g94
ssg82
g2510
sg75
(lp2517
S'raw_args'
p2518
asbag68
(g89
g70
NtRp2519
(dp2520
g73
(dp2521
g100
g101
ssg82
g2510
sg75
(lp2522
S':'
asbag68
(g89
g70
NtRp2523
(dp2524
g73
(dp2525
sg82
g2510
sg75
(lp2526
g68
(g69
g70
NtRp2527
(dp2528
g73
(dp2529
g81
I5
ssg82
g2523
sg75
(lp2530
S'1'
asbasbasbag68
(g84
g70
NtRp2531
(dp2532
g73
(dp2533
sg82
g78
sg75
(lp2534
g68
(g89
g70
NtRp2535
(dp2536
g73
(dp2537
g93
g94
ssg82
g2531
sg75
(lp2538
S'raw_extension'
p2539
asbag68
(g89
g70
NtRp2540
(dp2541
g73
(dp2542
g100
g101
ssg82
g2531
sg75
(lp2543
S':'
asbag68
(g89
g70
NtRp2544
(dp2545
g73
(dp2546
sg82
g2531
sg75
(lp2547
g68
(g69
g70
NtRp2548
(dp2549
g73
(dp2550
g81
I5
ssg82
g2544
sg75
(lp2551
S'None'
p2552
asbasbasbag68
(g84
g70
NtRp2553
(dp2554
g73
(dp2555
sg82
g78
sg75
(lp2556
g68
(g89
g70
NtRp2557
(dp2558
g73
(dp2559
g93
g94
ssg82
g2553
sg75
(lp2560
S'url'
p2561
asbag68
(g89
g70
NtRp2562
(dp2563
g73
(dp2564
g100
g101
ssg82
g2553
sg75
(lp2565
S':'
asbag68
(g89
g70
NtRp2566
(dp2567
g73
(dp2568
sg82
g2553
sg75
(lp2569
g68
(g69
g70
NtRp2570
(dp2571
g73
(dp2572
g81
I5
ssg82
g2566
sg75
(lp2573
g1402
asbasbasbag68
(g84
g70
NtRp2574
(dp2575
g73
(dp2576
sg82
g78
sg75
(lp2577
g68
(g89
g70
NtRp2578
(dp2579
g73
(dp2580
g93
g94
ssg82
g2574
sg75
(lp2581
S'utcnow'
p2582
asbag68
(g89
g70
NtRp2583
(dp2584
g73
(dp2585
g100
g101
ssg82
g2574
sg75
(lp2586
S':'
asbag68
(g89
g70
NtRp2587
(dp2588
g73
(dp2589
sg82
g2574
sg75
(lp2590
g68
(g69
g70
NtRp2591
(dp2592
g73
(dp2593
g81
I5
ssg82
g2587
sg75
(lp2594
S'datetime.datetime(2013, 8, 29, 12, 15, 46, 390000)'
p2595
asbasbasbag68
(g84
g70
NtRp2596
(dp2597
g73
(dp2598
sg82
g78
sg75
(lp2599
g68
(g89
g70
NtRp2600
(dp2601
g73
(dp2602
g93
g94
ssg82
g2596
sg75
(lp2603
S'uuid'
p2604
asbag68
(g89
g70
NtRp2605
(dp2606
g73
(dp2607
g100
g101
ssg82
g2596
sg75
(lp2608
S':'
asbag68
(g89
g70
NtRp2609
(dp2610
g73
(dp2611
sg82
g2596
sg75
(lp2612
g68
(g69
g70
NtRp2613
(dp2614
g73
(dp2615
g81
I5
ssg82
g2609
sg75
(lp2616
S'hw4/127.0.0.1.2013-08-29.20-15-46.aa54e5fc-be1a-43e3-8b36-a0a8d048f6ea'
p2617
asbasbasbag68
(g84
g70
NtRp2618
(dp2619
g73
(dp2620
sg82
g78
sg75
(lp2621
g68
(g89
g70
NtRp2622
(dp2623
g73
(dp2624
g93
g94
ssg82
g2618
sg75
(lp2625
S'vars'
p2626
asbag68
(g89
g70
NtRp2627
(dp2628
g73
(dp2629
g100
g101
ssg82
g2618
sg75
(lp2630
S':'
asbag68
(g89
g70
NtRp2631
(dp2632
g73
(dp2633
sg82
g2618
sg75
(lp2634
g68
(g69
g70
NtRp2635
(dp2636
g73
(dp2637
g81
I5
ssg82
g2631
sg75
(lp2638
g68
(g77
g70
NtRp2639
(dp2640
g73
(dp2641
g81
I4
ssg82
Nsg75
(lp2642
sbasbasbasbag68
(g84
g70
NtRp2643
(dp2644
g73
(dp2645
sg82
g78
sg75
(lp2646
g68
(g89
g70
NtRp2647
(dp2648
g73
(dp2649
g93
g94
ssg82
g2643
sg75
(lp2650
S'wsgi'
p2651
asbag68
(g89
g70
NtRp2652
(dp2653
g73
(dp2654
g100
g101
ssg82
g2643
sg75
(lp2655
S':'
asbag68
(g89
g70
NtRp2656
(dp2657
g73
(dp2658
sg82
g2643
sg75
(lp2659
g68
(g69
g70
NtRp2660
(dp2661
g73
(dp2662
g81
I5
ssg82
g2656
sg75
(lp2663
g68
(g77
g70
NtRp2664
(dp2665
g73
(dp2666
g81
I4
ssg82
Nsg75
(lp2667
g68
(g84
g70
NtRp2668
(dp2669
g73
(dp2670
sg82
g2664
sg75
(lp2671
g68
(g89
g70
NtRp2672
(dp2673
g73
(dp2674
g93
g94
ssg82
g2668
sg75
(lp2675
S'environ'
p2676
asbag68
(g89
g70
NtRp2677
(dp2678
g73
(dp2679
g100
g101
ssg82
g2668
sg75
(lp2680
S':'
asbag68
(g89
g70
NtRp2681
(dp2682
g73
(dp2683
sg82
g2668
sg75
(lp2684
g68
(g69
g70
NtRp2685
(dp2686
g73
(dp2687
g81
I4
ssg82
g2681
sg75
(lp2688
g68
(g77
g70
NtRp2689
(dp2690
g73
(dp2691
g81
I3
ssg82
Nsg75
(lp2692
g68
(g84
g70
NtRp2693
(dp2694
g73
(dp2695
sg82
g2689
sg75
(lp2696
g68
(g89
g70
NtRp2697
(dp2698
g73
(dp2699
g93
g94
ssg82
g2693
sg75
(lp2700
S'HTTP_ACCEPT'
p2701
asbag68
(g89
g70
NtRp2702
(dp2703
g73
(dp2704
g100
g101
ssg82
g2693
sg75
(lp2705
S':'
asbag68
(g89
g70
NtRp2706
(dp2707
g73
(dp2708
sg82
g2693
sg75
(lp2709
g68
(g69
g70
NtRp2710
(dp2711
g73
(dp2712
g81
I3
ssg82
g2706
sg75
(lp2713
g1051
asbasbasbag68
(g84
g70
NtRp2714
(dp2715
g73
(dp2716
sg82
g2689
sg75
(lp2717
g68
(g89
g70
NtRp2718
(dp2719
g73
(dp2720
g93
g94
ssg82
g2714
sg75
(lp2721
S'HTTP_ACCEPT_ENCODING'
p2722
asbag68
(g89
g70
NtRp2723
(dp2724
g73
(dp2725
g100
g101
ssg82
g2714
sg75
(lp2726
S':'
asbag68
(g89
g70
NtRp2727
(dp2728
g73
(dp2729
sg82
g2714
sg75
(lp2730
g68
(g69
g70
NtRp2731
(dp2732
g73
(dp2733
g81
I3
ssg82
g2727
sg75
(lp2734
g1073
asbasbasbag68
(g84
g70
NtRp2735
(dp2736
g73
(dp2737
sg82
g2689
sg75
(lp2738
g68
(g89
g70
NtRp2739
(dp2740
g73
(dp2741
g93
g94
ssg82
g2735
sg75
(lp2742
S'HTTP_ACCEPT_LANGUAGE'
p2743
asbag68
(g89
g70
NtRp2744
(dp2745
g73
(dp2746
g100
g101
ssg82
g2735
sg75
(lp2747
S':'
asbag68
(g89
g70
NtRp2748
(dp2749
g73
(dp2750
sg82
g2735
sg75
(lp2751
g68
(g69
g70
NtRp2752
(dp2753
g73
(dp2754
g81
I3
ssg82
g2748
sg75
(lp2755
g1095
asbasbasbag68
(g84
g70
NtRp2756
(dp2757
g73
(dp2758
sg82
g2689
sg75
(lp2759
g68
(g89
g70
NtRp2760
(dp2761
g73
(dp2762
g93
g94
ssg82
g2756
sg75
(lp2763
S'HTTP_CACHE_CONTROL'
p2764
asbag68
(g89
g70
NtRp2765
(dp2766
g73
(dp2767
g100
g101
ssg82
g2756
sg75
(lp2768
S':'
asbag68
(g89
g70
NtRp2769
(dp2770
g73
(dp2771
sg82
g2756
sg75
(lp2772
g68
(g69
g70
NtRp2773
(dp2774
g73
(dp2775
g81
I3
ssg82
g2769
sg75
(lp2776
g1117
asbasbasbag68
(g84
g70
NtRp2777
(dp2778
g73
(dp2779
sg82
g2689
sg75
(lp2780
g68
(g89
g70
NtRp2781
(dp2782
g73
(dp2783
g93
g94
ssg82
g2777
sg75
(lp2784
S'HTTP_CONNECTION'
p2785
asbag68
(g89
g70
NtRp2786
(dp2787
g73
(dp2788
g100
g101
ssg82
g2777
sg75
(lp2789
S':'
asbag68
(g89
g70
NtRp2790
(dp2791
g73
(dp2792
sg82
g2777
sg75
(lp2793
g68
(g69
g70
NtRp2794
(dp2795
g73
(dp2796
g81
I3
ssg82
g2790
sg75
(lp2797
g1139
asbasbasbag68
(g84
g70
NtRp2798
(dp2799
g73
(dp2800
sg82
g2689
sg75
(lp2801
g68
(g89
g70
NtRp2802
(dp2803
g73
(dp2804
g93
g94
ssg82
g2798
sg75
(lp2805
S'HTTP_COOKIE'
p2806
asbag68
(g89
g70
NtRp2807
(dp2808
g73
(dp2809
g100
g101
ssg82
g2798
sg75
(lp2810
S':'
asbag68
(g89
g70
NtRp2811
(dp2812
g73
(dp2813
sg82
g2798
sg75
(lp2814
g68
(g69
g70
NtRp2815
(dp2816
g73
(dp2817
g81
I3
ssg82
g2811
sg75
(lp2818
g1161
asbasbasbag68
(g84
g70
NtRp2819
(dp2820
g73
(dp2821
sg82
g2689
sg75
(lp2822
g68
(g89
g70
NtRp2823
(dp2824
g73
(dp2825
g93
g94
ssg82
g2819
sg75
(lp2826
S'HTTP_DNT'
p2827
asbag68
(g89
g70
NtRp2828
(dp2829
g73
(dp2830
g100
g101
ssg82
g2819
sg75
(lp2831
S':'
asbag68
(g89
g70
NtRp2832
(dp2833
g73
(dp2834
sg82
g2819
sg75
(lp2835
g68
(g69
g70
NtRp2836
(dp2837
g73
(dp2838
g81
I3
ssg82
g2832
sg75
(lp2839
S'1'
asbasbasbag68
(g84
g70
NtRp2840
(dp2841
g73
(dp2842
sg82
g2689
sg75
(lp2843
g68
(g89
g70
NtRp2844
(dp2845
g73
(dp2846
g93
g94
ssg82
g2840
sg75
(lp2847
S'HTTP_HOST'
p2848
asbag68
(g89
g70
NtRp2849
(dp2850
g73
(dp2851
g100
g101
ssg82
g2840
sg75
(lp2852
S':'
asbag68
(g89
g70
NtRp2853
(dp2854
g73
(dp2855
sg82
g2840
sg75
(lp2856
g68
(g69
g70
NtRp2857
(dp2858
g73
(dp2859
g81
I3
ssg82
g2853
sg75
(lp2860
g1204
asbasbasbag68
(g84
g70
NtRp2861
(dp2862
g73
(dp2863
sg82
g2689
sg75
(lp2864
g68
(g89
g70
NtRp2865
(dp2866
g73
(dp2867
g93
g94
ssg82
g2861
sg75
(lp2868
S'HTTP_REFERER'
p2869
asbag68
(g89
g70
NtRp2870
(dp2871
g73
(dp2872
g100
g101
ssg82
g2861
sg75
(lp2873
S':'
asbag68
(g89
g70
NtRp2874
(dp2875
g73
(dp2876
sg82
g2861
sg75
(lp2877
g68
(g69
g70
NtRp2878
(dp2879
g73
(dp2880
g81
I3
ssg82
g2874
sg75
(lp2881
g1226
asbasbasbag68
(g84
g70
NtRp2882
(dp2883
g73
(dp2884
sg82
g2689
sg75
(lp2885
g68
(g89
g70
NtRp2886
(dp2887
g73
(dp2888
g93
g94
ssg82
g2882
sg75
(lp2889
S'HTTP_USER_AGENT'
p2890
asbag68
(g89
g70
NtRp2891
(dp2892
g73
(dp2893
g100
g101
ssg82
g2882
sg75
(lp2894
S':'
asbag68
(g89
g70
NtRp2895
(dp2896
g73
(dp2897
sg82
g2882
sg75
(lp2898
g68
(g69
g70
NtRp2899
(dp2900
g73
(dp2901
g81
I3
ssg82
g2895
sg75
(lp2902
g1248
asbasbasbag68
(g84
g70
NtRp2903
(dp2904
g73
(dp2905
sg82
g2689
sg75
(lp2906
g68
(g89
g70
NtRp2907
(dp2908
g73
(dp2909
g93
g94
ssg82
g2903
sg75
(lp2910
S'PATH_INFO'
p2911
asbag68
(g89
g70
NtRp2912
(dp2913
g73
(dp2914
g100
g101
ssg82
g2903
sg75
(lp2915
S':'
asbag68
(g89
g70
NtRp2916
(dp2917
g73
(dp2918
sg82
g2903
sg75
(lp2919
g68
(g69
g70
NtRp2920
(dp2921
g73
(dp2922
g81
I3
ssg82
g2916
sg75
(lp2923
g1402
asbasbasbag68
(g84
g70
NtRp2924
(dp2925
g73
(dp2926
sg82
g2689
sg75
(lp2927
g68
(g89
g70
NtRp2928
(dp2929
g73
(dp2930
g93
g94
ssg82
g2924
sg75
(lp2931
S'QUERY_STRING'
p2932
asbag68
(g89
g70
NtRp2933
(dp2934
g73
(dp2935
g100
g101
ssg82
g2924
sg75
(lp2936
S':'
asbag68
(g89
g70
NtRp2937
(dp2938
g73
(dp2939
sg82
g2924
sg75
(lp2940
g68
(g69
g70
NtRp2941
(dp2942
g73
(dp2943
g81
I3
ssg82
g2937
sg75
(lp2944
S''
asbasbasbag68
(g84
g70
NtRp2945
(dp2946
g73
(dp2947
sg82
g2689
sg75
(lp2948
g68
(g89
g70
NtRp2949
(dp2950
g73
(dp2951
g93
g94
ssg82
g2945
sg75
(lp2952
S'REMOTE_ADDR'
p2953
asbag68
(g89
g70
NtRp2954
(dp2955
g73
(dp2956
g100
g101
ssg82
g2945
sg75
(lp2957
S':'
asbag68
(g89
g70
NtRp2958
(dp2959
g73
(dp2960
sg82
g2945
sg75
(lp2961
g68
(g69
g70
NtRp2962
(dp2963
g73
(dp2964
g81
I3
ssg82
g2958
sg75
(lp2965
g235
asbasbasbag68
(g84
g70
NtRp2966
(dp2967
g73
(dp2968
sg82
g2689
sg75
(lp2969
g68
(g89
g70
NtRp2970
(dp2971
g73
(dp2972
g93
g94
ssg82
g2966
sg75
(lp2973
S'REMOTE_PORT'
p2974
asbag68
(g89
g70
NtRp2975
(dp2976
g73
(dp2977
g100
g101
ssg82
g2966
sg75
(lp2978
S':'
asbag68
(g89
g70
NtRp2979
(dp2980
g73
(dp2981
sg82
g2966
sg75
(lp2982
g68
(g69
g70
NtRp2983
(dp2984
g73
(dp2985
g81
I3
ssg82
g2979
sg75
(lp2986
g1466
asbasbasbag68
(g84
g70
NtRp2987
(dp2988
g73
(dp2989
sg82
g2689
sg75
(lp2990
g68
(g89
g70
NtRp2991
(dp2992
g73
(dp2993
g93
g94
ssg82
g2987
sg75
(lp2994
S'REQUEST_METHOD'
p2995
asbag68
(g89
g70
NtRp2996
(dp2997
g73
(dp2998
g100
g101
ssg82
g2987
sg75
(lp2999
S':'
asbag68
(g89
g70
NtRp3000
(dp3001
g73
(dp3002
sg82
g2987
sg75
(lp3003
g68
(g69
g70
NtRp3004
(dp3005
g73
(dp3006
g81
I3
ssg82
g3000
sg75
(lp3007
g1488
asbasbasbag68
(g84
g70
NtRp3008
(dp3009
g73
(dp3010
sg82
g2689
sg75
(lp3011
g68
(g89
g70
NtRp3012
(dp3013
g73
(dp3014
g93
g94
ssg82
g3008
sg75
(lp3015
S'REQUEST_URI'
p3016
asbag68
(g89
g70
NtRp3017
(dp3018
g73
(dp3019
g100
g101
ssg82
g3008
sg75
(lp3020
S':'
asbag68
(g89
g70
NtRp3021
(dp3022
g73
(dp3023
sg82
g3008
sg75
(lp3024
g68
(g69
g70
NtRp3025
(dp3026
g73
(dp3027
g81
I3
ssg82
g3021
sg75
(lp3028
g1402
asbasbasbag68
(g84
g70
NtRp3029
(dp3030
g73
(dp3031
sg82
g2689
sg75
(lp3032
g68
(g89
g70
NtRp3033
(dp3034
g73
(dp3035
g93
g94
ssg82
g3029
sg75
(lp3036
S'SCRIPT_NAME'
p3037
asbag68
(g89
g70
NtRp3038
(dp3039
g73
(dp3040
g100
g101
ssg82
g3029
sg75
(lp3041
S':'
asbag68
(g89
g70
NtRp3042
(dp3043
g73
(dp3044
sg82
g3029
sg75
(lp3045
g68
(g69
g70
NtRp3046
(dp3047
g73
(dp3048
g81
I3
ssg82
g3042
sg75
(lp3049
S''
asbasbasbag68
(g84
g70
NtRp3050
(dp3051
g73
(dp3052
sg82
g2689
sg75
(lp3053
g68
(g89
g70
NtRp3054
(dp3055
g73
(dp3056
g93
g94
ssg82
g3050
sg75
(lp3057
S'SERVER_NAME'
p3058
asbag68
(g89
g70
NtRp3059
(dp3060
g73
(dp3061
g100
g101
ssg82
g3050
sg75
(lp3062
S':'
asbag68
(g89
g70
NtRp3063
(dp3064
g73
(dp3065
sg82
g3050
sg75
(lp3066
g68
(g69
g70
NtRp3067
(dp3068
g73
(dp3069
g81
I3
ssg82
g3063
sg75
(lp3070
g1552
asbasbasbag68
(g84
g70
NtRp3071
(dp3072
g73
(dp3073
sg82
g2689
sg75
(lp3074
g68
(g89
g70
NtRp3075
(dp3076
g73
(dp3077
g93
g94
ssg82
g3071
sg75
(lp3078
S'SERVER_PORT'
p3079
asbag68
(g89
g70
NtRp3080
(dp3081
g73
(dp3082
g100
g101
ssg82
g3071
sg75
(lp3083
S':'
asbag68
(g89
g70
NtRp3084
(dp3085
g73
(dp3086
sg82
g3071
sg75
(lp3087
g68
(g69
g70
NtRp3088
(dp3089
g73
(dp3090
g81
I3
ssg82
g3084
sg75
(lp3091
g1574
asbasbasbag68
(g84
g70
NtRp3092
(dp3093
g73
(dp3094
sg82
g2689
sg75
(lp3095
g68
(g89
g70
NtRp3096
(dp3097
g73
(dp3098
g93
g94
ssg82
g3092
sg75
(lp3099
S'SERVER_PROTOCOL'
p3100
asbag68
(g89
g70
NtRp3101
(dp3102
g73
(dp3103
g100
g101
ssg82
g3092
sg75
(lp3104
S':'
asbag68
(g89
g70
NtRp3105
(dp3106
g73
(dp3107
sg82
g3092
sg75
(lp3108
g68
(g69
g70
NtRp3109
(dp3110
g73
(dp3111
g81
I3
ssg82
g3105
sg75
(lp3112
g1596
asbasbasbag68
(g84
g70
NtRp3113
(dp3114
g73
(dp3115
sg82
g2689
sg75
(lp3116
g68
(g89
g70
NtRp3117
(dp3118
g73
(dp3119
g93
g94
ssg82
g3113
sg75
(lp3120
S'SERVER_SOFTWARE'
p3121
asbag68
(g89
g70
NtRp3122
(dp3123
g73
(dp3124
g100
g101
ssg82
g3113
sg75
(lp3125
S':'
asbag68
(g89
g70
NtRp3126
(dp3127
g73
(dp3128
sg82
g3113
sg75
(lp3129
g68
(g69
g70
NtRp3130
(dp3131
g73
(dp3132
g81
I3
ssg82
g3126
sg75
(lp3133
g1618
asbasbasbag68
(g84
g70
NtRp3134
(dp3135
g73
(dp3136
sg82
g2689
sg75
(lp3137
g68
(g89
g70
NtRp3138
(dp3139
g73
(dp3140
g93
g94
ssg82
g3134
sg75
(lp3141
S'wsgi.errors'
p3142
asbag68
(g89
g70
NtRp3143
(dp3144
g73
(dp3145
g100
g101
ssg82
g3134
sg75
(lp3146
S':'
asbag68
(g89
g70
NtRp3147
(dp3148
g73
(dp3149
sg82
g3134
sg75
(lp3150
g68
(g69
g70
NtRp3151
(dp3152
g73
(dp3153
g81
I3
ssg82
g3147
sg75
(lp3154
S"<open file '<stderr>', mode 'w' at 0x00AD50D0>"
p3155
asbasbasbag68
(g84
g70
NtRp3156
(dp3157
g73
(dp3158
sg82
g2689
sg75
(lp3159
g68
(g89
g70
NtRp3160
(dp3161
g73
(dp3162
g93
g94
ssg82
g3156
sg75
(lp3163
S'wsgi.file_wrapper'
p3164
asbag68
(g89
g70
NtRp3165
(dp3166
g73
(dp3167
g100
g101
ssg82
g3156
sg75
(lp3168
S':'
asbag68
(g89
g70
NtRp3169
(dp3170
g73
(dp3171
sg82
g3156
sg75
(lp3172
g68
(g69
g70
NtRp3173
(dp3174
g73
(dp3175
g81
I3
ssg82
g3169
sg75
(lp3176
S'<class wsgiref.util.FileWrapper at 0x01736C38>'
p3177
asbasbasbag68
(g84
g70
NtRp3178
(dp3179
g73
(dp3180
sg82
g2689
sg75
(lp3181
g68
(g89
g70
NtRp3182
(dp3183
g73
(dp3184
g93
g94
ssg82
g3178
sg75
(lp3185
S'wsgi.input'
p3186
asbag68
(g89
g70
NtRp3187
(dp3188
g73
(dp3189
g100
g101
ssg82
g3178
sg75
(lp3190
S':'
asbag68
(g89
g70
NtRp3191
(dp3192
g73
(dp3193
sg82
g3178
sg75
(lp3194
g68
(g69
g70
NtRp3195
(dp3196
g73
(dp3197
g81
I3
ssg82
g3191
sg75
(lp3198
S'<cStringIO.StringO object at 0x05879300>'
p3199
asbasbasbag68
(g84
g70
NtRp3200
(dp3201
g73
(dp3202
sg82
g2689
sg75
(lp3203
g68
(g89
g70
NtRp3204
(dp3205
g73
(dp3206
g93
g94
ssg82
g3200
sg75
(lp3207
S'wsgi.multiprocess'
p3208
asbag68
(g89
g70
NtRp3209
(dp3210
g73
(dp3211
g100
g101
ssg82
g3200
sg75
(lp3212
S':'
asbag68
(g89
g70
NtRp3213
(dp3214
g73
(dp3215
sg82
g3200
sg75
(lp3216
g68
(g69
g70
NtRp3217
(dp3218
g73
(dp3219
g81
I3
ssg82
g3213
sg75
(lp3220
g111
asbasbasbag68
(g84
g70
NtRp3221
(dp3222
g73
(dp3223
sg82
g2689
sg75
(lp3224
g68
(g89
g70
NtRp3225
(dp3226
g73
(dp3227
g93
g94
ssg82
g3221
sg75
(lp3228
S'wsgi.multithread'
p3229
asbag68
(g89
g70
NtRp3230
(dp3231
g73
(dp3232
g100
g101
ssg82
g3221
sg75
(lp3233
S':'
asbag68
(g89
g70
NtRp3234
(dp3235
g73
(dp3236
sg82
g3221
sg75
(lp3237
g68
(g69
g70
NtRp3238
(dp3239
g73
(dp3240
g81
I3
ssg82
g3234
sg75
(lp3241
g1835
asbasbasbag68
(g84
g70
NtRp3242
(dp3243
g73
(dp3244
sg82
g2689
sg75
(lp3245
g68
(g89
g70
NtRp3246
(dp3247
g73
(dp3248
g93
g94
ssg82
g3242
sg75
(lp3249
S'wsgi.run_once'
p3250
asbag68
(g89
g70
NtRp3251
(dp3252
g73
(dp3253
g100
g101
ssg82
g3242
sg75
(lp3254
S':'
asbag68
(g89
g70
NtRp3255
(dp3256
g73
(dp3257
sg82
g3242
sg75
(lp3258
g68
(g69
g70
NtRp3259
(dp3260
g73
(dp3261
g81
I3
ssg82
g3255
sg75
(lp3262
g111
asbasbasbag68
(g84
g70
NtRp3263
(dp3264
g73
(dp3265
sg82
g2689
sg75
(lp3266
g68
(g89
g70
NtRp3267
(dp3268
g73
(dp3269
g93
g94
ssg82
g3263
sg75
(lp3270
S'wsgi.url_scheme'
p3271
asbag68
(g89
g70
NtRp3272
(dp3273
g73
(dp3274
g100
g101
ssg82
g3263
sg75
(lp3275
S':'
asbag68
(g89
g70
NtRp3276
(dp3277
g73
(dp3278
sg82
g3263
sg75
(lp3279
g68
(g69
g70
NtRp3280
(dp3281
g73
(dp3282
g81
I3
ssg82
g3276
sg75
(lp3283
g1878
asbasbasbag68
(g84
g70
NtRp3284
(dp3285
g73
(dp3286
sg82
g2689
sg75
(lp3287
g68
(g89
g70
NtRp3288
(dp3289
g73
(dp3290
g93
g94
ssg82
g3284
sg75
(lp3291
S'wsgi.version'
p3292
asbag68
(g89
g70
NtRp3293
(dp3294
g73
(dp3295
g100
g101
ssg82
g3284
sg75
(lp3296
S':'
asbag68
(g89
g70
NtRp3297
(dp3298
g73
(dp3299
sg82
g3284
sg75
(lp3300
g68
(g69
g70
NtRp3301
(dp3302
g73
(dp3303
g81
I3
ssg82
g3297
sg75
(lp3304
S'1'
asbasbasbasbasbasbasbasbasbasbasbasbasbsS'frames'
p3305
(lp3306
(dp3307
S'file'
p3308
S'C:\\Python27\\web2py\\gluon\\restricted.py'
p3309
sS'dump'
p3310
(dp3311
S'code'
p3312
S'"# -*- coding: utf-8 -*-\\n\\n#######################...\\n                Field(\'chengji\'),label=\'\\xe6\\x88\\x90\\xe7\\xbb\\xa9\')"'
p3313
sS'layer'
p3314
S"r'C:\\Python27\\web2py\\applications\\hw4\\models\\db.py'"
p3315
sS'global compile2'
p3316
S'<function compile2>'
p3317
sS'ccode'
p3318
S'undefined'
p3319
ssS'lnum'
p3320
I211
sS'lines'
p3321
(dp3322
I206
S"    environment['__name__'] = '__restricted__'"
p3323
sI207
S'    try:'
p3324
sI208
S'        if isinstance(code, types.CodeType):'
p3325
sI209
S'            ccode = code'
p3326
sI210
S'        else:'
p3327
sI211
S'            ccode = compile2(code, layer)'
p3328
sI212
S'        exec ccode in environment'
p3329
sI213
S'    except HTTP:'
p3330
sI214
S'        raise'
p3331
sI215
S'    except RestrictedError:'
p3332
ssS'call'
p3333
S'(code="# -*- coding: utf-8 -*-\\n\\n#######################...\\n                Field(\'chengji\'),label=\'\\xe6\\x88\\x90\\xe7\\xbb\\xa9\')", environment={\'A\': <class \'gluon.html.A\'>, \'B\': <class \'gluon.html.B\'>, \'BEAUTIFY\': <class \'gluon.html.BEAUTIFY\'>, \'BODY\': <class \'gluon.html.BODY\'>, \'BR\': <class \'gluon.html.BR\'>, \'BUTTON\': <class \'gluon.html.BUTTON\'>, \'CAT\': <class \'gluon.html.CAT\'>, \'CENTER\': <class \'gluon.html.CENTER\'>, \'CLEANUP\': <class \'gluon.validators.CLEANUP\'>, \'CODE\': <class \'gluon.html.CODE\'>, ...}, layer=r\'C:\\Python27\\web2py\\applications\\hw4\\models\\db.py\')'
p3334
sS'func'
p3335
S'restricted'
p3336
sa(dp3337
g3308
S'C:\\Python27\\web2py\\gluon\\restricted.py'
p3338
sg3310
(dp3339
S'builtincompile'
p3340
S'<built-in function compile>'
p3341
sS'code'
p3342
S'"# -*- coding: utf-8 -*-\\n\\n#######################...\\n                Field(\'chengji\'),label=\'\\xe6\\x88\\x90\\xe7\\xbb\\xa9\')"'
p3343
sS'code.rstrip'
p3344
S'<built-in method rstrip of str object>'
p3345
sS').replace'
p3346
g3319
sS'layer'
p3347
S"r'C:\\Python27\\web2py\\applications\\hw4\\models\\db.py'"
p3348
ssg3320
I194
sg3321
(dp3349
I192
S"    The +'\\n' is necessary else compile fails when code ends in a comment."
p3350
sI193
S'    """'
p3351
sI194
S"    return compile(code.rstrip().replace('\\r\\n', '\\n') + '\\n', layer, 'exec')"
p3352
sI195
S''
sI196
S''
sI197
S"def restricted(code, environment=None, layer='Unknown'):"
p3353
sI198
S'    """'
p3354
sI189
S''
sI190
S'def compile2(code, layer):'
p3355
sI191
S'    """'
p3356
ssg3333
S'(code="# -*- coding: utf-8 -*-\\n\\n#######################...\\n                Field(\'chengji\'),label=\'\\xe6\\x88\\x90\\xe7\\xbb\\xa9\')", layer=r\'C:\\Python27\\web2py\\applications\\hw4\\models\\db.py\')'
p3357
sg3335
S'compile2'
p3358
sasS'pyver'
p3359
S'Python 2.7.3: C:\\Python27\\python.exe'
p3360
sS'session'
p3361
g68
(g69
g70
NtRp3362
(dp3363
g73
(dp3364
sg75
(lp3365
g68
(g77
g70
NtRp3366
(dp3367
g73
(dp3368
g81
I5
ssg82
Nsg75
(lp3369
g68
(g84
g70
NtRp3370
(dp3371
g73
(dp3372
sg82
g3366
sg75
(lp3373
g68
(g89
g70
NtRp3374
(dp3375
g73
(dp3376
g93
g94
ssg82
g3370
sg75
(lp3377
S'auth'
p3378
asbag68
(g89
g70
NtRp3379
(dp3380
g73
(dp3381
g100
g101
ssg82
g3370
sg75
(lp3382
S':'
asbag68
(g89
g70
NtRp3383
(dp3384
g73
(dp3385
sg82
g3370
sg75
(lp3386
g68
(g69
g70
NtRp3387
(dp3388
g73
(dp3389
g81
I5
ssg82
g3383
sg75
(lp3390
g68
(g77
g70
NtRp3391
(dp3392
g73
(dp3393
g81
I4
ssg82
Nsg75
(lp3394
g68
(g84
g70
NtRp3395
(dp3396
g73
(dp3397
sg82
g3391
sg75
(lp3398
g68
(g89
g70
NtRp3399
(dp3400
g73
(dp3401
g93
g94
ssg82
g3395
sg75
(lp3402
S'expiration'
p3403
asbag68
(g89
g70
NtRp3404
(dp3405
g73
(dp3406
g100
g101
ssg82
g3395
sg75
(lp3407
S':'
asbag68
(g89
g70
NtRp3408
(dp3409
g73
(dp3410
sg82
g3395
sg75
(lp3411
g68
(g69
g70
NtRp3412
(dp3413
g73
(dp3414
g81
I4
ssg82
g3408
sg75
(lp3415
S'3600'
p3416
asbasbasbag68
(g84
g70
NtRp3417
(dp3418
g73
(dp3419
sg82
g3391
sg75
(lp3420
g68
(g89
g70
NtRp3421
(dp3422
g73
(dp3423
g93
g94
ssg82
g3417
sg75
(lp3424
S'hmac_key'
p3425
asbag68
(g89
g70
NtRp3426
(dp3427
g73
(dp3428
g100
g101
ssg82
g3417
sg75
(lp3429
S':'
asbag68
(g89
g70
NtRp3430
(dp3431
g73
(dp3432
sg82
g3417
sg75
(lp3433
g68
(g69
g70
NtRp3434
(dp3435
g73
(dp3436
g81
I4
ssg82
g3430
sg75
(lp3437
S'968e446d-7787-4e12-9275-99249164fb6f'
p3438
asbasbasbag68
(g84
g70
NtRp3439
(dp3440
g73
(dp3441
sg82
g3391
sg75
(lp3442
g68
(g89
g70
NtRp3443
(dp3444
g73
(dp3445
g93
g94
ssg82
g3439
sg75
(lp3446
S'last_visit'
p3447
asbag68
(g89
g70
NtRp3448
(dp3449
g73
(dp3450
g100
g101
ssg82
g3439
sg75
(lp3451
S':'
asbag68
(g89
g70
NtRp3452
(dp3453
g73
(dp3454
sg82
g3439
sg75
(lp3455
g68
(g69
g70
NtRp3456
(dp3457
g73
(dp3458
g81
I4
ssg82
g3452
sg75
(lp3459
S'datetime.datetime(2013, 8, 29, 20, 14, 32, 859000)'
p3460
asbasbasbag68
(g84
g70
NtRp3461
(dp3462
g73
(dp3463
sg82
g3391
sg75
(lp3464
g68
(g89
g70
NtRp3465
(dp3466
g73
(dp3467
g93
g94
ssg82
g3461
sg75
(lp3468
S'remember'
p3469
asbag68
(g89
g70
NtRp3470
(dp3471
g73
(dp3472
g100
g101
ssg82
g3461
sg75
(lp3473
S':'
asbag68
(g89
g70
NtRp3474
(dp3475
g73
(dp3476
sg82
g3461
sg75
(lp3477
g68
(g69
g70
NtRp3478
(dp3479
g73
(dp3480
g81
I4
ssg82
g3474
sg75
(lp3481
g111
asbasbasbag68
(g84
g70
NtRp3482
(dp3483
g73
(dp3484
sg82
g3391
sg75
(lp3485
g68
(g89
g70
NtRp3486
(dp3487
g73
(dp3488
g93
g94
ssg82
g3482
sg75
(lp3489
S'user'
p3490
asbag68
(g89
g70
NtRp3491
(dp3492
g73
(dp3493
g100
g101
ssg82
g3482
sg75
(lp3494
S':'
asbag68
(g89
g70
NtRp3495
(dp3496
g73
(dp3497
sg82
g3482
sg75
(lp3498
g68
(g69
g70
NtRp3499
(dp3500
g73
(dp3501
g81
I4
ssg82
g3495
sg75
(lp3502
g68
(g77
g70
NtRp3503
(dp3504
g73
(dp3505
g81
I3
ssg82
Nsg75
(lp3506
g68
(g84
g70
NtRp3507
(dp3508
g73
(dp3509
sg82
g3503
sg75
(lp3510
g68
(g89
g70
NtRp3511
(dp3512
g73
(dp3513
g93
g94
ssg82
g3507
sg75
(lp3514
S'banji'
p3515
asbag68
(g89
g70
NtRp3516
(dp3517
g73
(dp3518
g100
g101
ssg82
g3507
sg75
(lp3519
S':'
asbag68
(g89
g70
NtRp3520
(dp3521
g73
(dp3522
sg82
g3507
sg75
(lp3523
g68
(g69
g70
NtRp3524
(dp3525
g73
(dp3526
g81
I3
ssg82
g3520
sg75
(lp3527
S'03'
p3528
asbasbasbag68
(g84
g70
NtRp3529
(dp3530
g73
(dp3531
sg82
g3503
sg75
(lp3532
g68
(g89
g70
NtRp3533
(dp3534
g73
(dp3535
g93
g94
ssg82
g3529
sg75
(lp3536
S'email'
p3537
asbag68
(g89
g70
NtRp3538
(dp3539
g73
(dp3540
g100
g101
ssg82
g3529
sg75
(lp3541
S':'
asbag68
(g89
g70
NtRp3542
(dp3543
g73
(dp3544
sg82
g3529
sg75
(lp3545
g68
(g69
g70
NtRp3546
(dp3547
g73
(dp3548
g81
I3
ssg82
g3542
sg75
(lp3549
S'3@test.com'
p3550
asbasbasbag68
(g84
g70
NtRp3551
(dp3552
g73
(dp3553
sg82
g3503
sg75
(lp3554
g68
(g89
g70
NtRp3555
(dp3556
g73
(dp3557
g93
g94
ssg82
g3551
sg75
(lp3558
S'first_name'
p3559
asbag68
(g89
g70
NtRp3560
(dp3561
g73
(dp3562
g100
g101
ssg82
g3551
sg75
(lp3563
S':'
asbag68
(g89
g70
NtRp3564
(dp3565
g73
(dp3566
sg82
g3551
sg75
(lp3567
g68
(g69
g70
NtRp3568
(dp3569
g73
(dp3570
g81
I3
ssg82
g3564
sg75
(lp3571
S'3'
asbasbasbag68
(g84
g70
NtRp3572
(dp3573
g73
(dp3574
sg82
g3503
sg75
(lp3575
g68
(g89
g70
NtRp3576
(dp3577
g73
(dp3578
g93
g94
ssg82
g3572
sg75
(lp3579
S'id'
p3580
asbag68
(g89
g70
NtRp3581
(dp3582
g73
(dp3583
g100
g101
ssg82
g3572
sg75
(lp3584
S':'
asbag68
(g89
g70
NtRp3585
(dp3586
g73
(dp3587
sg82
g3572
sg75
(lp3588
g68
(g69
g70
NtRp3589
(dp3590
g73
(dp3591
g81
I3
ssg82
g3585
sg75
(lp3592
S'3'
asbasbasbag68
(g84
g70
NtRp3593
(dp3594
g73
(dp3595
sg82
g3503
sg75
(lp3596
g68
(g89
g70
NtRp3597
(dp3598
g73
(dp3599
g93
g94
ssg82
g3593
sg75
(lp3600
S'jie'
p3601
asbag68
(g89
g70
NtRp3602
(dp3603
g73
(dp3604
g100
g101
ssg82
g3593
sg75
(lp3605
S':'
asbag68
(g89
g70
NtRp3606
(dp3607
g73
(dp3608
sg82
g3593
sg75
(lp3609
g68
(g69
g70
NtRp3610
(dp3611
g73
(dp3612
g81
I3
ssg82
g3606
sg75
(lp3613
S'15'
p3614
asbasbasbag68
(g84
g70
NtRp3615
(dp3616
g73
(dp3617
sg82
g3503
sg75
(lp3618
g68
(g89
g70
NtRp3619
(dp3620
g73
(dp3621
g93
g94
ssg82
g3615
sg75
(lp3622
S'last_name'
p3623
asbag68
(g89
g70
NtRp3624
(dp3625
g73
(dp3626
g100
g101
ssg82
g3615
sg75
(lp3627
S':'
asbag68
(g89
g70
NtRp3628
(dp3629
g73
(dp3630
sg82
g3615
sg75
(lp3631
g68
(g69
g70
NtRp3632
(dp3633
g73
(dp3634
g81
I3
ssg82
g3628
sg75
(lp3635
S'11'
p3636
asbasbasbag68
(g84
g70
NtRp3637
(dp3638
g73
(dp3639
sg82
g3503
sg75
(lp3640
g68
(g89
g70
NtRp3641
(dp3642
g73
(dp3643
g93
g94
ssg82
g3637
sg75
(lp3644
S'registration_id'
p3645
asbag68
(g89
g70
NtRp3646
(dp3647
g73
(dp3648
g100
g101
ssg82
g3637
sg75
(lp3649
S':'
asbag68
(g89
g70
NtRp3650
(dp3651
g73
(dp3652
sg82
g3637
sg75
(lp3653
g68
(g69
g70
NtRp3654
(dp3655
g73
(dp3656
g81
I3
ssg82
g3650
sg75
(lp3657
S''
asbasbasbag68
(g84
g70
NtRp3658
(dp3659
g73
(dp3660
sg82
g3503
sg75
(lp3661
g68
(g89
g70
NtRp3662
(dp3663
g73
(dp3664
g93
g94
ssg82
g3658
sg75
(lp3665
S'registration_key'
p3666
asbag68
(g89
g70
NtRp3667
(dp3668
g73
(dp3669
g100
g101
ssg82
g3658
sg75
(lp3670
S':'
asbag68
(g89
g70
NtRp3671
(dp3672
g73
(dp3673
sg82
g3658
sg75
(lp3674
g68
(g69
g70
NtRp3675
(dp3676
g73
(dp3677
g81
I3
ssg82
g3671
sg75
(lp3678
S''
asbasbasbag68
(g84
g70
NtRp3679
(dp3680
g73
(dp3681
sg82
g3503
sg75
(lp3682
g68
(g89
g70
NtRp3683
(dp3684
g73
(dp3685
g93
g94
ssg82
g3679
sg75
(lp3686
S'reset_password_key'
p3687
asbag68
(g89
g70
NtRp3688
(dp3689
g73
(dp3690
g100
g101
ssg82
g3679
sg75
(lp3691
S':'
asbag68
(g89
g70
NtRp3692
(dp3693
g73
(dp3694
sg82
g3679
sg75
(lp3695
g68
(g69
g70
NtRp3696
(dp3697
g73
(dp3698
g81
I3
ssg82
g3692
sg75
(lp3699
S''
asbasbasbasbasbasbasbag68
(g84
g70
NtRp3700
(dp3701
g73
(dp3702
sg82
g3391
sg75
(lp3703
g68
(g89
g70
NtRp3704
(dp3705
g73
(dp3706
g93
g94
ssg82
g3700
sg75
(lp3707
S'user_groups'
p3708
asbag68
(g89
g70
NtRp3709
(dp3710
g73
(dp3711
g100
g101
ssg82
g3700
sg75
(lp3712
S':'
asbag68
(g89
g70
NtRp3713
(dp3714
g73
(dp3715
sg82
g3700
sg75
(lp3716
g68
(g69
g70
NtRp3717
(dp3718
g73
(dp3719
g81
I4
ssg82
g3713
sg75
(lp3720
g68
(g77
g70
NtRp3721
(dp3722
g73
(dp3723
g81
I3
ssg82
Nsg75
(lp3724
g68
(g84
g70
NtRp3725
(dp3726
g73
(dp3727
sg82
g3721
sg75
(lp3728
g68
(g89
g70
NtRp3729
(dp3730
g73
(dp3731
g93
g94
ssg82
g3725
sg75
(lp3732
S'3'
asbag68
(g89
g70
NtRp3733
(dp3734
g73
(dp3735
g100
g101
ssg82
g3725
sg75
(lp3736
S':'
asbag68
(g89
g70
NtRp3737
(dp3738
g73
(dp3739
sg82
g3725
sg75
(lp3740
g68
(g69
g70
NtRp3741
(dp3742
g73
(dp3743
g81
I3
ssg82
g3737
sg75
(lp3744
S'user_3'
p3745
asbasbasbasbasbasbasbasbasbasbasbag68
(g84
g70
NtRp3746
(dp3747
g73
(dp3748
sg82
g3366
sg75
(lp3749
g68
(g89
g70
NtRp3750
(dp3751
g73
(dp3752
g93
g94
ssg82
g3746
sg75
(lp3753
S'flash'
p3754
asbag68
(g89
g70
NtRp3755
(dp3756
g73
(dp3757
g100
g101
ssg82
g3746
sg75
(lp3758
S':'
asbag68
(g89
g70
NtRp3759
(dp3760
g73
(dp3761
sg82
g3746
sg75
(lp3762
g68
(g69
g70
NtRp3763
(dp3764
g73
(dp3765
g81
I5
ssg82
g3759
sg75
(lp3766
S'None'
p3767
asbasbasbag68
(g84
g70
NtRp3768
(dp3769
g73
(dp3770
sg82
g3366
sg75
(lp3771
g68
(g89
g70
NtRp3772
(dp3773
g73
(dp3774
g93
g94
ssg82
g3768
sg75
(lp3775
S'last_orderby'
p3776
asbag68
(g89
g70
NtRp3777
(dp3778
g73
(dp3779
g100
g101
ssg82
g3768
sg75
(lp3780
S':'
asbag68
(g89
g70
NtRp3781
(dp3782
g73
(dp3783
sg82
g3768
sg75
(lp3784
g68
(g69
g70
NtRp3785
(dp3786
g73
(dp3787
g81
I5
ssg82
g3781
sg75
(lp3788
S'None'
p3789
asbasbasbag68
(g84
g70
NtRp3790
(dp3791
g73
(dp3792
sg82
g3366
sg75
(lp3793
g68
(g89
g70
NtRp3794
(dp3795
g73
(dp3796
g93
g94
ssg82
g3790
sg75
(lp3797
S'last_query'
p3798
asbag68
(g89
g70
NtRp3799
(dp3800
g73
(dp3801
g100
g101
ssg82
g3790
sg75
(lp3802
S':'
asbag68
(g89
g70
NtRp3803
(dp3804
g73
(dp3805
sg82
g3790
sg75
(lp3806
g68
(g69
g70
NtRp3807
(dp3808
g73
(dp3809
g81
I5
ssg82
g3803
sg75
(lp3810
S'db.keshi.id>0'
p3811
asbasbasbasbasbsS'etype'
p3812
S"<type 'exceptions.SyntaxError'>"
p3813
sS'date'
p3814
S'Thu Aug 29 20:15:46 2013'
p3815
sS'response'
p3816
g68
(g69
g70
NtRp3817
(dp3818
g73
(dp3819
sg75
(lp3820
g68
(g77
g70
NtRp3821
(dp3822
g73
(dp3823
g81
I5
ssg82
Nsg75
(lp3824
g68
(g84
g70
NtRp3825
(dp3826
g73
(dp3827
sg82
g3821
sg75
(lp3828
g68
(g89
g70
NtRp3829
(dp3830
g73
(dp3831
g93
g94
ssg82
g3825
sg75
(lp3832
g178
asbag68
(g89
g70
NtRp3833
(dp3834
g73
(dp3835
g100
g101
ssg82
g3825
sg75
(lp3836
S':'
asbag68
(g89
g70
NtRp3837
(dp3838
g73
(dp3839
sg82
g3825
sg75
(lp3840
g68
(g69
g70
NtRp3841
(dp3842
g73
(dp3843
g81
I5
ssg82
g3837
sg75
(lp3844
S'<cStringIO.StringO object at 0x05879160>'
p3845
asbasbasbag68
(g84
g70
NtRp3846
(dp3847
g73
(dp3848
sg82
g3821
sg75
(lp3849
g68
(g89
g70
NtRp3850
(dp3851
g73
(dp3852
g93
g94
ssg82
g3846
sg75
(lp3853
g266
asbag68
(g89
g70
NtRp3854
(dp3855
g73
(dp3856
g100
g101
ssg82
g3846
sg75
(lp3857
S':'
asbag68
(g89
g70
NtRp3858
(dp3859
g73
(dp3860
sg82
g3846
sg75
(lp3861
g68
(g69
g70
NtRp3862
(dp3863
g73
(dp3864
g81
I5
ssg82
g3858
sg75
(lp3865
g68
(g77
g70
NtRp3866
(dp3867
g73
(dp3868
g81
I4
ssg82
Nsg75
(lp3869
g68
(g84
g70
NtRp3870
(dp3871
g73
(dp3872
sg82
g3866
sg75
(lp3873
g68
(g89
g70
NtRp3874
(dp3875
g73
(dp3876
g93
g94
ssg82
g3870
sg75
(lp3877
S'session_id_hw4'
p3878
asbag68
(g89
g70
NtRp3879
(dp3880
g73
(dp3881
g100
g101
ssg82
g3870
sg75
(lp3882
S':'
asbag68
(g89
g70
NtRp3883
(dp3884
g73
(dp3885
sg82
g3870
sg75
(lp3886
g68
(g69
g70
NtRp3887
(dp3888
g73
(dp3889
g81
I4
ssg82
g3883
sg75
(lp3890
g498
ag68
(g77
g70
NtRp3891
(dp3892
g73
(dp3893
g81
I3
ssg82
Nsg75
(lp3894
g68
(g84
g70
NtRp3895
(dp3896
g73
(dp3897
sg82
g3891
sg75
(lp3898
g68
(g89
g70
NtRp3899
(dp3900
g73
(dp3901
g93
g94
ssg82
g3895
sg75
(lp3902
g317
asbag68
(g89
g70
NtRp3903
(dp3904
g73
(dp3905
g100
g101
ssg82
g3895
sg75
(lp3906
S':'
asbag68
(g89
g70
NtRp3907
(dp3908
g73
(dp3909
sg82
g3895
sg75
(lp3910
g68
(g69
g70
NtRp3911
(dp3912
g73
(dp3913
g81
I3
ssg82
g3907
sg75
(lp3914
S''
asbasbasbag68
(g84
g70
NtRp3915
(dp3916
g73
(dp3917
sg82
g3891
sg75
(lp3918
g68
(g89
g70
NtRp3919
(dp3920
g73
(dp3921
g93
g94
ssg82
g3915
sg75
(lp3922
g338
asbag68
(g89
g70
NtRp3923
(dp3924
g73
(dp3925
g100
g101
ssg82
g3915
sg75
(lp3926
S':'
asbag68
(g89
g70
NtRp3927
(dp3928
g73
(dp3929
sg82
g3915
sg75
(lp3930
g68
(g69
g70
NtRp3931
(dp3932
g73
(dp3933
g81
I3
ssg82
g3927
sg75
(lp3934
S''
asbasbasbag68
(g84
g70
NtRp3935
(dp3936
g73
(dp3937
sg82
g3891
sg75
(lp3938
g68
(g89
g70
NtRp3939
(dp3940
g73
(dp3941
g93
g94
ssg82
g3935
sg75
(lp3942
g359
asbag68
(g89
g70
NtRp3943
(dp3944
g73
(dp3945
g100
g101
ssg82
g3935
sg75
(lp3946
S':'
asbag68
(g89
g70
NtRp3947
(dp3948
g73
(dp3949
sg82
g3935
sg75
(lp3950
g68
(g69
g70
NtRp3951
(dp3952
g73
(dp3953
g81
I3
ssg82
g3947
sg75
(lp3954
S''
asbasbasbag68
(g84
g70
NtRp3955
(dp3956
g73
(dp3957
sg82
g3891
sg75
(lp3958
g68
(g89
g70
NtRp3959
(dp3960
g73
(dp3961
g93
g94
ssg82
g3955
sg75
(lp3962
g380
asbag68
(g89
g70
NtRp3963
(dp3964
g73
(dp3965
g100
g101
ssg82
g3955
sg75
(lp3966
S':'
asbag68
(g89
g70
NtRp3967
(dp3968
g73
(dp3969
sg82
g3955
sg75
(lp3970
g68
(g69
g70
NtRp3971
(dp3972
g73
(dp3973
g81
I3
ssg82
g3967
sg75
(lp3974
S''
asbasbasbag68
(g84
g70
NtRp3975
(dp3976
g73
(dp3977
sg82
g3891
sg75
(lp3978
g68
(g89
g70
NtRp3979
(dp3980
g73
(dp3981
g93
g94
ssg82
g3975
sg75
(lp3982
g401
asbag68
(g89
g70
NtRp3983
(dp3984
g73
(dp3985
g100
g101
ssg82
g3975
sg75
(lp3986
S':'
asbag68
(g89
g70
NtRp3987
(dp3988
g73
(dp3989
sg82
g3975
sg75
(lp3990
g68
(g69
g70
NtRp3991
(dp3992
g73
(dp3993
g81
I3
ssg82
g3987
sg75
(lp3994
S''
asbasbasbag68
(g84
g70
NtRp3995
(dp3996
g73
(dp3997
sg82
g3891
sg75
(lp3998
g68
(g89
g70
NtRp3999
(dp4000
g73
(dp4001
g93
g94
ssg82
g3995
sg75
(lp4002
g422
asbag68
(g89
g70
NtRp4003
(dp4004
g73
(dp4005
g100
g101
ssg82
g3995
sg75
(lp4006
S':'
asbag68
(g89
g70
NtRp4007
(dp4008
g73
(dp4009
sg82
g3995
sg75
(lp4010
g68
(g69
g70
NtRp4011
(dp4012
g73
(dp4013
g81
I3
ssg82
g4007
sg75
(lp4014
S'/'
asbasbasbag68
(g84
g70
NtRp4015
(dp4016
g73
(dp4017
sg82
g3891
sg75
(lp4018
g68
(g89
g70
NtRp4019
(dp4020
g73
(dp4021
g93
g94
ssg82
g4015
sg75
(lp4022
g443
asbag68
(g89
g70
NtRp4023
(dp4024
g73
(dp4025
g100
g101
ssg82
g4015
sg75
(lp4026
S':'
asbag68
(g89
g70
NtRp4027
(dp4028
g73
(dp4029
sg82
g4015
sg75
(lp4030
g68
(g69
g70
NtRp4031
(dp4032
g73
(dp4033
g81
I3
ssg82
g4027
sg75
(lp4034
S''
asbasbasbag68
(g84
g70
NtRp4035
(dp4036
g73
(dp4037
sg82
g3891
sg75
(lp4038
g68
(g89
g70
NtRp4039
(dp4040
g73
(dp4041
g93
g94
ssg82
g4035
sg75
(lp4042
g464
asbag68
(g89
g70
NtRp4043
(dp4044
g73
(dp4045
g100
g101
ssg82
g4035
sg75
(lp4046
S':'
asbag68
(g89
g70
NtRp4047
(dp4048
g73
(dp4049
sg82
g4035
sg75
(lp4050
g68
(g69
g70
NtRp4051
(dp4052
g73
(dp4053
g81
I3
ssg82
g4047
sg75
(lp4054
S''
asbasbasbasbasbasbasbasbasbasbasbag68
(g84
g70
NtRp4055
(dp4056
g73
(dp4057
sg82
g3821
sg75
(lp4058
g68
(g89
g70
NtRp4059
(dp4060
g73
(dp4061
g93
g94
ssg82
g4055
sg75
(lp4062
S'delimiters'
p4063
asbag68
(g89
g70
NtRp4064
(dp4065
g73
(dp4066
g100
g101
ssg82
g4055
sg75
(lp4067
S':'
asbag68
(g89
g70
NtRp4068
(dp4069
g73
(dp4070
sg82
g4055
sg75
(lp4071
g68
(g69
g70
NtRp4072
(dp4073
g73
(dp4074
g81
I5
ssg82
g4068
sg75
(lp4075
g68
(g77
g70
NtRp4076
(dp4077
g73
(dp4078
g81
I4
ssg82
Nsg75
(lp4079
g68
(g84
g70
NtRp4080
(dp4081
g73
(dp4082
sg82
g4076
sg75
(lp4083
g68
(g89
g70
NtRp4084
(dp4085
g73
(dp4086
sg82
g4080
sg75
(lp4087
g68
(g69
g70
NtRp4088
(dp4089
g73
(dp4090
g81
I4
ssg82
g4084
sg75
(lp4091
S'{{'
p4092
asbasbasbag68
(g84
g70
NtRp4093
(dp4094
g73
(dp4095
sg82
g4076
sg75
(lp4096
g68
(g89
g70
NtRp4097
(dp4098
g73
(dp4099
sg82
g4093
sg75
(lp4100
g68
(g69
g70
NtRp4101
(dp4102
g73
(dp4103
g81
I4
ssg82
g4097
sg75
(lp4104
S'}}'
p4105
asbasbasbasbasbasbasbag68
(g84
g70
NtRp4106
(dp4107
g73
(dp4108
sg82
g3821
sg75
(lp4109
g68
(g89
g70
NtRp4110
(dp4111
g73
(dp4112
g93
g94
ssg82
g4106
sg75
(lp4113
S'files'
p4114
asbag68
(g89
g70
NtRp4115
(dp4116
g73
(dp4117
g100
g101
ssg82
g4106
sg75
(lp4118
S':'
asbag68
(g89
g70
NtRp4119
(dp4120
g73
(dp4121
sg82
g4106
sg75
(lp4122
g68
(g69
g70
NtRp4123
(dp4124
g73
(dp4125
g81
I5
ssg82
g4119
sg75
(lp4126
g68
(g77
g70
NtRp4127
(dp4128
g73
(dp4129
g81
I4
ssg82
Nsg75
(lp4130
sbasbasbasbag68
(g84
g70
NtRp4131
(dp4132
g73
(dp4133
sg82
g3821
sg75
(lp4134
g68
(g89
g70
NtRp4135
(dp4136
g73
(dp4137
g93
g94
ssg82
g4131
sg75
(lp4138
S'flash'
p4139
asbag68
(g89
g70
NtRp4140
(dp4141
g73
(dp4142
g100
g101
ssg82
g4131
sg75
(lp4143
S':'
asbag68
(g89
g70
NtRp4144
(dp4145
g73
(dp4146
sg82
g4131
sg75
(lp4147
g68
(g69
g70
NtRp4148
(dp4149
g73
(dp4150
g81
I5
ssg82
g4144
sg75
(lp4151
S''
asbasbasbag68
(g84
g70
NtRp4152
(dp4153
g73
(dp4154
sg82
g3821
sg75
(lp4155
g68
(g89
g70
NtRp4156
(dp4157
g73
(dp4158
g93
g94
ssg82
g4152
sg75
(lp4159
S'generic_patterns'
p4160
asbag68
(g89
g70
NtRp4161
(dp4162
g73
(dp4163
g100
g101
ssg82
g4152
sg75
(lp4164
S':'
asbag68
(g89
g70
NtRp4165
(dp4166
g73
(dp4167
sg82
g4152
sg75
(lp4168
g68
(g69
g70
NtRp4169
(dp4170
g73
(dp4171
g81
I5
ssg82
g4165
sg75
(lp4172
g68
(g77
g70
NtRp4173
(dp4174
g73
(dp4175
g81
I4
ssg82
Nsg75
(lp4176
sbasbasbasbag68
(g84
g70
NtRp4177
(dp4178
g73
(dp4179
sg82
g3821
sg75
(lp4180
g68
(g89
g70
NtRp4181
(dp4182
g73
(dp4183
g93
g94
ssg82
g4177
sg75
(lp4184
S'headers'
p4185
asbag68
(g89
g70
NtRp4186
(dp4187
g73
(dp4188
g100
g101
ssg82
g4177
sg75
(lp4189
S':'
asbag68
(g89
g70
NtRp4190
(dp4191
g73
(dp4192
sg82
g4177
sg75
(lp4193
g68
(g69
g70
NtRp4194
(dp4195
g73
(dp4196
g81
I5
ssg82
g4190
sg75
(lp4197
g68
(g77
g70
NtRp4198
(dp4199
g73
(dp4200
g81
I4
ssg82
Nsg75
(lp4201
g68
(g84
g70
NtRp4202
(dp4203
g73
(dp4204
sg82
g4198
sg75
(lp4205
g68
(g89
g70
NtRp4206
(dp4207
g73
(dp4208
g93
g94
ssg82
g4202
sg75
(lp4209
S'X-Powered-By'
p4210
asbag68
(g89
g70
NtRp4211
(dp4212
g73
(dp4213
g100
g101
ssg82
g4202
sg75
(lp4214
S':'
asbag68
(g89
g70
NtRp4215
(dp4216
g73
(dp4217
sg82
g4202
sg75
(lp4218
g68
(g69
g70
NtRp4219
(dp4220
g73
(dp4221
g81
I4
ssg82
g4215
sg75
(lp4222
S'web2py'
p4223
asbasbasbasbasbasbasbag68
(g84
g70
NtRp4224
(dp4225
g73
(dp4226
sg82
g3821
sg75
(lp4227
g68
(g89
g70
NtRp4228
(dp4229
g73
(dp4230
g93
g94
ssg82
g4224
sg75
(lp4231
S'menu'
p4232
asbag68
(g89
g70
NtRp4233
(dp4234
g73
(dp4235
g100
g101
ssg82
g4224
sg75
(lp4236
S':'
asbag68
(g89
g70
NtRp4237
(dp4238
g73
(dp4239
sg82
g4224
sg75
(lp4240
g68
(g69
g70
NtRp4241
(dp4242
g73
(dp4243
g81
I5
ssg82
g4237
sg75
(lp4244
g68
(g77
g70
NtRp4245
(dp4246
g73
(dp4247
g81
I4
ssg82
Nsg75
(lp4248
sbasbasbasbag68
(g84
g70
NtRp4249
(dp4250
g73
(dp4251
sg82
g3821
sg75
(lp4252
g68
(g89
g70
NtRp4253
(dp4254
g73
(dp4255
g93
g94
ssg82
g4249
sg75
(lp4256
S'meta'
p4257
asbag68
(g89
g70
NtRp4258
(dp4259
g73
(dp4260
g100
g101
ssg82
g4249
sg75
(lp4261
S':'
asbag68
(g89
g70
NtRp4262
(dp4263
g73
(dp4264
sg82
g4249
sg75
(lp4265
g68
(g69
g70
NtRp4266
(dp4267
g73
(dp4268
g81
I5
ssg82
g4262
sg75
(lp4269
g68
(g77
g70
NtRp4270
(dp4271
g73
(dp4272
g81
I4
ssg82
Nsg75
(lp4273
sbasbasbasbag68
(g84
g70
NtRp4274
(dp4275
g73
(dp4276
sg82
g3821
sg75
(lp4277
g68
(g89
g70
NtRp4278
(dp4279
g73
(dp4280
g93
g94
ssg82
g4274
sg75
(lp4281
S'models_to_run'
p4282
asbag68
(g89
g70
NtRp4283
(dp4284
g73
(dp4285
g100
g101
ssg82
g4274
sg75
(lp4286
S':'
asbag68
(g89
g70
NtRp4287
(dp4288
g73
(dp4289
sg82
g4274
sg75
(lp4290
g68
(g69
g70
NtRp4291
(dp4292
g73
(dp4293
g81
I5
ssg82
g4287
sg75
(lp4294
g68
(g77
g70
NtRp4295
(dp4296
g73
(dp4297
g81
I4
ssg82
Nsg75
(lp4298
g68
(g84
g70
NtRp4299
(dp4300
g73
(dp4301
sg82
g4295
sg75
(lp4302
g68
(g89
g70
NtRp4303
(dp4304
g73
(dp4305
sg82
g4299
sg75
(lp4306
g68
(g69
g70
NtRp4307
(dp4308
g73
(dp4309
g81
I4
ssg82
g4303
sg75
(lp4310
S'^\\w+\\.py$'
p4311
asbasbasbag68
(g84
g70
NtRp4312
(dp4313
g73
(dp4314
sg82
g4295
sg75
(lp4315
g68
(g89
g70
NtRp4316
(dp4317
g73
(dp4318
sg82
g4312
sg75
(lp4319
g68
(g69
g70
NtRp4320
(dp4321
g73
(dp4322
g81
I4
ssg82
g4316
sg75
(lp4323
S'^default/\\w+\\.py$'
p4324
asbasbasbag68
(g84
g70
NtRp4325
(dp4326
g73
(dp4327
sg82
g4295
sg75
(lp4328
g68
(g89
g70
NtRp4329
(dp4330
g73
(dp4331
sg82
g4325
sg75
(lp4332
g68
(g69
g70
NtRp4333
(dp4334
g73
(dp4335
g81
I4
ssg82
g4329
sg75
(lp4336
S'^default/zuoye/\\w+\\.py$'
p4337
asbasbasbasbasbasbasbag68
(g84
g70
NtRp4338
(dp4339
g73
(dp4340
sg82
g3821
sg75
(lp4341
g68
(g89
g70
NtRp4342
(dp4343
g73
(dp4344
g93
g94
ssg82
g4338
sg75
(lp4345
S'postprocessing'
p4346
asbag68
(g89
g70
NtRp4347
(dp4348
g73
(dp4349
g100
g101
ssg82
g4338
sg75
(lp4350
S':'
asbag68
(g89
g70
NtRp4351
(dp4352
g73
(dp4353
sg82
g4338
sg75
(lp4354
g68
(g69
g70
NtRp4355
(dp4356
g73
(dp4357
g81
I5
ssg82
g4351
sg75
(lp4358
g68
(g77
g70
NtRp4359
(dp4360
g73
(dp4361
g81
I4
ssg82
Nsg75
(lp4362
sbasbasbasbag68
(g84
g70
NtRp4363
(dp4364
g73
(dp4365
sg82
g3821
sg75
(lp4366
g68
(g89
g70
NtRp4367
(dp4368
g73
(dp4369
g93
g94
ssg82
g4363
sg75
(lp4370
S'session_cookie_expires'
p4371
asbag68
(g89
g70
NtRp4372
(dp4373
g73
(dp4374
g100
g101
ssg82
g4363
sg75
(lp4375
S':'
asbag68
(g89
g70
NtRp4376
(dp4377
g73
(dp4378
sg82
g4363
sg75
(lp4379
g68
(g69
g70
NtRp4380
(dp4381
g73
(dp4382
g81
I5
ssg82
g4376
sg75
(lp4383
S'None'
p4384
asbasbasbag68
(g84
g70
NtRp4385
(dp4386
g73
(dp4387
sg82
g3821
sg75
(lp4388
g68
(g89
g70
NtRp4389
(dp4390
g73
(dp4391
g93
g94
ssg82
g4385
sg75
(lp4392
S'session_data_name'
p4393
asbag68
(g89
g70
NtRp4394
(dp4395
g73
(dp4396
g100
g101
ssg82
g4385
sg75
(lp4397
S':'
asbag68
(g89
g70
NtRp4398
(dp4399
g73
(dp4400
sg82
g4385
sg75
(lp4401
g68
(g69
g70
NtRp4402
(dp4403
g73
(dp4404
g81
I5
ssg82
g4398
sg75
(lp4405
S'session_data_hw4'
p4406
asbasbasbag68
(g84
g70
NtRp4407
(dp4408
g73
(dp4409
sg82
g3821
sg75
(lp4410
g68
(g89
g70
NtRp4411
(dp4412
g73
(dp4413
g93
g94
ssg82
g4407
sg75
(lp4414
S'session_file'
p4415
asbag68
(g89
g70
NtRp4416
(dp4417
g73
(dp4418
g100
g101
ssg82
g4407
sg75
(lp4419
S':'
asbag68
(g89
g70
NtRp4420
(dp4421
g73
(dp4422
sg82
g4407
sg75
(lp4423
g68
(g69
g70
NtRp4424
(dp4425
g73
(dp4426
g81
I5
ssg82
g4420
sg75
(lp4427
S"<open file 'C:\\Python27\\web2py\\applications\\hw4\\sessions\\127.0.0.1-47db4407-5ca2-4b4f-b702-e73004465f15', mode 'rb+' at 0x058C8020>"
p4428
asbasbasbag68
(g84
g70
NtRp4429
(dp4430
g73
(dp4431
sg82
g3821
sg75
(lp4432
g68
(g89
g70
NtRp4433
(dp4434
g73
(dp4435
g93
g94
ssg82
g4429
sg75
(lp4436
S'session_filename'
p4437
asbag68
(g89
g70
NtRp4438
(dp4439
g73
(dp4440
g100
g101
ssg82
g4429
sg75
(lp4441
S':'
asbag68
(g89
g70
NtRp4442
(dp4443
g73
(dp4444
sg82
g4429
sg75
(lp4445
g68
(g69
g70
NtRp4446
(dp4447
g73
(dp4448
g81
I5
ssg82
g4442
sg75
(lp4449
S'C:\\Python27\\web2py\\applications\\hw4\\sessions\\127.0.0.1-47db4407-5ca2-4b4f-b702-e73004465f15'
p4450
asbasbasbag68
(g84
g70
NtRp4451
(dp4452
g73
(dp4453
sg82
g3821
sg75
(lp4454
g68
(g89
g70
NtRp4455
(dp4456
g73
(dp4457
g93
g94
ssg82
g4451
sg75
(lp4458
S'session_id'
p4459
asbag68
(g89
g70
NtRp4460
(dp4461
g73
(dp4462
g100
g101
ssg82
g4451
sg75
(lp4463
S':'
asbag68
(g89
g70
NtRp4464
(dp4465
g73
(dp4466
sg82
g4451
sg75
(lp4467
g68
(g69
g70
NtRp4468
(dp4469
g73
(dp4470
g81
I5
ssg82
g4464
sg75
(lp4471
g498
asbasbasbag68
(g84
g70
NtRp4472
(dp4473
g73
(dp4474
sg82
g3821
sg75
(lp4475
g68
(g89
g70
NtRp4476
(dp4477
g73
(dp4478
g93
g94
ssg82
g4472
sg75
(lp4479
S'session_id_name'
p4480
asbag68
(g89
g70
NtRp4481
(dp4482
g73
(dp4483
g100
g101
ssg82
g4472
sg75
(lp4484
S':'
asbag68
(g89
g70
NtRp4485
(dp4486
g73
(dp4487
sg82
g4472
sg75
(lp4488
g68
(g69
g70
NtRp4489
(dp4490
g73
(dp4491
g81
I5
ssg82
g4485
sg75
(lp4492
g3878
asbasbasbag68
(g84
g70
NtRp4493
(dp4494
g73
(dp4495
sg82
g3821
sg75
(lp4496
g68
(g89
g70
NtRp4497
(dp4498
g73
(dp4499
g93
g94
ssg82
g4493
sg75
(lp4500
S'session_locked'
p4501
asbag68
(g89
g70
NtRp4502
(dp4503
g73
(dp4504
g100
g101
ssg82
g4493
sg75
(lp4505
S':'
asbag68
(g89
g70
NtRp4506
(dp4507
g73
(dp4508
sg82
g4493
sg75
(lp4509
g68
(g69
g70
NtRp4510
(dp4511
g73
(dp4512
g81
I5
ssg82
g4506
sg75
(lp4513
g1835
asbasbasbag68
(g84
g70
NtRp4514
(dp4515
g73
(dp4516
sg82
g3821
sg75
(lp4517
g68
(g89
g70
NtRp4518
(dp4519
g73
(dp4520
g93
g94
ssg82
g4514
sg75
(lp4521
S'session_new'
p4522
asbag68
(g89
g70
NtRp4523
(dp4524
g73
(dp4525
g100
g101
ssg82
g4514
sg75
(lp4526
S':'
asbag68
(g89
g70
NtRp4527
(dp4528
g73
(dp4529
sg82
g4514
sg75
(lp4530
g68
(g69
g70
NtRp4531
(dp4532
g73
(dp4533
g81
I5
ssg82
g4527
sg75
(lp4534
g111
asbasbasbag68
(g84
g70
NtRp4535
(dp4536
g73
(dp4537
sg82
g3821
sg75
(lp4538
g68
(g89
g70
NtRp4539
(dp4540
g73
(dp4541
g93
g94
ssg82
g4535
sg75
(lp4542
S'session_storage_type'
p4543
asbag68
(g89
g70
NtRp4544
(dp4545
g73
(dp4546
g100
g101
ssg82
g4535
sg75
(lp4547
S':'
asbag68
(g89
g70
NtRp4548
(dp4549
g73
(dp4550
sg82
g4535
sg75
(lp4551
g68
(g69
g70
NtRp4552
(dp4553
g73
(dp4554
g81
I5
ssg82
g4548
sg75
(lp4555
g3308
asbasbasbag68
(g84
g70
NtRp4556
(dp4557
g73
(dp4558
sg82
g3821
sg75
(lp4559
g68
(g89
g70
NtRp4560
(dp4561
g73
(dp4562
g93
g94
ssg82
g4556
sg75
(lp4563
S'status'
p4564
asbag68
(g89
g70
NtRp4565
(dp4566
g73
(dp4567
g100
g101
ssg82
g4556
sg75
(lp4568
S':'
asbag68
(g89
g70
NtRp4569
(dp4570
g73
(dp4571
sg82
g4556
sg75
(lp4572
g68
(g69
g70
NtRp4573
(dp4574
g73
(dp4575
g81
I5
ssg82
g4569
sg75
(lp4576
S'200'
p4577
asbasbasbag68
(g84
g70
NtRp4578
(dp4579
g73
(dp4580
sg82
g3821
sg75
(lp4581
g68
(g89
g70
NtRp4582
(dp4583
g73
(dp4584
g93
g94
ssg82
g4578
sg75
(lp4585
S'view'
p4586
asbag68
(g89
g70
NtRp4587
(dp4588
g73
(dp4589
g100
g101
ssg82
g4578
sg75
(lp4590
S':'
asbag68
(g89
g70
NtRp4591
(dp4592
g73
(dp4593
sg82
g4578
sg75
(lp4594
g68
(g69
g70
NtRp4595
(dp4596
g73
(dp4597
g81
I5
ssg82
g4591
sg75
(lp4598
S'default/zuoye.html'
p4599
asbasbasbasbasbsS'locals'
p4600
(dp4601
g4
S"r'C:\\Python27\\web2py\\applications\\hw4\\models\\db.py'"
p4602
sg6
S'"# -*- coding: utf-8 -*-\\n\\n#######################...\\n                Field(\'chengji\'),label=\'\\xe6\\x88\\x90\\xe7\\xbb\\xa9\')"'
p4603
sssS'traceback'
p4604
S'Traceback (most recent call last):\n  File "C:\\Python27\\web2py\\gluon\\restricted.py", line 211, in restricted\n    ccode = compile2(code, layer)\n  File "C:\\Python27\\web2py\\gluon\\restricted.py", line 194, in compile2\n    return compile(code.rstrip().replace(\'\\r\\n\', \'\\n\') + \'\\n\', layer, \'exec\')\n  File "C:\\Python27\\web2py\\applications\\hw4\\models\\db.py", line 143\n    db.define_table(\'wangpan\',\n     ^\nSyntaxError: invalid syntax\n'
p4605
s.