(dp1
S'output'
p2
S"<type 'exceptions.SyntaxError'> invalid syntax (default/defen.html, line 83)"
p3
sS'layer'
p4
S'C:\\Python27\\web2py\\applications\\hw4\\views\\default/defen.html'
p5
sS'code'
p6
S'response.write(\'<!DOCTYPE html>\\n<!-- paulirish.com/2008/conditional-stylesheets-vs-css-hacks-answer-neither/ -->\\n<!--[if lt IE 7]><html class="ie ie6 ie-lte9 ie-lte8 ie-lte7 no-js" lang="\', escape=False)\nresponse.write(T.accepted_language or \'en\')\nresponse.write(\'"> <![endif]-->\\n<!--[if IE 7]><html class="ie ie7 ie-lte9 ie-lte8 ie-lte7 no-js" lang="\', escape=False)\nresponse.write(T.accepted_language or \'en\')\nresponse.write(\'"> <![endif]-->\\n<!--[if IE 8]><html class="ie ie8 ie-lte9 ie-lte8 no-js" lang="\', escape=False)\nresponse.write(T.accepted_language or \'en\')\nresponse.write(\'"> <![endif]-->\\n<!--[if IE 9]><html class="ie9 ie-lte9 no-js" lang="\', escape=False)\nresponse.write(T.accepted_language or \'en\')\nresponse.write(\'"> <![endif]-->\\n<!--[if (gt IE 9)|!(IE)]><!--> <html class="no-js" lang="\', escape=False)\nresponse.write(T.accepted_language or \'en\')\nresponse.write(\'"> <!--<![endif]-->\\n<head>\\n  <meta charset="utf-8" />\\n  <!-- www.phpied.com/conditional-comments-block-downloads/ -->\\n  <!-- Always force latest IE rendering engine\\n       (even in intranet) & Chrome Frame\\n       Remove this if you use the .htaccess -->\\n  <!--[if IE]>\\n      <meta http-equiv="X-UA-Compatible" content="IE=edge\', escape=False)\nresponse.write(not request.is_local and \',chrome=1\' or \'\')\nresponse.write(\'">\\n      <![endif]-->\\n\\n  <title>\', escape=False)\nresponse.write(response.title or request.application)\nresponse.write(\'</title>\\n\\n  <!-- http://dev.w3.org/html5/markup/meta.name.html -->\\n  <meta name="application-name" content="\', escape=False)\nresponse.write(request.application)\nresponse.write(\'" />\\n\\n  <!-- Speaking of Google, don\\\'t forget to set your site up:\\n       http://google.com/webmasters -->\\n  <meta name="google-site-verification" content="" />\\n\\n  <!--  Mobile Viewport Fix\\n        j.mp/mobileviewport & davidbcalhoun.com/2010/viewport-metatag\\n        device-width: Occupy full width of the screen in its current orientation\\n        initial-scale = 1.0 retains dimensions instead of zooming out if page height > device height\\n        user-scalable = yes allows the user to zoom in -->\\n  <meta name="viewport" content="width=device-width, initial-scale=1.0" />\\n\\n  <link rel="shortcut icon" href="\', escape=False)\nresponse.write(URL(\'static\',\'images/favicon.ico\'))\nresponse.write(\'" type="image/x-icon">\\n  <link rel="apple-touch-icon" href="\', escape=False)\nresponse.write(URL(\'static\',\'images/favicon.png\'))\nresponse.write(\'">\\n\\n  <!-- All JavaScript at the bottom, except for Modernizr which enables\\n       HTML5 elements & feature detects -->\\n  <script src="\', escape=False)\nresponse.write(URL(\'static\',\'js/modernizr.custom.js\'))\nresponse.write(\'"></script>\\n\\n  <!-- include stylesheets -->\\n  \', escape=False)\nresponse.files.append(URL(\'static\',\'css/web2py.css\'))\nresponse.files.append(URL(\'static\',\'css/bootstrap.min.css\'))\nresponse.files.append(URL(\'static\',\'css/bootstrap-responsive.min.css\'))\nresponse.files.append(URL(\'static\',\'css/web2py_bootstrap.css\'))\nresponse.write(\'\\n\\n  \', escape=False)\nresponse.write(\'<script type="text/javascript"><!--\\n    // These variables are used by the web2py_ajax_init function in web2py_ajax.js (which is loaded below).\\n    var w2p_ajax_confirm_message = "\', escape=False)\nresponse.write(T(\'Are you sure you want to delete this object?\'))\nresponse.write(\'";\\n    var w2p_ajax_date_format = "\', escape=False)\nresponse.write(T(\'%Y-%m-%d\'))\nresponse.write(\'";\\n    var w2p_ajax_datetime_format = "\', escape=False)\nresponse.write(T(\'%Y-%m-%d %H:%M:%S\'))\nresponse.write(\'";\\n    //--></script>\\n\', escape=False)\nresponse.files.insert(0,URL(\'static\',\'js/jquery.js\'))\nresponse.files.insert(1,URL(\'static\',\'css/calendar.css\'))\nresponse.files.insert(2,URL(\'static\',\'js/calendar.js\'))\nresponse.files.insert(3,URL(\'static\',\'js/web2py.js\'))\nresponse.include_meta()\nresponse.include_files()\nresponse.write(\'\\n\', escape=False)\nresponse.write(\'\\n\\n  \', escape=False)\n# using sidebars need to know what sidebar you want to use\nleft_sidebar_enabled = globals().get(\'left_sidebar_enabled\',False)\nright_sidebar_enabled = globals().get(\'right_sidebar_enabled\',False)\nmiddle_columns = {0:\'span12\',1:\'span9\',2:\'span6\'}[\n(left_sidebar_enabled and 1 or 0)+(right_sidebar_enabled and 1 or 0)]\nresponse.write(\'\\n\\n  <!-- uncomment here to load jquery-ui\\n       <link rel="stylesheet" href="http://ajax.googleapis.com/ajax/libs/jqueryui/1.8.16/themes/base/jquery-ui.css" type="text/css" media="all" />\\n       <script src="http://ajax.googleapis.com/ajax/libs/jqueryui/1.8.16/jquery-ui.min.js" type="text/javascript"></script>\\n       uncomment to load jquery-ui //-->\\n  <noscript><link href="\', escape=False)\nresponse.write(URL(\'static\', \'css/web2py_bootstrap_nojs.css\'))\nresponse.write(\'" rel="stylesheet" type="text/css" /></noscript>\\n  \', escape=False)\nresponse.write(\'\\n</head>\\n\\n<body>\\n  <!-- Navbar ================================================== -->\\n  <div class="navbar navbar-inverse navbar-fixed-top">\\n    <div class="flash">\', escape=False)\nresponse.write(response.flash or \'\')\nresponse.write(\'</div>\\n    <div class="navbar-inner">\\n      <div class="container">\\n        <!-- the next tag is necessary for bootstrap menus, do not remove -->\\n        <button type="button" class="btn btn-navbar" data-toggle="collapse" data-target=".nav-collapse">\\n          <span class="icon-bar"></span>\\n          <span class="icon-bar"></span>\\n          <span class="icon-bar"></span>\\n        </button>\\n\\t\', escape=False)\nresponse.write(response.logo or \'\')\nresponse.write(\'\\n        <ul id="navbar" class="nav pull-right">\', escape=False)\nresponse.write(\'auth\' in globals() and auth.navbar(mode="dropdown") or \'\')\nresponse.write(\'</ul>\\n        <div class="nav-collapse">\\n          \', escape=False)\nis_mobile=request.user_agent().is_mobile\nresponse.write(\'\\n          \', escape=False)\nif response.menu:\n    response.write(\'\\n          \', escape=False)\n    response.write(MENU(response.menu, _class=\'mobile-menu nav\' if is_mobile else \'nav\',mobile=is_mobile,li_class=\'dropdown\',ul_class=\'dropdown-menu\'))\n    response.write(\'\\n          \', escape=False)\n    pass\nresponse.write(\'\\n        </div><!--/.nav-collapse -->\\n      </div>\\n    </div>\\n  </div><!--/top navbar -->\\n\\n  <div class="container">\\n    <!-- Masthead ================================================== -->\\n    <header class="mastheader row" id="header">\\n        <div class="span12">\\n            <div class="page-header">\\n                <h1>\\n                    \', escape=False)\nresponse.write(response.title or request.application)\nresponse.write(\'\\n                    <small>\', escape=False)\nresponse.write(response.subtitle or \'\')\nresponse.write(\'</small>\\n                </h1>\\n            </div>\\n        </div>\\n    </header>\\n\\n    <section id="main" class="main row">\\n        \', escape=False)\nif left_sidebar_enabled:\n    response.write(\'\\n        <div class="span3 left-sidebar">\\n            \', escape=False)\n    response.write(\'\\n            <h3>Left Sidebar</h3>\\n            <p></p>\\n            \', escape=False)\n    response.write(\'\\n        </div>\\n        \', escape=False)\n    pass\nresponse.write(\'\\n\\n        <div class="\', escape=False)\nresponse.write(middle_columns)\nresponse.write(\'">\\n            \', escape=False)\nresponse.write(\'\\n            \', escape=False)\nresponse.write(\'\\r\\n\\r\\n\', escape=False)\nresponse.write(SQLTABLE(rows,\ntruncate=100)\nresponse.write(\'\\r\\n<br>\\r\\n\\xe5\\xbe\\x97\\xe5\\x88\\x86:\', escape=False)\nresponse.write(cj)\nresponse.write(\'\\r\\n\', escape=False)\nresponse.write(\'\\n            \', escape=False)\nresponse.write(\'\\n        </div>\\n\\n        \', escape=False)\nif right_sidebar_enabled:\n    response.write(\'\\n        <div class="span3">\\n            \', escape=False)\n    response.write(\'\\n            <h3>Right Sidebar</h3>\\n            <p></p>\\n            \', escape=False)\n    response.write(\'\\n        </div>\\n        \', escape=False)\n    pass\nresponse.write(\'\\n    </section><!--/main-->\\n\\n    <!-- Footer ================================================== -->\\n    <div class="row">\\n        <footer class="footer span12" id="footer">\\n            <div class="footer-content">\\n                \', escape=False)\nresponse.write(\' <!-- this is default footer -->\\n                <div class="copyright pull-left">\', escape=False)\nresponse.write(T(\'Copyright\'))\nresponse.write(\' &#169; \', escape=False)\nresponse.write(request.now.year)\nresponse.write(\'</div>\\n                <div id="poweredBy" class="pull-right">\\n                    \', escape=False)\nresponse.write(\'Powered by\')\nresponse.write(\'\\n                    <a href="http://www.web2py.com/">web2py</a>\\n                </div>\\n                \', escape=False)\nresponse.write(\'\\n            </div>\\n        </footer>\\n    </div>\\n\\n  </div> <!-- /container -->\\n\\n  <!-- The javascript =============================================\\n       (Placed at the end of the document so the pages load faster) -->\\n  <script src="\', escape=False)\nresponse.write(URL(\'static\',\'js/bootstrap.min.js\'))\nresponse.write(\'"></script>\\n  <script src="\', escape=False)\nresponse.write(URL(\'static\',\'js/web2py_bootstrap.js\'))\nresponse.write(\'"></script>\\n  <!--[if lt IE 7 ]>\\n      <script src="\', escape=False)\nresponse.write(URL(\'static\',\'js/dd_belatedpng.js\'))\nresponse.write(\'"></script>\\n      <script> DD_belatedPNG.fix(\\\'img, .png_bg\\\'); //fix any <img> or .png_bg background-images </script>\\n      <![endif]-->\\n  \\n  \', escape=False)\nif response.google_analytics_id:\n    response.write(\'\\n  <script src="\', escape=False)\n    response.write(URL(\'static\',\'js/analytics.js\'))\n    response.write(\'"></script>\\n  <script type="text/javascript">\\n  analytics.initialize({\\n    \\\'Google Analytics\\\':{trackingId:\\\'\', escape=False)\n    response.write(response.google_analytics_id)\n    response.write("\'} \\n  });</script>\\n  ", escape=False)\n    pass\nresponse.write(\'\\n  <!--\\n  <script src="\', escape=False)\nresponse.write(URL(\'static\',\'js/share.js\',vars=dict(static=URL(\'static\',\'images\'))))\nresponse.write(\'"></script>\\n  -->\\n</body>\\n</html>\\n\\n\', escape=False)'
p7
sS'snapshot'
p8
(dp9
S'exception'
p10
(dp11
S'__getslice__'
p12
S"<method-wrapper '__getslice__' of exceptions.SyntaxError object>"
p13
sS'text'
p14
S'"response.write(\'\\\\r\\\\n<br>\\\\r\\\\n\\\\xe5\\\\xbe\\\\x97\\\\xe5\\\\x88\\\\x86:\', escape=False)\\n"'
p15
sS'__str__'
p16
S"<method-wrapper '__str__' of exceptions.SyntaxError object>"
p17
sS'__reduce__'
p18
S'<built-in method __reduce__ of exceptions.SyntaxError object>'
p19
sS'__dict__'
p20
S'{}'
p21
sS'__sizeof__'
p22
S'<built-in method __sizeof__ of exceptions.SyntaxError object>'
p23
sS'__init__'
p24
S"<method-wrapper '__init__' of exceptions.SyntaxError object>"
p25
sS'__setattr__'
p26
S"<method-wrapper '__setattr__' of exceptions.SyntaxError object>"
p27
sS'__reduce_ex__'
p28
S'<built-in method __reduce_ex__ of exceptions.SyntaxError object>'
p29
sS'__new__'
p30
S'<built-in method __new__ of type object>'
p31
sS'__format__'
p32
S'<built-in method __format__ of exceptions.SyntaxError object>'
p33
sS'__class__'
p34
S"<type 'exceptions.SyntaxError'>"
p35
sS'filename'
p36
S"r'C:\\Python27\\web2py\\applications\\hw4\\views\\default/defen.html'"
p37
sS'lineno'
p38
S'83'
p39
sS'msg'
p40
S"'invalid syntax'"
p41
sS'__doc__'
p42
S"'Invalid syntax.'"
p43
sS'__getitem__'
p44
S"<method-wrapper '__getitem__' of exceptions.SyntaxError object>"
p45
sS'__setstate__'
p46
S'<built-in method __setstate__ of exceptions.SyntaxError object>'
p47
sS'__getattribute__'
p48
S"<method-wrapper '__getattribute__' of exceptions.SyntaxError object>"
p49
sS'print_file_and_line'
p50
S'None'
p51
sS'args'
p52
S'(\'invalid syntax\', (r\'C:\\Python27\\web2py\\applications\\hw4\\views\\default/defen.html\', 83, 8, "response.write(\'\\\\r\\\\n<br>\\\\r\\\\n\\\\xe5\\\\xbe\\\\x97\\\\xe5\\\\x88\\\\x86:\', escape=False)\\n"))'
p53
sS'__subclasshook__'
p54
S'<built-in method __subclasshook__ of type object>'
p55
sS'offset'
p56
S'8'
sS'__unicode__'
p57
S'<built-in method __unicode__ of exceptions.SyntaxError object>'
p58
sS'__delattr__'
p59
S"<method-wrapper '__delattr__' of exceptions.SyntaxError object>"
p60
sS'__repr__'
p61
S"<method-wrapper '__repr__' of exceptions.SyntaxError object>"
p62
sS'__hash__'
p63
S"<method-wrapper '__hash__' of exceptions.SyntaxError object>"
p64
ssS'evalue'
p65
S'invalid syntax (default/defen.html, line 83)'
p66
sS'request'
p67
ccopy_reg
_reconstructor
p68
(cgluon.html
BEAUTIFY
p69
c__builtin__
object
p70
NtRp71
(dp72
S'attributes'
p73
(dp74
sS'components'
p75
(lp76
g68
(cgluon.html
TABLE
p77
g70
NtRp78
(dp79
g73
(dp80
S'level'
p81
I5
ssS'parent'
p82
Nsg75
(lp83
g68
(cgluon.html
TR
p84
g70
NtRp85
(dp86
g73
(dp87
sg82
g78
sg75
(lp88
g68
(cgluon.html
TD
p89
g70
NtRp90
(dp91
g73
(dp92
S'_style'
p93
S'font-weight:bold;vertical-align:top'
p94
ssg82
g85
sg75
(lp95
S'ajax'
p96
asbag68
(g89
g70
NtRp97
(dp98
g73
(dp99
S'_valign'
p100
S'top'
p101
ssg82
g85
sg75
(lp102
S':'
asbag68
(g89
g70
NtRp103
(dp104
g73
(dp105
sg82
g85
sg75
(lp106
g68
(g69
g70
NtRp107
(dp108
g73
(dp109
g81
I5
ssg82
g103
sg75
(lp110
S'False'
p111
asbasbasbag68
(g84
g70
NtRp112
(dp113
g73
(dp114
sg82
g78
sg75
(lp115
g68
(g89
g70
NtRp116
(dp117
g73
(dp118
g93
g94
ssg82
g112
sg75
(lp119
S'application'
p120
asbag68
(g89
g70
NtRp121
(dp122
g73
(dp123
g100
g101
ssg82
g112
sg75
(lp124
S':'
asbag68
(g89
g70
NtRp125
(dp126
g73
(dp127
sg82
g112
sg75
(lp128
g68
(g69
g70
NtRp129
(dp130
g73
(dp131
g81
I5
ssg82
g125
sg75
(lp132
S'hw4'
p133
asbasbasbag68
(g84
g70
NtRp134
(dp135
g73
(dp136
sg82
g78
sg75
(lp137
g68
(g89
g70
NtRp138
(dp139
g73
(dp140
g93
g94
ssg82
g134
sg75
(lp141
g52
asbag68
(g89
g70
NtRp142
(dp143
g73
(dp144
g100
g101
ssg82
g134
sg75
(lp145
S':'
asbag68
(g89
g70
NtRp146
(dp147
g73
(dp148
sg82
g134
sg75
(lp149
g68
(g69
g70
NtRp150
(dp151
g73
(dp152
g81
I5
ssg82
g146
sg75
(lp153
g68
(g77
g70
NtRp154
(dp155
g73
(dp156
g81
I4
ssg82
Nsg75
(lp157
g68
(g84
g70
NtRp158
(dp159
g73
(dp160
sg82
g154
sg75
(lp161
g68
(g89
g70
NtRp162
(dp163
g73
(dp164
sg82
g158
sg75
(lp165
g68
(g69
g70
NtRp166
(dp167
g73
(dp168
g81
I4
ssg82
g162
sg75
(lp169
S'1'
asbasbasbasbasbasbasbag68
(g84
g70
NtRp170
(dp171
g73
(dp172
sg82
g78
sg75
(lp173
g68
(g89
g70
NtRp174
(dp175
g73
(dp176
g93
g94
ssg82
g170
sg75
(lp177
S'body'
p178
asbag68
(g89
g70
NtRp179
(dp180
g73
(dp181
g100
g101
ssg82
g170
sg75
(lp182
S':'
asbag68
(g89
g70
NtRp183
(dp184
g73
(dp185
sg82
g170
sg75
(lp186
g68
(g69
g70
NtRp187
(dp188
g73
(dp189
g81
I5
ssg82
g183
sg75
(lp190
S'<cStringIO.StringO object at 0x05D8ABE0>'
p191
asbasbasbag68
(g84
g70
NtRp192
(dp193
g73
(dp194
sg82
g78
sg75
(lp195
g68
(g89
g70
NtRp196
(dp197
g73
(dp198
g93
g94
ssg82
g192
sg75
(lp199
S'cid'
p200
asbag68
(g89
g70
NtRp201
(dp202
g73
(dp203
g100
g101
ssg82
g192
sg75
(lp204
S':'
asbag68
(g89
g70
NtRp205
(dp206
g73
(dp207
sg82
g192
sg75
(lp208
g68
(g69
g70
NtRp209
(dp210
g73
(dp211
g81
I5
ssg82
g205
sg75
(lp212
S'None'
p213
asbasbasbag68
(g84
g70
NtRp214
(dp215
g73
(dp216
sg82
g78
sg75
(lp217
g68
(g89
g70
NtRp218
(dp219
g73
(dp220
g93
g94
ssg82
g214
sg75
(lp221
S'client'
p222
asbag68
(g89
g70
NtRp223
(dp224
g73
(dp225
g100
g101
ssg82
g214
sg75
(lp226
S':'
asbag68
(g89
g70
NtRp227
(dp228
g73
(dp229
sg82
g214
sg75
(lp230
g68
(g69
g70
NtRp231
(dp232
g73
(dp233
g81
I5
ssg82
g227
sg75
(lp234
S'127.0.0.1'
p235
asbasbasbag68
(g84
g70
NtRp236
(dp237
g73
(dp238
sg82
g78
sg75
(lp239
g68
(g89
g70
NtRp240
(dp241
g73
(dp242
g93
g94
ssg82
g236
sg75
(lp243
S'controller'
p244
asbag68
(g89
g70
NtRp245
(dp246
g73
(dp247
g100
g101
ssg82
g236
sg75
(lp248
S':'
asbag68
(g89
g70
NtRp249
(dp250
g73
(dp251
sg82
g236
sg75
(lp252
g68
(g69
g70
NtRp253
(dp254
g73
(dp255
g81
I5
ssg82
g249
sg75
(lp256
S'default'
p257
asbasbasbag68
(g84
g70
NtRp258
(dp259
g73
(dp260
sg82
g78
sg75
(lp261
g68
(g89
g70
NtRp262
(dp263
g73
(dp264
g93
g94
ssg82
g258
sg75
(lp265
S'cookies'
p266
asbag68
(g89
g70
NtRp267
(dp268
g73
(dp269
g100
g101
ssg82
g258
sg75
(lp270
S':'
asbag68
(g89
g70
NtRp271
(dp272
g73
(dp273
sg82
g258
sg75
(lp274
g68
(g69
g70
NtRp275
(dp276
g73
(dp277
g81
I5
ssg82
g271
sg75
(lp278
g68
(g77
g70
NtRp279
(dp280
g73
(dp281
g81
I4
ssg82
Nsg75
(lp282
g68
(g84
g70
NtRp283
(dp284
g73
(dp285
sg82
g279
sg75
(lp286
g68
(g89
g70
NtRp287
(dp288
g73
(dp289
g93
g94
ssg82
g283
sg75
(lp290
S'session_id_admin'
p291
asbag68
(g89
g70
NtRp292
(dp293
g73
(dp294
g100
g101
ssg82
g283
sg75
(lp295
S':'
asbag68
(g89
g70
NtRp296
(dp297
g73
(dp298
sg82
g283
sg75
(lp299
g68
(g69
g70
NtRp300
(dp301
g73
(dp302
g81
I4
ssg82
g296
sg75
(lp303
S'127.0.0.1-b1e88ef7-ea25-4059-bb8e-869ec39839ee'
p304
ag68
(g77
g70
NtRp305
(dp306
g73
(dp307
g81
I3
ssg82
Nsg75
(lp308
g68
(g84
g70
NtRp309
(dp310
g73
(dp311
sg82
g305
sg75
(lp312
g68
(g89
g70
NtRp313
(dp314
g73
(dp315
g93
g94
ssg82
g309
sg75
(lp316
S'comment'
p317
asbag68
(g89
g70
NtRp318
(dp319
g73
(dp320
g100
g101
ssg82
g309
sg75
(lp321
S':'
asbag68
(g89
g70
NtRp322
(dp323
g73
(dp324
sg82
g309
sg75
(lp325
g68
(g69
g70
NtRp326
(dp327
g73
(dp328
g81
I3
ssg82
g322
sg75
(lp329
S''
asbasbasbag68
(g84
g70
NtRp330
(dp331
g73
(dp332
sg82
g305
sg75
(lp333
g68
(g89
g70
NtRp334
(dp335
g73
(dp336
g93
g94
ssg82
g330
sg75
(lp337
S'domain'
p338
asbag68
(g89
g70
NtRp339
(dp340
g73
(dp341
g100
g101
ssg82
g330
sg75
(lp342
S':'
asbag68
(g89
g70
NtRp343
(dp344
g73
(dp345
sg82
g330
sg75
(lp346
g68
(g69
g70
NtRp347
(dp348
g73
(dp349
g81
I3
ssg82
g343
sg75
(lp350
S''
asbasbasbag68
(g84
g70
NtRp351
(dp352
g73
(dp353
sg82
g305
sg75
(lp354
g68
(g89
g70
NtRp355
(dp356
g73
(dp357
g93
g94
ssg82
g351
sg75
(lp358
S'expires'
p359
asbag68
(g89
g70
NtRp360
(dp361
g73
(dp362
g100
g101
ssg82
g351
sg75
(lp363
S':'
asbag68
(g89
g70
NtRp364
(dp365
g73
(dp366
sg82
g351
sg75
(lp367
g68
(g69
g70
NtRp368
(dp369
g73
(dp370
g81
I3
ssg82
g364
sg75
(lp371
S''
asbasbasbag68
(g84
g70
NtRp372
(dp373
g73
(dp374
sg82
g305
sg75
(lp375
g68
(g89
g70
NtRp376
(dp377
g73
(dp378
g93
g94
ssg82
g372
sg75
(lp379
S'httponly'
p380
asbag68
(g89
g70
NtRp381
(dp382
g73
(dp383
g100
g101
ssg82
g372
sg75
(lp384
S':'
asbag68
(g89
g70
NtRp385
(dp386
g73
(dp387
sg82
g372
sg75
(lp388
g68
(g69
g70
NtRp389
(dp390
g73
(dp391
g81
I3
ssg82
g385
sg75
(lp392
S''
asbasbasbag68
(g84
g70
NtRp393
(dp394
g73
(dp395
sg82
g305
sg75
(lp396
g68
(g89
g70
NtRp397
(dp398
g73
(dp399
g93
g94
ssg82
g393
sg75
(lp400
S'max-age'
p401
asbag68
(g89
g70
NtRp402
(dp403
g73
(dp404
g100
g101
ssg82
g393
sg75
(lp405
S':'
asbag68
(g89
g70
NtRp406
(dp407
g73
(dp408
sg82
g393
sg75
(lp409
g68
(g69
g70
NtRp410
(dp411
g73
(dp412
g81
I3
ssg82
g406
sg75
(lp413
S''
asbasbasbag68
(g84
g70
NtRp414
(dp415
g73
(dp416
sg82
g305
sg75
(lp417
g68
(g89
g70
NtRp418
(dp419
g73
(dp420
g93
g94
ssg82
g414
sg75
(lp421
S'path'
p422
asbag68
(g89
g70
NtRp423
(dp424
g73
(dp425
g100
g101
ssg82
g414
sg75
(lp426
S':'
asbag68
(g89
g70
NtRp427
(dp428
g73
(dp429
sg82
g414
sg75
(lp430
g68
(g69
g70
NtRp431
(dp432
g73
(dp433
g81
I3
ssg82
g427
sg75
(lp434
S''
asbasbasbag68
(g84
g70
NtRp435
(dp436
g73
(dp437
sg82
g305
sg75
(lp438
g68
(g89
g70
NtRp439
(dp440
g73
(dp441
g93
g94
ssg82
g435
sg75
(lp442
S'secure'
p443
asbag68
(g89
g70
NtRp444
(dp445
g73
(dp446
g100
g101
ssg82
g435
sg75
(lp447
S':'
asbag68
(g89
g70
NtRp448
(dp449
g73
(dp450
sg82
g435
sg75
(lp451
g68
(g69
g70
NtRp452
(dp453
g73
(dp454
g81
I3
ssg82
g448
sg75
(lp455
S''
asbasbasbag68
(g84
g70
NtRp456
(dp457
g73
(dp458
sg82
g305
sg75
(lp459
g68
(g89
g70
NtRp460
(dp461
g73
(dp462
g93
g94
ssg82
g456
sg75
(lp463
S'version'
p464
asbag68
(g89
g70
NtRp465
(dp466
g73
(dp467
g100
g101
ssg82
g456
sg75
(lp468
S':'
asbag68
(g89
g70
NtRp469
(dp470
g73
(dp471
sg82
g456
sg75
(lp472
g68
(g69
g70
NtRp473
(dp474
g73
(dp475
g81
I3
ssg82
g469
sg75
(lp476
S''
asbasbasbasbasbasbasbag68
(g84
g70
NtRp477
(dp478
g73
(dp479
sg82
g279
sg75
(lp480
g68
(g89
g70
NtRp481
(dp482
g73
(dp483
g93
g94
ssg82
g477
sg75
(lp484
S'session_id_hw4'
p485
asbag68
(g89
g70
NtRp486
(dp487
g73
(dp488
g100
g101
ssg82
g477
sg75
(lp489
S':'
asbag68
(g89
g70
NtRp490
(dp491
g73
(dp492
sg82
g477
sg75
(lp493
g68
(g69
g70
NtRp494
(dp495
g73
(dp496
g81
I4
ssg82
g490
sg75
(lp497
S'127.0.0.1-d139063e-685d-42e3-b113-7f8d2e110a66'
p498
ag68
(g77
g70
NtRp499
(dp500
g73
(dp501
g81
I3
ssg82
Nsg75
(lp502
g68
(g84
g70
NtRp503
(dp504
g73
(dp505
sg82
g499
sg75
(lp506
g68
(g89
g70
NtRp507
(dp508
g73
(dp509
g93
g94
ssg82
g503
sg75
(lp510
g317
asbag68
(g89
g70
NtRp511
(dp512
g73
(dp513
g100
g101
ssg82
g503
sg75
(lp514
S':'
asbag68
(g89
g70
NtRp515
(dp516
g73
(dp517
sg82
g503
sg75
(lp518
g68
(g69
g70
NtRp519
(dp520
g73
(dp521
g81
I3
ssg82
g515
sg75
(lp522
S''
asbasbasbag68
(g84
g70
NtRp523
(dp524
g73
(dp525
sg82
g499
sg75
(lp526
g68
(g89
g70
NtRp527
(dp528
g73
(dp529
g93
g94
ssg82
g523
sg75
(lp530
g338
asbag68
(g89
g70
NtRp531
(dp532
g73
(dp533
g100
g101
ssg82
g523
sg75
(lp534
S':'
asbag68
(g89
g70
NtRp535
(dp536
g73
(dp537
sg82
g523
sg75
(lp538
g68
(g69
g70
NtRp539
(dp540
g73
(dp541
g81
I3
ssg82
g535
sg75
(lp542
S''
asbasbasbag68
(g84
g70
NtRp543
(dp544
g73
(dp545
sg82
g499
sg75
(lp546
g68
(g89
g70
NtRp547
(dp548
g73
(dp549
g93
g94
ssg82
g543
sg75
(lp550
g359
asbag68
(g89
g70
NtRp551
(dp552
g73
(dp553
g100
g101
ssg82
g543
sg75
(lp554
S':'
asbag68
(g89
g70
NtRp555
(dp556
g73
(dp557
sg82
g543
sg75
(lp558
g68
(g69
g70
NtRp559
(dp560
g73
(dp561
g81
I3
ssg82
g555
sg75
(lp562
S''
asbasbasbag68
(g84
g70
NtRp563
(dp564
g73
(dp565
sg82
g499
sg75
(lp566
g68
(g89
g70
NtRp567
(dp568
g73
(dp569
g93
g94
ssg82
g563
sg75
(lp570
g380
asbag68
(g89
g70
NtRp571
(dp572
g73
(dp573
g100
g101
ssg82
g563
sg75
(lp574
S':'
asbag68
(g89
g70
NtRp575
(dp576
g73
(dp577
sg82
g563
sg75
(lp578
g68
(g69
g70
NtRp579
(dp580
g73
(dp581
g81
I3
ssg82
g575
sg75
(lp582
S''
asbasbasbag68
(g84
g70
NtRp583
(dp584
g73
(dp585
sg82
g499
sg75
(lp586
g68
(g89
g70
NtRp587
(dp588
g73
(dp589
g93
g94
ssg82
g583
sg75
(lp590
g401
asbag68
(g89
g70
NtRp591
(dp592
g73
(dp593
g100
g101
ssg82
g583
sg75
(lp594
S':'
asbag68
(g89
g70
NtRp595
(dp596
g73
(dp597
sg82
g583
sg75
(lp598
g68
(g69
g70
NtRp599
(dp600
g73
(dp601
g81
I3
ssg82
g595
sg75
(lp602
S''
asbasbasbag68
(g84
g70
NtRp603
(dp604
g73
(dp605
sg82
g499
sg75
(lp606
g68
(g89
g70
NtRp607
(dp608
g73
(dp609
g93
g94
ssg82
g603
sg75
(lp610
g422
asbag68
(g89
g70
NtRp611
(dp612
g73
(dp613
g100
g101
ssg82
g603
sg75
(lp614
S':'
asbag68
(g89
g70
NtRp615
(dp616
g73
(dp617
sg82
g603
sg75
(lp618
g68
(g69
g70
NtRp619
(dp620
g73
(dp621
g81
I3
ssg82
g615
sg75
(lp622
S''
asbasbasbag68
(g84
g70
NtRp623
(dp624
g73
(dp625
sg82
g499
sg75
(lp626
g68
(g89
g70
NtRp627
(dp628
g73
(dp629
g93
g94
ssg82
g623
sg75
(lp630
g443
asbag68
(g89
g70
NtRp631
(dp632
g73
(dp633
g100
g101
ssg82
g623
sg75
(lp634
S':'
asbag68
(g89
g70
NtRp635
(dp636
g73
(dp637
sg82
g623
sg75
(lp638
g68
(g69
g70
NtRp639
(dp640
g73
(dp641
g81
I3
ssg82
g635
sg75
(lp642
S''
asbasbasbag68
(g84
g70
NtRp643
(dp644
g73
(dp645
sg82
g499
sg75
(lp646
g68
(g89
g70
NtRp647
(dp648
g73
(dp649
g93
g94
ssg82
g643
sg75
(lp650
g464
asbag68
(g89
g70
NtRp651
(dp652
g73
(dp653
g100
g101
ssg82
g643
sg75
(lp654
S':'
asbag68
(g89
g70
NtRp655
(dp656
g73
(dp657
sg82
g643
sg75
(lp658
g68
(g69
g70
NtRp659
(dp660
g73
(dp661
g81
I3
ssg82
g655
sg75
(lp662
S''
asbasbasbasbasbasbasbasbasbasbasbag68
(g84
g70
NtRp663
(dp664
g73
(dp665
sg82
g78
sg75
(lp666
g68
(g89
g70
NtRp667
(dp668
g73
(dp669
g93
g94
ssg82
g663
sg75
(lp670
S'env'
p671
asbag68
(g89
g70
NtRp672
(dp673
g73
(dp674
g100
g101
ssg82
g663
sg75
(lp675
S':'
asbag68
(g89
g70
NtRp676
(dp677
g73
(dp678
sg82
g663
sg75
(lp679
g68
(g69
g70
NtRp680
(dp681
g73
(dp682
g81
I5
ssg82
g676
sg75
(lp683
g68
(g77
g70
NtRp684
(dp685
g73
(dp686
g81
I4
ssg82
Nsg75
(lp687
g68
(g84
g70
NtRp688
(dp689
g73
(dp690
sg82
g684
sg75
(lp691
g68
(g89
g70
NtRp692
(dp693
g73
(dp694
g93
g94
ssg82
g688
sg75
(lp695
S'app_folders'
p696
asbag68
(g89
g70
NtRp697
(dp698
g73
(dp699
g100
g101
ssg82
g688
sg75
(lp700
S':'
asbag68
(g89
g70
NtRp701
(dp702
g73
(dp703
sg82
g688
sg75
(lp704
g68
(g69
g70
NtRp705
(dp706
g73
(dp707
g81
I4
ssg82
g701
sg75
(lp708
S"set(['C:\\\\Python27\\\\web2py\\\\applications\\\\image\\\\', 'C:\\\\Python27\\\\web2py\\\\applications\\\\welcome\\\\', 'C:\\\\Python27\\\\web2py\\\\applications\\\\examples\\\\', 'C:\\\\Python27\\\\web2py\\\\applications\\\\hw4\\\\', 'C:\\\\Python27\\\\web2py\\\\applications\\\\admin\\\\', 'C:\\\\Python27\\\\web2py\\\\applications\\\\hw3\\\\'])"
p709
asbasbasbag68
(g84
g70
NtRp710
(dp711
g73
(dp712
sg82
g684
sg75
(lp713
g68
(g89
g70
NtRp714
(dp715
g73
(dp716
g93
g94
ssg82
g710
sg75
(lp717
S'applications_parent'
p718
asbag68
(g89
g70
NtRp719
(dp720
g73
(dp721
g100
g101
ssg82
g710
sg75
(lp722
S':'
asbag68
(g89
g70
NtRp723
(dp724
g73
(dp725
sg82
g710
sg75
(lp726
g68
(g69
g70
NtRp727
(dp728
g73
(dp729
g81
I4
ssg82
g723
sg75
(lp730
S'C:\\Python27\\web2py'
p731
asbasbasbag68
(g84
g70
NtRp732
(dp733
g73
(dp734
sg82
g684
sg75
(lp735
g68
(g89
g70
NtRp736
(dp737
g73
(dp738
g93
g94
ssg82
g732
sg75
(lp739
S'cmd_args'
p740
asbag68
(g89
g70
NtRp741
(dp742
g73
(dp743
g100
g101
ssg82
g732
sg75
(lp744
S':'
asbag68
(g89
g70
NtRp745
(dp746
g73
(dp747
sg82
g732
sg75
(lp748
g68
(g69
g70
NtRp749
(dp750
g73
(dp751
g81
I4
ssg82
g745
sg75
(lp752
g68
(g77
g70
NtRp753
(dp754
g73
(dp755
g81
I3
ssg82
Nsg75
(lp756
sbasbasbasbag68
(g84
g70
NtRp757
(dp758
g73
(dp759
sg82
g684
sg75
(lp760
g68
(g89
g70
NtRp761
(dp762
g73
(dp763
g93
g94
ssg82
g757
sg75
(lp764
S'cmd_options'
p765
asbag68
(g89
g70
NtRp766
(dp767
g73
(dp768
g100
g101
ssg82
g757
sg75
(lp769
S':'
asbag68
(g89
g70
NtRp770
(dp771
g73
(dp772
sg82
g757
sg75
(lp773
g68
(g69
g70
NtRp774
(dp775
g73
(dp776
g81
I4
ssg82
g770
sg75
(lp777
S"<Values at 0x17800f8: {'verbose': False, 'ip': '127.0.0.1', 'with_scheduler': False, 'ips': ['192.168.1.101'], 'shutdown_timeout': 5, 'taskbar': False, 'port': 8000, 'maxthreads': None, 'softcron': False, 'server_name': 'FREESKYC-5359CC', 'bpython': False, 'nogui': False, 'pid_filename': 'httpserver.pid', 'extcron': False, 'runcron': False, 'run_system_tests': False, 'test': None, 'folder': 'C:\\\\Python27\\\\web2py', 'config': '', 'import_models': False, 'winservice': '', 'shell': None, 'run': '', 'log_filename': 'httpserver.log', 'debuglevel': 30, 'args': [''], 'socket_timeout': 5, 'ssl_ca_certificate': None, 'scheduler': None, 'profiler_filename': None, 'ssl_private_key': '', 'scheduler_groups': None, 'password': '<ask>', 'request_queue_size': 5, 'ssl_certificate': '', 'cronjob': False, 'numthreads': None, 'quiet': False, 'interfaces': None, 'minthreads': None, 'timeout': 10, 'plain': False, 'nobanner': False}>"
p778
asbasbasbag68
(g84
g70
NtRp779
(dp780
g73
(dp781
sg82
g684
sg75
(lp782
g68
(g89
g70
NtRp783
(dp784
g73
(dp785
g93
g94
ssg82
g779
sg75
(lp786
S'db_sessions'
p787
asbag68
(g89
g70
NtRp788
(dp789
g73
(dp790
g100
g101
ssg82
g779
sg75
(lp791
S':'
asbag68
(g89
g70
NtRp792
(dp793
g73
(dp794
sg82
g779
sg75
(lp795
g68
(g69
g70
NtRp796
(dp797
g73
(dp798
g81
I4
ssg82
g792
sg75
(lp799
S'set([])'
p800
asbasbasbag68
(g84
g70
NtRp801
(dp802
g73
(dp803
sg82
g684
sg75
(lp804
g68
(g89
g70
NtRp805
(dp806
g73
(dp807
g93
g94
ssg82
g801
sg75
(lp808
S'debugging'
p809
asbag68
(g89
g70
NtRp810
(dp811
g73
(dp812
g100
g101
ssg82
g801
sg75
(lp813
S':'
asbag68
(g89
g70
NtRp814
(dp815
g73
(dp816
sg82
g801
sg75
(lp817
g68
(g69
g70
NtRp818
(dp819
g73
(dp820
g81
I4
ssg82
g814
sg75
(lp821
g111
asbasbasbag68
(g84
g70
NtRp822
(dp823
g73
(dp824
sg82
g684
sg75
(lp825
g68
(g89
g70
NtRp826
(dp827
g73
(dp828
g93
g94
ssg82
g822
sg75
(lp829
S'gluon_parent'
p830
asbag68
(g89
g70
NtRp831
(dp832
g73
(dp833
g100
g101
ssg82
g822
sg75
(lp834
S':'
asbag68
(g89
g70
NtRp835
(dp836
g73
(dp837
sg82
g822
sg75
(lp838
g68
(g69
g70
NtRp839
(dp840
g73
(dp841
g81
I4
ssg82
g835
sg75
(lp842
S'C:\\Python27\\web2py'
p843
asbasbasbag68
(g84
g70
NtRp844
(dp845
g73
(dp846
sg82
g684
sg75
(lp847
g68
(g89
g70
NtRp848
(dp849
g73
(dp850
g93
g94
ssg82
g844
sg75
(lp851
S'http_accept'
p852
asbag68
(g89
g70
NtRp853
(dp854
g73
(dp855
g100
g101
ssg82
g844
sg75
(lp856
S':'
asbag68
(g89
g70
NtRp857
(dp858
g73
(dp859
sg82
g844
sg75
(lp860
g68
(g69
g70
NtRp861
(dp862
g73
(dp863
g81
I4
ssg82
g857
sg75
(lp864
S'text/html,application/xhtml+xml,application/xml;q=0.9,*/*;q=0.8'
p865
asbasbasbag68
(g84
g70
NtRp866
(dp867
g73
(dp868
sg82
g684
sg75
(lp869
g68
(g89
g70
NtRp870
(dp871
g73
(dp872
g93
g94
ssg82
g866
sg75
(lp873
S'http_accept_encoding'
p874
asbag68
(g89
g70
NtRp875
(dp876
g73
(dp877
g100
g101
ssg82
g866
sg75
(lp878
S':'
asbag68
(g89
g70
NtRp879
(dp880
g73
(dp881
sg82
g866
sg75
(lp882
g68
(g69
g70
NtRp883
(dp884
g73
(dp885
g81
I4
ssg82
g879
sg75
(lp886
S'gzip, deflate'
p887
asbasbasbag68
(g84
g70
NtRp888
(dp889
g73
(dp890
sg82
g684
sg75
(lp891
g68
(g89
g70
NtRp892
(dp893
g73
(dp894
g93
g94
ssg82
g888
sg75
(lp895
S'http_accept_language'
p896
asbag68
(g89
g70
NtRp897
(dp898
g73
(dp899
g100
g101
ssg82
g888
sg75
(lp900
S':'
asbag68
(g89
g70
NtRp901
(dp902
g73
(dp903
sg82
g888
sg75
(lp904
g68
(g69
g70
NtRp905
(dp906
g73
(dp907
g81
I4
ssg82
g901
sg75
(lp908
S'zh-cn,zh;q=0.8,en-us;q=0.5,en;q=0.3'
p909
asbasbasbag68
(g84
g70
NtRp910
(dp911
g73
(dp912
sg82
g684
sg75
(lp913
g68
(g89
g70
NtRp914
(dp915
g73
(dp916
g93
g94
ssg82
g910
sg75
(lp917
S'http_cache_control'
p918
asbag68
(g89
g70
NtRp919
(dp920
g73
(dp921
g100
g101
ssg82
g910
sg75
(lp922
S':'
asbag68
(g89
g70
NtRp923
(dp924
g73
(dp925
sg82
g910
sg75
(lp926
g68
(g69
g70
NtRp927
(dp928
g73
(dp929
g81
I4
ssg82
g923
sg75
(lp930
S'max-age=0'
p931
asbasbasbag68
(g84
g70
NtRp932
(dp933
g73
(dp934
sg82
g684
sg75
(lp935
g68
(g89
g70
NtRp936
(dp937
g73
(dp938
g93
g94
ssg82
g932
sg75
(lp939
S'http_connection'
p940
asbag68
(g89
g70
NtRp941
(dp942
g73
(dp943
g100
g101
ssg82
g932
sg75
(lp944
S':'
asbag68
(g89
g70
NtRp945
(dp946
g73
(dp947
sg82
g932
sg75
(lp948
g68
(g69
g70
NtRp949
(dp950
g73
(dp951
g81
I4
ssg82
g945
sg75
(lp952
S'keep-alive'
p953
asbasbasbag68
(g84
g70
NtRp954
(dp955
g73
(dp956
sg82
g684
sg75
(lp957
g68
(g89
g70
NtRp958
(dp959
g73
(dp960
g93
g94
ssg82
g954
sg75
(lp961
S'http_cookie'
p962
asbag68
(g89
g70
NtRp963
(dp964
g73
(dp965
g100
g101
ssg82
g954
sg75
(lp966
S':'
asbag68
(g89
g70
NtRp967
(dp968
g73
(dp969
sg82
g954
sg75
(lp970
g68
(g69
g70
NtRp971
(dp972
g73
(dp973
g81
I4
ssg82
g967
sg75
(lp974
S'session_id_admin=127.0.0.1-b1e88ef7-ea25-4059-bb8e-869ec39839ee; session_id_hw4=127.0.0.1-d139063e-685d-42e3-b113-7f8d2e110a66'
p975
asbasbasbag68
(g84
g70
NtRp976
(dp977
g73
(dp978
sg82
g684
sg75
(lp979
g68
(g89
g70
NtRp980
(dp981
g73
(dp982
g93
g94
ssg82
g976
sg75
(lp983
S'http_dnt'
p984
asbag68
(g89
g70
NtRp985
(dp986
g73
(dp987
g100
g101
ssg82
g976
sg75
(lp988
S':'
asbag68
(g89
g70
NtRp989
(dp990
g73
(dp991
sg82
g976
sg75
(lp992
g68
(g69
g70
NtRp993
(dp994
g73
(dp995
g81
I4
ssg82
g989
sg75
(lp996
S'1'
asbasbasbag68
(g84
g70
NtRp997
(dp998
g73
(dp999
sg82
g684
sg75
(lp1000
g68
(g89
g70
NtRp1001
(dp1002
g73
(dp1003
g93
g94
ssg82
g997
sg75
(lp1004
S'http_host'
p1005
asbag68
(g89
g70
NtRp1006
(dp1007
g73
(dp1008
g100
g101
ssg82
g997
sg75
(lp1009
S':'
asbag68
(g89
g70
NtRp1010
(dp1011
g73
(dp1012
sg82
g997
sg75
(lp1013
g68
(g69
g70
NtRp1014
(dp1015
g73
(dp1016
g81
I4
ssg82
g1010
sg75
(lp1017
S'localhost:8000'
p1018
asbasbasbag68
(g84
g70
NtRp1019
(dp1020
g73
(dp1021
sg82
g684
sg75
(lp1022
g68
(g89
g70
NtRp1023
(dp1024
g73
(dp1025
g93
g94
ssg82
g1019
sg75
(lp1026
S'http_referer'
p1027
asbag68
(g89
g70
NtRp1028
(dp1029
g73
(dp1030
g100
g101
ssg82
g1019
sg75
(lp1031
S':'
asbag68
(g89
g70
NtRp1032
(dp1033
g73
(dp1034
sg82
g1019
sg75
(lp1035
g68
(g69
g70
NtRp1036
(dp1037
g73
(dp1038
g81
I4
ssg82
g1032
sg75
(lp1039
S'http://localhost:8000/hw4/default/study/1'
p1040
asbasbasbag68
(g84
g70
NtRp1041
(dp1042
g73
(dp1043
sg82
g684
sg75
(lp1044
g68
(g89
g70
NtRp1045
(dp1046
g73
(dp1047
g93
g94
ssg82
g1041
sg75
(lp1048
S'http_user_agent'
p1049
asbag68
(g89
g70
NtRp1050
(dp1051
g73
(dp1052
g100
g101
ssg82
g1041
sg75
(lp1053
S':'
asbag68
(g89
g70
NtRp1054
(dp1055
g73
(dp1056
sg82
g1041
sg75
(lp1057
g68
(g69
g70
NtRp1058
(dp1059
g73
(dp1060
g81
I4
ssg82
g1054
sg75
(lp1061
S'Mozilla/5.0 (Windows NT 5.1; rv:22.0) Gecko/20100101 Firefox/22.0'
p1062
asbasbasbag68
(g84
g70
NtRp1063
(dp1064
g73
(dp1065
sg82
g684
sg75
(lp1066
g68
(g89
g70
NtRp1067
(dp1068
g73
(dp1069
g93
g94
ssg82
g1063
sg75
(lp1070
S'is_jython'
p1071
asbag68
(g89
g70
NtRp1072
(dp1073
g73
(dp1074
g100
g101
ssg82
g1063
sg75
(lp1075
S':'
asbag68
(g89
g70
NtRp1076
(dp1077
g73
(dp1078
sg82
g1063
sg75
(lp1079
g68
(g69
g70
NtRp1080
(dp1081
g73
(dp1082
g81
I4
ssg82
g1076
sg75
(lp1083
g111
asbasbasbag68
(g84
g70
NtRp1084
(dp1085
g73
(dp1086
sg82
g684
sg75
(lp1087
g68
(g89
g70
NtRp1088
(dp1089
g73
(dp1090
g93
g94
ssg82
g1084
sg75
(lp1091
S'is_pypy'
p1092
asbag68
(g89
g70
NtRp1093
(dp1094
g73
(dp1095
g100
g101
ssg82
g1084
sg75
(lp1096
S':'
asbag68
(g89
g70
NtRp1097
(dp1098
g73
(dp1099
sg82
g1084
sg75
(lp1100
g68
(g69
g70
NtRp1101
(dp1102
g73
(dp1103
g81
I4
ssg82
g1097
sg75
(lp1104
g111
asbasbasbag68
(g84
g70
NtRp1105
(dp1106
g73
(dp1107
sg82
g684
sg75
(lp1108
g68
(g89
g70
NtRp1109
(dp1110
g73
(dp1111
g93
g94
ssg82
g1105
sg75
(lp1112
S'local_hosts'
p1113
asbag68
(g89
g70
NtRp1114
(dp1115
g73
(dp1116
g100
g101
ssg82
g1105
sg75
(lp1117
S':'
asbag68
(g89
g70
NtRp1118
(dp1119
g73
(dp1120
sg82
g1105
sg75
(lp1121
g68
(g69
g70
NtRp1122
(dp1123
g73
(dp1124
g81
I4
ssg82
g1118
sg75
(lp1125
g68
(g77
g70
NtRp1126
(dp1127
g73
(dp1128
g81
I3
ssg82
Nsg75
(lp1129
g68
(g84
g70
NtRp1130
(dp1131
g73
(dp1132
sg82
g1126
sg75
(lp1133
g68
(g89
g70
NtRp1134
(dp1135
g73
(dp1136
sg82
g1130
sg75
(lp1137
g68
(g69
g70
NtRp1138
(dp1139
g73
(dp1140
g81
I3
ssg82
g1134
sg75
(lp1141
S'192.168.1.101'
p1142
asbasbasbag68
(g84
g70
NtRp1143
(dp1144
g73
(dp1145
sg82
g1126
sg75
(lp1146
g68
(g89
g70
NtRp1147
(dp1148
g73
(dp1149
sg82
g1143
sg75
(lp1150
g68
(g69
g70
NtRp1151
(dp1152
g73
(dp1153
g81
I3
ssg82
g1147
sg75
(lp1154
S'::1'
p1155
asbasbasbag68
(g84
g70
NtRp1156
(dp1157
g73
(dp1158
sg82
g1126
sg75
(lp1159
g68
(g89
g70
NtRp1160
(dp1161
g73
(dp1162
sg82
g1156
sg75
(lp1163
g68
(g69
g70
NtRp1164
(dp1165
g73
(dp1166
g81
I3
ssg82
g1160
sg75
(lp1167
S'FREESKYC-5359CC'
p1168
asbasbasbag68
(g84
g70
NtRp1169
(dp1170
g73
(dp1171
sg82
g1126
sg75
(lp1172
g68
(g89
g70
NtRp1173
(dp1174
g73
(dp1175
sg82
g1169
sg75
(lp1176
g68
(g69
g70
NtRp1177
(dp1178
g73
(dp1179
g81
I3
ssg82
g1173
sg75
(lp1180
S'::ffff:127.0.0.1'
p1181
asbasbasbag68
(g84
g70
NtRp1182
(dp1183
g73
(dp1184
sg82
g1126
sg75
(lp1185
g68
(g89
g70
NtRp1186
(dp1187
g73
(dp1188
sg82
g1182
sg75
(lp1189
g68
(g69
g70
NtRp1190
(dp1191
g73
(dp1192
g81
I3
ssg82
g1186
sg75
(lp1193
S'127.0.0.1'
p1194
asbasbasbasbasbasbasbag68
(g84
g70
NtRp1195
(dp1196
g73
(dp1197
sg82
g684
sg75
(lp1198
g68
(g89
g70
NtRp1199
(dp1200
g73
(dp1201
g93
g94
ssg82
g1195
sg75
(lp1202
S'path_info'
p1203
asbag68
(g89
g70
NtRp1204
(dp1205
g73
(dp1206
g100
g101
ssg82
g1195
sg75
(lp1207
S':'
asbag68
(g89
g70
NtRp1208
(dp1209
g73
(dp1210
sg82
g1195
sg75
(lp1211
g68
(g69
g70
NtRp1212
(dp1213
g73
(dp1214
g81
I4
ssg82
g1208
sg75
(lp1215
S'/hw4/default/defen/1'
p1216
asbasbasbag68
(g84
g70
NtRp1217
(dp1218
g73
(dp1219
sg82
g684
sg75
(lp1220
g68
(g89
g70
NtRp1221
(dp1222
g73
(dp1223
g93
g94
ssg82
g1217
sg75
(lp1224
S'query_string'
p1225
asbag68
(g89
g70
NtRp1226
(dp1227
g73
(dp1228
g100
g101
ssg82
g1217
sg75
(lp1229
S':'
asbag68
(g89
g70
NtRp1230
(dp1231
g73
(dp1232
sg82
g1217
sg75
(lp1233
g68
(g69
g70
NtRp1234
(dp1235
g73
(dp1236
g81
I4
ssg82
g1230
sg75
(lp1237
S''
asbasbasbag68
(g84
g70
NtRp1238
(dp1239
g73
(dp1240
sg82
g684
sg75
(lp1241
g68
(g89
g70
NtRp1242
(dp1243
g73
(dp1244
g93
g94
ssg82
g1238
sg75
(lp1245
S'remote_addr'
p1246
asbag68
(g89
g70
NtRp1247
(dp1248
g73
(dp1249
g100
g101
ssg82
g1238
sg75
(lp1250
S':'
asbag68
(g89
g70
NtRp1251
(dp1252
g73
(dp1253
sg82
g1238
sg75
(lp1254
g68
(g69
g70
NtRp1255
(dp1256
g73
(dp1257
g81
I4
ssg82
g1251
sg75
(lp1258
g235
asbasbasbag68
(g84
g70
NtRp1259
(dp1260
g73
(dp1261
sg82
g684
sg75
(lp1262
g68
(g89
g70
NtRp1263
(dp1264
g73
(dp1265
g93
g94
ssg82
g1259
sg75
(lp1266
S'remote_port'
p1267
asbag68
(g89
g70
NtRp1268
(dp1269
g73
(dp1270
g100
g101
ssg82
g1259
sg75
(lp1271
S':'
asbag68
(g89
g70
NtRp1272
(dp1273
g73
(dp1274
sg82
g1259
sg75
(lp1275
g68
(g69
g70
NtRp1276
(dp1277
g73
(dp1278
g81
I4
ssg82
g1272
sg75
(lp1279
S'2948'
p1280
asbasbasbag68
(g84
g70
NtRp1281
(dp1282
g73
(dp1283
sg82
g684
sg75
(lp1284
g68
(g89
g70
NtRp1285
(dp1286
g73
(dp1287
g93
g94
ssg82
g1281
sg75
(lp1288
S'request_method'
p1289
asbag68
(g89
g70
NtRp1290
(dp1291
g73
(dp1292
g100
g101
ssg82
g1281
sg75
(lp1293
S':'
asbag68
(g89
g70
NtRp1294
(dp1295
g73
(dp1296
sg82
g1281
sg75
(lp1297
g68
(g69
g70
NtRp1298
(dp1299
g73
(dp1300
g81
I4
ssg82
g1294
sg75
(lp1301
S'GET'
p1302
asbasbasbag68
(g84
g70
NtRp1303
(dp1304
g73
(dp1305
sg82
g684
sg75
(lp1306
g68
(g89
g70
NtRp1307
(dp1308
g73
(dp1309
g93
g94
ssg82
g1303
sg75
(lp1310
S'request_uri'
p1311
asbag68
(g89
g70
NtRp1312
(dp1313
g73
(dp1314
g100
g101
ssg82
g1303
sg75
(lp1315
S':'
asbag68
(g89
g70
NtRp1316
(dp1317
g73
(dp1318
sg82
g1303
sg75
(lp1319
g68
(g69
g70
NtRp1320
(dp1321
g73
(dp1322
g81
I4
ssg82
g1316
sg75
(lp1323
g1216
asbasbasbag68
(g84
g70
NtRp1324
(dp1325
g73
(dp1326
sg82
g684
sg75
(lp1327
g68
(g89
g70
NtRp1328
(dp1329
g73
(dp1330
g93
g94
ssg82
g1324
sg75
(lp1331
S'script_name'
p1332
asbag68
(g89
g70
NtRp1333
(dp1334
g73
(dp1335
g100
g101
ssg82
g1324
sg75
(lp1336
S':'
asbag68
(g89
g70
NtRp1337
(dp1338
g73
(dp1339
sg82
g1324
sg75
(lp1340
g68
(g69
g70
NtRp1341
(dp1342
g73
(dp1343
g81
I4
ssg82
g1337
sg75
(lp1344
S''
asbasbasbag68
(g84
g70
NtRp1345
(dp1346
g73
(dp1347
sg82
g684
sg75
(lp1348
g68
(g89
g70
NtRp1349
(dp1350
g73
(dp1351
g93
g94
ssg82
g1345
sg75
(lp1352
S'server_name'
p1353
asbag68
(g89
g70
NtRp1354
(dp1355
g73
(dp1356
g100
g101
ssg82
g1345
sg75
(lp1357
S':'
asbag68
(g89
g70
NtRp1358
(dp1359
g73
(dp1360
sg82
g1345
sg75
(lp1361
g68
(g69
g70
NtRp1362
(dp1363
g73
(dp1364
g81
I4
ssg82
g1358
sg75
(lp1365
S'FREESKYC-5359CC'
p1366
asbasbasbag68
(g84
g70
NtRp1367
(dp1368
g73
(dp1369
sg82
g684
sg75
(lp1370
g68
(g89
g70
NtRp1371
(dp1372
g73
(dp1373
g93
g94
ssg82
g1367
sg75
(lp1374
S'server_port'
p1375
asbag68
(g89
g70
NtRp1376
(dp1377
g73
(dp1378
g100
g101
ssg82
g1367
sg75
(lp1379
S':'
asbag68
(g89
g70
NtRp1380
(dp1381
g73
(dp1382
sg82
g1367
sg75
(lp1383
g68
(g69
g70
NtRp1384
(dp1385
g73
(dp1386
g81
I4
ssg82
g1380
sg75
(lp1387
S'8000'
p1388
asbasbasbag68
(g84
g70
NtRp1389
(dp1390
g73
(dp1391
sg82
g684
sg75
(lp1392
g68
(g89
g70
NtRp1393
(dp1394
g73
(dp1395
g93
g94
ssg82
g1389
sg75
(lp1396
S'server_protocol'
p1397
asbag68
(g89
g70
NtRp1398
(dp1399
g73
(dp1400
g100
g101
ssg82
g1389
sg75
(lp1401
S':'
asbag68
(g89
g70
NtRp1402
(dp1403
g73
(dp1404
sg82
g1389
sg75
(lp1405
g68
(g69
g70
NtRp1406
(dp1407
g73
(dp1408
g81
I4
ssg82
g1402
sg75
(lp1409
S'HTTP/1.1'
p1410
asbasbasbag68
(g84
g70
NtRp1411
(dp1412
g73
(dp1413
sg82
g684
sg75
(lp1414
g68
(g89
g70
NtRp1415
(dp1416
g73
(dp1417
g93
g94
ssg82
g1411
sg75
(lp1418
S'server_software'
p1419
asbag68
(g89
g70
NtRp1420
(dp1421
g73
(dp1422
g100
g101
ssg82
g1411
sg75
(lp1423
S':'
asbag68
(g89
g70
NtRp1424
(dp1425
g73
(dp1426
sg82
g1411
sg75
(lp1427
g68
(g69
g70
NtRp1428
(dp1429
g73
(dp1430
g81
I4
ssg82
g1424
sg75
(lp1431
S'Rocket 1.2.6'
p1432
asbasbasbag68
(g84
g70
NtRp1433
(dp1434
g73
(dp1435
sg82
g684
sg75
(lp1436
g68
(g89
g70
NtRp1437
(dp1438
g73
(dp1439
g93
g94
ssg82
g1433
sg75
(lp1440
S'web2py_path'
p1441
asbag68
(g89
g70
NtRp1442
(dp1443
g73
(dp1444
g100
g101
ssg82
g1433
sg75
(lp1445
S':'
asbag68
(g89
g70
NtRp1446
(dp1447
g73
(dp1448
sg82
g1433
sg75
(lp1449
g68
(g69
g70
NtRp1450
(dp1451
g73
(dp1452
g81
I4
ssg82
g1446
sg75
(lp1453
g731
asbasbasbag68
(g84
g70
NtRp1454
(dp1455
g73
(dp1456
sg82
g684
sg75
(lp1457
g68
(g89
g70
NtRp1458
(dp1459
g73
(dp1460
g93
g94
ssg82
g1454
sg75
(lp1461
S'web2py_version'
p1462
asbag68
(g89
g70
NtRp1463
(dp1464
g73
(dp1465
g100
g101
ssg82
g1454
sg75
(lp1466
S':'
asbag68
(g89
g70
NtRp1467
(dp1468
g73
(dp1469
sg82
g1454
sg75
(lp1470
g68
(g69
g70
NtRp1471
(dp1472
g73
(dp1473
g81
I4
ssg82
g1467
sg75
(lp1474
g68
(g77
g70
NtRp1475
(dp1476
g73
(dp1477
g81
I3
ssg82
Nsg75
(lp1478
g68
(g84
g70
NtRp1479
(dp1480
g73
(dp1481
sg82
g1475
sg75
(lp1482
g68
(g89
g70
NtRp1483
(dp1484
g73
(dp1485
sg82
g1479
sg75
(lp1486
g68
(g69
g70
NtRp1487
(dp1488
g73
(dp1489
g81
I3
ssg82
g1483
sg75
(lp1490
S'2'
asbasbasbag68
(g84
g70
NtRp1491
(dp1492
g73
(dp1493
sg82
g1475
sg75
(lp1494
g68
(g89
g70
NtRp1495
(dp1496
g73
(dp1497
sg82
g1491
sg75
(lp1498
g68
(g69
g70
NtRp1499
(dp1500
g73
(dp1501
g81
I3
ssg82
g1495
sg75
(lp1502
S'3'
asbasbasbag68
(g84
g70
NtRp1503
(dp1504
g73
(dp1505
sg82
g1475
sg75
(lp1506
g68
(g89
g70
NtRp1507
(dp1508
g73
(dp1509
sg82
g1503
sg75
(lp1510
g68
(g69
g70
NtRp1511
(dp1512
g73
(dp1513
g81
I3
ssg82
g1507
sg75
(lp1514
S'2'
asbasbasbag68
(g84
g70
NtRp1515
(dp1516
g73
(dp1517
sg82
g1475
sg75
(lp1518
g68
(g89
g70
NtRp1519
(dp1520
g73
(dp1521
sg82
g1515
sg75
(lp1522
g68
(g69
g70
NtRp1523
(dp1524
g73
(dp1525
g81
I3
ssg82
g1519
sg75
(lp1526
S'datetime.datetime(2012, 12, 17, 15, 3, 30)'
p1527
asbasbasbag68
(g84
g70
NtRp1528
(dp1529
g73
(dp1530
sg82
g1475
sg75
(lp1531
g68
(g89
g70
NtRp1532
(dp1533
g73
(dp1534
sg82
g1528
sg75
(lp1535
g68
(g69
g70
NtRp1536
(dp1537
g73
(dp1538
g81
I3
ssg82
g1532
sg75
(lp1539
S'stable'
p1540
asbasbasbasbasbasbasbag68
(g84
g70
NtRp1541
(dp1542
g73
(dp1543
sg82
g684
sg75
(lp1544
g68
(g89
g70
NtRp1545
(dp1546
g73
(dp1547
g93
g94
ssg82
g1541
sg75
(lp1548
S'wsgi_errors'
p1549
asbag68
(g89
g70
NtRp1550
(dp1551
g73
(dp1552
g100
g101
ssg82
g1541
sg75
(lp1553
S':'
asbag68
(g89
g70
NtRp1554
(dp1555
g73
(dp1556
sg82
g1541
sg75
(lp1557
g68
(g69
g70
NtRp1558
(dp1559
g73
(dp1560
g81
I4
ssg82
g1554
sg75
(lp1561
S"<open file '<stderr>', mode 'w' at 0x00DE50D0>"
p1562
asbasbasbag68
(g84
g70
NtRp1563
(dp1564
g73
(dp1565
sg82
g684
sg75
(lp1566
g68
(g89
g70
NtRp1567
(dp1568
g73
(dp1569
g93
g94
ssg82
g1563
sg75
(lp1570
S'wsgi_file_wrapper'
p1571
asbag68
(g89
g70
NtRp1572
(dp1573
g73
(dp1574
g100
g101
ssg82
g1563
sg75
(lp1575
S':'
asbag68
(g89
g70
NtRp1576
(dp1577
g73
(dp1578
sg82
g1563
sg75
(lp1579
g68
(g69
g70
NtRp1580
(dp1581
g73
(dp1582
g81
I4
ssg82
g1576
sg75
(lp1583
S'<class wsgiref.util.FileWrapper at 0x016F4C38>'
p1584
asbasbasbag68
(g84
g70
NtRp1585
(dp1586
g73
(dp1587
sg82
g684
sg75
(lp1588
g68
(g89
g70
NtRp1589
(dp1590
g73
(dp1591
g93
g94
ssg82
g1585
sg75
(lp1592
S'wsgi_input'
p1593
asbag68
(g89
g70
NtRp1594
(dp1595
g73
(dp1596
g100
g101
ssg82
g1585
sg75
(lp1597
S':'
asbag68
(g89
g70
NtRp1598
(dp1599
g73
(dp1600
sg82
g1585
sg75
(lp1601
g68
(g69
g70
NtRp1602
(dp1603
g73
(dp1604
g81
I4
ssg82
g1598
sg75
(lp1605
S'<socket._fileobject object at 0x057B8470>'
p1606
asbasbasbag68
(g84
g70
NtRp1607
(dp1608
g73
(dp1609
sg82
g684
sg75
(lp1610
g68
(g89
g70
NtRp1611
(dp1612
g73
(dp1613
g93
g94
ssg82
g1607
sg75
(lp1614
S'wsgi_multiprocess'
p1615
asbag68
(g89
g70
NtRp1616
(dp1617
g73
(dp1618
g100
g101
ssg82
g1607
sg75
(lp1619
S':'
asbag68
(g89
g70
NtRp1620
(dp1621
g73
(dp1622
sg82
g1607
sg75
(lp1623
g68
(g69
g70
NtRp1624
(dp1625
g73
(dp1626
g81
I4
ssg82
g1620
sg75
(lp1627
g111
asbasbasbag68
(g84
g70
NtRp1628
(dp1629
g73
(dp1630
sg82
g684
sg75
(lp1631
g68
(g89
g70
NtRp1632
(dp1633
g73
(dp1634
g93
g94
ssg82
g1628
sg75
(lp1635
S'wsgi_multithread'
p1636
asbag68
(g89
g70
NtRp1637
(dp1638
g73
(dp1639
g100
g101
ssg82
g1628
sg75
(lp1640
S':'
asbag68
(g89
g70
NtRp1641
(dp1642
g73
(dp1643
sg82
g1628
sg75
(lp1644
g68
(g69
g70
NtRp1645
(dp1646
g73
(dp1647
g81
I4
ssg82
g1641
sg75
(lp1648
S'True'
p1649
asbasbasbag68
(g84
g70
NtRp1650
(dp1651
g73
(dp1652
sg82
g684
sg75
(lp1653
g68
(g89
g70
NtRp1654
(dp1655
g73
(dp1656
g93
g94
ssg82
g1650
sg75
(lp1657
S'wsgi_run_once'
p1658
asbag68
(g89
g70
NtRp1659
(dp1660
g73
(dp1661
g100
g101
ssg82
g1650
sg75
(lp1662
S':'
asbag68
(g89
g70
NtRp1663
(dp1664
g73
(dp1665
sg82
g1650
sg75
(lp1666
g68
(g69
g70
NtRp1667
(dp1668
g73
(dp1669
g81
I4
ssg82
g1663
sg75
(lp1670
g111
asbasbasbag68
(g84
g70
NtRp1671
(dp1672
g73
(dp1673
sg82
g684
sg75
(lp1674
g68
(g89
g70
NtRp1675
(dp1676
g73
(dp1677
g93
g94
ssg82
g1671
sg75
(lp1678
S'wsgi_url_scheme'
p1679
asbag68
(g89
g70
NtRp1680
(dp1681
g73
(dp1682
g100
g101
ssg82
g1671
sg75
(lp1683
S':'
asbag68
(g89
g70
NtRp1684
(dp1685
g73
(dp1686
sg82
g1671
sg75
(lp1687
g68
(g69
g70
NtRp1688
(dp1689
g73
(dp1690
g81
I4
ssg82
g1684
sg75
(lp1691
S'http'
p1692
asbasbasbag68
(g84
g70
NtRp1693
(dp1694
g73
(dp1695
sg82
g684
sg75
(lp1696
g68
(g89
g70
NtRp1697
(dp1698
g73
(dp1699
g93
g94
ssg82
g1693
sg75
(lp1700
S'wsgi_version'
p1701
asbag68
(g89
g70
NtRp1702
(dp1703
g73
(dp1704
g100
g101
ssg82
g1693
sg75
(lp1705
S':'
asbag68
(g89
g70
NtRp1706
(dp1707
g73
(dp1708
sg82
g1693
sg75
(lp1709
g68
(g69
g70
NtRp1710
(dp1711
g73
(dp1712
g81
I4
ssg82
g1706
sg75
(lp1713
g68
(g77
g70
NtRp1714
(dp1715
g73
(dp1716
g81
I3
ssg82
Nsg75
(lp1717
g68
(g84
g70
NtRp1718
(dp1719
g73
(dp1720
sg82
g1714
sg75
(lp1721
g68
(g89
g70
NtRp1722
(dp1723
g73
(dp1724
sg82
g1718
sg75
(lp1725
g68
(g69
g70
NtRp1726
(dp1727
g73
(dp1728
g81
I3
ssg82
g1722
sg75
(lp1729
S'1'
asbasbasbag68
(g84
g70
NtRp1730
(dp1731
g73
(dp1732
sg82
g1714
sg75
(lp1733
g68
(g89
g70
NtRp1734
(dp1735
g73
(dp1736
sg82
g1730
sg75
(lp1737
g68
(g69
g70
NtRp1738
(dp1739
g73
(dp1740
g81
I3
ssg82
g1734
sg75
(lp1741
S'0'
asbasbasbasbasbasbasbasbasbasbasbag68
(g84
g70
NtRp1742
(dp1743
g73
(dp1744
sg82
g78
sg75
(lp1745
g68
(g89
g70
NtRp1746
(dp1747
g73
(dp1748
g93
g94
ssg82
g1742
sg75
(lp1749
S'extension'
p1750
asbag68
(g89
g70
NtRp1751
(dp1752
g73
(dp1753
g100
g101
ssg82
g1742
sg75
(lp1754
S':'
asbag68
(g89
g70
NtRp1755
(dp1756
g73
(dp1757
sg82
g1742
sg75
(lp1758
g68
(g69
g70
NtRp1759
(dp1760
g73
(dp1761
g81
I5
ssg82
g1755
sg75
(lp1762
S'html'
p1763
asbasbasbag68
(g84
g70
NtRp1764
(dp1765
g73
(dp1766
sg82
g78
sg75
(lp1767
g68
(g89
g70
NtRp1768
(dp1769
g73
(dp1770
g93
g94
ssg82
g1764
sg75
(lp1771
S'folder'
p1772
asbag68
(g89
g70
NtRp1773
(dp1774
g73
(dp1775
g100
g101
ssg82
g1764
sg75
(lp1776
S':'
asbag68
(g89
g70
NtRp1777
(dp1778
g73
(dp1779
sg82
g1764
sg75
(lp1780
g68
(g69
g70
NtRp1781
(dp1782
g73
(dp1783
g81
I5
ssg82
g1777
sg75
(lp1784
S'C:\\Python27\\web2py\\applications\\hw4\\'
p1785
asbasbasbag68
(g84
g70
NtRp1786
(dp1787
g73
(dp1788
sg82
g78
sg75
(lp1789
g68
(g89
g70
NtRp1790
(dp1791
g73
(dp1792
g93
g94
ssg82
g1786
sg75
(lp1793
S'function'
p1794
asbag68
(g89
g70
NtRp1795
(dp1796
g73
(dp1797
g100
g101
ssg82
g1786
sg75
(lp1798
S':'
asbag68
(g89
g70
NtRp1799
(dp1800
g73
(dp1801
sg82
g1786
sg75
(lp1802
g68
(g69
g70
NtRp1803
(dp1804
g73
(dp1805
g81
I5
ssg82
g1799
sg75
(lp1806
S'defen'
p1807
asbasbasbag68
(g84
g70
NtRp1808
(dp1809
g73
(dp1810
sg82
g78
sg75
(lp1811
g68
(g89
g70
NtRp1812
(dp1813
g73
(dp1814
g93
g94
ssg82
g1808
sg75
(lp1815
S'get_vars'
p1816
asbag68
(g89
g70
NtRp1817
(dp1818
g73
(dp1819
g100
g101
ssg82
g1808
sg75
(lp1820
S':'
asbag68
(g89
g70
NtRp1821
(dp1822
g73
(dp1823
sg82
g1808
sg75
(lp1824
g68
(g69
g70
NtRp1825
(dp1826
g73
(dp1827
g81
I5
ssg82
g1821
sg75
(lp1828
g68
(g77
g70
NtRp1829
(dp1830
g73
(dp1831
g81
I4
ssg82
Nsg75
(lp1832
sbasbasbasbag68
(g84
g70
NtRp1833
(dp1834
g73
(dp1835
sg82
g78
sg75
(lp1836
g68
(g89
g70
NtRp1837
(dp1838
g73
(dp1839
g93
g94
ssg82
g1833
sg75
(lp1840
S'global_settings'
p1841
asbag68
(g89
g70
NtRp1842
(dp1843
g73
(dp1844
g100
g101
ssg82
g1833
sg75
(lp1845
S':'
asbag68
(g89
g70
NtRp1846
(dp1847
g73
(dp1848
sg82
g1833
sg75
(lp1849
g68
(g69
g70
NtRp1850
(dp1851
g73
(dp1852
g81
I5
ssg82
g1846
sg75
(lp1853
g68
(g77
g70
NtRp1854
(dp1855
g73
(dp1856
g81
I4
ssg82
Nsg75
(lp1857
g68
(g84
g70
NtRp1858
(dp1859
g73
(dp1860
sg82
g1854
sg75
(lp1861
g68
(g89
g70
NtRp1862
(dp1863
g73
(dp1864
g93
g94
ssg82
g1858
sg75
(lp1865
g696
asbag68
(g89
g70
NtRp1866
(dp1867
g73
(dp1868
g100
g101
ssg82
g1858
sg75
(lp1869
S':'
asbag68
(g89
g70
NtRp1870
(dp1871
g73
(dp1872
sg82
g1858
sg75
(lp1873
g68
(g69
g70
NtRp1874
(dp1875
g73
(dp1876
g81
I4
ssg82
g1870
sg75
(lp1877
S"set(['C:\\\\Python27\\\\web2py\\\\applications\\\\image\\\\', 'C:\\\\Python27\\\\web2py\\\\applications\\\\welcome\\\\', 'C:\\\\Python27\\\\web2py\\\\applications\\\\examples\\\\', 'C:\\\\Python27\\\\web2py\\\\applications\\\\hw4\\\\', 'C:\\\\Python27\\\\web2py\\\\applications\\\\admin\\\\', 'C:\\\\Python27\\\\web2py\\\\applications\\\\hw3\\\\'])"
p1878
asbasbasbag68
(g84
g70
NtRp1879
(dp1880
g73
(dp1881
sg82
g1854
sg75
(lp1882
g68
(g89
g70
NtRp1883
(dp1884
g73
(dp1885
g93
g94
ssg82
g1879
sg75
(lp1886
g718
asbag68
(g89
g70
NtRp1887
(dp1888
g73
(dp1889
g100
g101
ssg82
g1879
sg75
(lp1890
S':'
asbag68
(g89
g70
NtRp1891
(dp1892
g73
(dp1893
sg82
g1879
sg75
(lp1894
g68
(g69
g70
NtRp1895
(dp1896
g73
(dp1897
g81
I4
ssg82
g1891
sg75
(lp1898
g731
asbasbasbag68
(g84
g70
NtRp1899
(dp1900
g73
(dp1901
sg82
g1854
sg75
(lp1902
g68
(g89
g70
NtRp1903
(dp1904
g73
(dp1905
g93
g94
ssg82
g1899
sg75
(lp1906
g740
asbag68
(g89
g70
NtRp1907
(dp1908
g73
(dp1909
g100
g101
ssg82
g1899
sg75
(lp1910
S':'
asbag68
(g89
g70
NtRp1911
(dp1912
g73
(dp1913
sg82
g1899
sg75
(lp1914
g68
(g69
g70
NtRp1915
(dp1916
g73
(dp1917
g81
I4
ssg82
g1911
sg75
(lp1918
g68
(g77
g70
NtRp1919
(dp1920
g73
(dp1921
g81
I3
ssg82
Nsg75
(lp1922
sbasbasbasbag68
(g84
g70
NtRp1923
(dp1924
g73
(dp1925
sg82
g1854
sg75
(lp1926
g68
(g89
g70
NtRp1927
(dp1928
g73
(dp1929
g93
g94
ssg82
g1923
sg75
(lp1930
g765
asbag68
(g89
g70
NtRp1931
(dp1932
g73
(dp1933
g100
g101
ssg82
g1923
sg75
(lp1934
S':'
asbag68
(g89
g70
NtRp1935
(dp1936
g73
(dp1937
sg82
g1923
sg75
(lp1938
g68
(g69
g70
NtRp1939
(dp1940
g73
(dp1941
g81
I4
ssg82
g1935
sg75
(lp1942
S"<Values at 0x17800f8: {'verbose': False, 'ip': '127.0.0.1', 'with_scheduler': False, 'ips': ['192.168.1.101'], 'shutdown_timeout': 5, 'taskbar': False, 'port': 8000, 'maxthreads': None, 'softcron': False, 'server_name': 'FREESKYC-5359CC', 'bpython': False, 'nogui': False, 'pid_filename': 'httpserver.pid', 'extcron': False, 'runcron': False, 'run_system_tests': False, 'test': None, 'folder': 'C:\\\\Python27\\\\web2py', 'config': '', 'import_models': False, 'winservice': '', 'shell': None, 'run': '', 'log_filename': 'httpserver.log', 'debuglevel': 30, 'args': [''], 'socket_timeout': 5, 'ssl_ca_certificate': None, 'scheduler': None, 'profiler_filename': None, 'ssl_private_key': '', 'scheduler_groups': None, 'password': '<ask>', 'request_queue_size': 5, 'ssl_certificate': '', 'cronjob': False, 'numthreads': None, 'quiet': False, 'interfaces': None, 'minthreads': None, 'timeout': 10, 'plain': False, 'nobanner': False}>"
p1943
asbasbasbag68
(g84
g70
NtRp1944
(dp1945
g73
(dp1946
sg82
g1854
sg75
(lp1947
g68
(g89
g70
NtRp1948
(dp1949
g73
(dp1950
g93
g94
ssg82
g1944
sg75
(lp1951
g787
asbag68
(g89
g70
NtRp1952
(dp1953
g73
(dp1954
g100
g101
ssg82
g1944
sg75
(lp1955
S':'
asbag68
(g89
g70
NtRp1956
(dp1957
g73
(dp1958
sg82
g1944
sg75
(lp1959
g68
(g69
g70
NtRp1960
(dp1961
g73
(dp1962
g81
I4
ssg82
g1956
sg75
(lp1963
S'set([])'
p1964
asbasbasbag68
(g84
g70
NtRp1965
(dp1966
g73
(dp1967
sg82
g1854
sg75
(lp1968
g68
(g89
g70
NtRp1969
(dp1970
g73
(dp1971
g93
g94
ssg82
g1965
sg75
(lp1972
g809
asbag68
(g89
g70
NtRp1973
(dp1974
g73
(dp1975
g100
g101
ssg82
g1965
sg75
(lp1976
S':'
asbag68
(g89
g70
NtRp1977
(dp1978
g73
(dp1979
sg82
g1965
sg75
(lp1980
g68
(g69
g70
NtRp1981
(dp1982
g73
(dp1983
g81
I4
ssg82
g1977
sg75
(lp1984
g111
asbasbasbag68
(g84
g70
NtRp1985
(dp1986
g73
(dp1987
sg82
g1854
sg75
(lp1988
g68
(g89
g70
NtRp1989
(dp1990
g73
(dp1991
g93
g94
ssg82
g1985
sg75
(lp1992
g830
asbag68
(g89
g70
NtRp1993
(dp1994
g73
(dp1995
g100
g101
ssg82
g1985
sg75
(lp1996
S':'
asbag68
(g89
g70
NtRp1997
(dp1998
g73
(dp1999
sg82
g1985
sg75
(lp2000
g68
(g69
g70
NtRp2001
(dp2002
g73
(dp2003
g81
I4
ssg82
g1997
sg75
(lp2004
g843
asbasbasbag68
(g84
g70
NtRp2005
(dp2006
g73
(dp2007
sg82
g1854
sg75
(lp2008
g68
(g89
g70
NtRp2009
(dp2010
g73
(dp2011
g93
g94
ssg82
g2005
sg75
(lp2012
g1071
asbag68
(g89
g70
NtRp2013
(dp2014
g73
(dp2015
g100
g101
ssg82
g2005
sg75
(lp2016
S':'
asbag68
(g89
g70
NtRp2017
(dp2018
g73
(dp2019
sg82
g2005
sg75
(lp2020
g68
(g69
g70
NtRp2021
(dp2022
g73
(dp2023
g81
I4
ssg82
g2017
sg75
(lp2024
g111
asbasbasbag68
(g84
g70
NtRp2025
(dp2026
g73
(dp2027
sg82
g1854
sg75
(lp2028
g68
(g89
g70
NtRp2029
(dp2030
g73
(dp2031
g93
g94
ssg82
g2025
sg75
(lp2032
g1092
asbag68
(g89
g70
NtRp2033
(dp2034
g73
(dp2035
g100
g101
ssg82
g2025
sg75
(lp2036
S':'
asbag68
(g89
g70
NtRp2037
(dp2038
g73
(dp2039
sg82
g2025
sg75
(lp2040
g68
(g69
g70
NtRp2041
(dp2042
g73
(dp2043
g81
I4
ssg82
g2037
sg75
(lp2044
g111
asbasbasbag68
(g84
g70
NtRp2045
(dp2046
g73
(dp2047
sg82
g1854
sg75
(lp2048
g68
(g89
g70
NtRp2049
(dp2050
g73
(dp2051
g93
g94
ssg82
g2045
sg75
(lp2052
g1113
asbag68
(g89
g70
NtRp2053
(dp2054
g73
(dp2055
g100
g101
ssg82
g2045
sg75
(lp2056
S':'
asbag68
(g89
g70
NtRp2057
(dp2058
g73
(dp2059
sg82
g2045
sg75
(lp2060
g68
(g69
g70
NtRp2061
(dp2062
g73
(dp2063
g81
I4
ssg82
g2057
sg75
(lp2064
g68
(g77
g70
NtRp2065
(dp2066
g73
(dp2067
g81
I3
ssg82
Nsg75
(lp2068
g68
(g84
g70
NtRp2069
(dp2070
g73
(dp2071
sg82
g2065
sg75
(lp2072
g68
(g89
g70
NtRp2073
(dp2074
g73
(dp2075
sg82
g2069
sg75
(lp2076
g68
(g69
g70
NtRp2077
(dp2078
g73
(dp2079
g81
I3
ssg82
g2073
sg75
(lp2080
g1142
asbasbasbag68
(g84
g70
NtRp2081
(dp2082
g73
(dp2083
sg82
g2065
sg75
(lp2084
g68
(g89
g70
NtRp2085
(dp2086
g73
(dp2087
sg82
g2081
sg75
(lp2088
g68
(g69
g70
NtRp2089
(dp2090
g73
(dp2091
g81
I3
ssg82
g2085
sg75
(lp2092
g1155
asbasbasbag68
(g84
g70
NtRp2093
(dp2094
g73
(dp2095
sg82
g2065
sg75
(lp2096
g68
(g89
g70
NtRp2097
(dp2098
g73
(dp2099
sg82
g2093
sg75
(lp2100
g68
(g69
g70
NtRp2101
(dp2102
g73
(dp2103
g81
I3
ssg82
g2097
sg75
(lp2104
g1168
asbasbasbag68
(g84
g70
NtRp2105
(dp2106
g73
(dp2107
sg82
g2065
sg75
(lp2108
g68
(g89
g70
NtRp2109
(dp2110
g73
(dp2111
sg82
g2105
sg75
(lp2112
g68
(g69
g70
NtRp2113
(dp2114
g73
(dp2115
g81
I3
ssg82
g2109
sg75
(lp2116
g1181
asbasbasbag68
(g84
g70
NtRp2117
(dp2118
g73
(dp2119
sg82
g2065
sg75
(lp2120
g68
(g89
g70
NtRp2121
(dp2122
g73
(dp2123
sg82
g2117
sg75
(lp2124
g68
(g69
g70
NtRp2125
(dp2126
g73
(dp2127
g81
I3
ssg82
g2121
sg75
(lp2128
g1194
asbasbasbasbasbasbasbag68
(g84
g70
NtRp2129
(dp2130
g73
(dp2131
sg82
g1854
sg75
(lp2132
g68
(g89
g70
NtRp2133
(dp2134
g73
(dp2135
g93
g94
ssg82
g2129
sg75
(lp2136
g1462
asbag68
(g89
g70
NtRp2137
(dp2138
g73
(dp2139
g100
g101
ssg82
g2129
sg75
(lp2140
S':'
asbag68
(g89
g70
NtRp2141
(dp2142
g73
(dp2143
sg82
g2129
sg75
(lp2144
g68
(g69
g70
NtRp2145
(dp2146
g73
(dp2147
g81
I4
ssg82
g2141
sg75
(lp2148
g68
(g77
g70
NtRp2149
(dp2150
g73
(dp2151
g81
I3
ssg82
Nsg75
(lp2152
g68
(g84
g70
NtRp2153
(dp2154
g73
(dp2155
sg82
g2149
sg75
(lp2156
g68
(g89
g70
NtRp2157
(dp2158
g73
(dp2159
sg82
g2153
sg75
(lp2160
g68
(g69
g70
NtRp2161
(dp2162
g73
(dp2163
g81
I3
ssg82
g2157
sg75
(lp2164
S'2'
asbasbasbag68
(g84
g70
NtRp2165
(dp2166
g73
(dp2167
sg82
g2149
sg75
(lp2168
g68
(g89
g70
NtRp2169
(dp2170
g73
(dp2171
sg82
g2165
sg75
(lp2172
g68
(g69
g70
NtRp2173
(dp2174
g73
(dp2175
g81
I3
ssg82
g2169
sg75
(lp2176
S'3'
asbasbasbag68
(g84
g70
NtRp2177
(dp2178
g73
(dp2179
sg82
g2149
sg75
(lp2180
g68
(g89
g70
NtRp2181
(dp2182
g73
(dp2183
sg82
g2177
sg75
(lp2184
g68
(g69
g70
NtRp2185
(dp2186
g73
(dp2187
g81
I3
ssg82
g2181
sg75
(lp2188
S'2'
asbasbasbag68
(g84
g70
NtRp2189
(dp2190
g73
(dp2191
sg82
g2149
sg75
(lp2192
g68
(g89
g70
NtRp2193
(dp2194
g73
(dp2195
sg82
g2189
sg75
(lp2196
g68
(g69
g70
NtRp2197
(dp2198
g73
(dp2199
g81
I3
ssg82
g2193
sg75
(lp2200
S'datetime.datetime(2012, 12, 17, 15, 3, 30)'
p2201
asbasbasbag68
(g84
g70
NtRp2202
(dp2203
g73
(dp2204
sg82
g2149
sg75
(lp2205
g68
(g89
g70
NtRp2206
(dp2207
g73
(dp2208
sg82
g2202
sg75
(lp2209
g68
(g69
g70
NtRp2210
(dp2211
g73
(dp2212
g81
I3
ssg82
g2206
sg75
(lp2213
g1540
asbasbasbasbasbasbasbasbasbasbasbag68
(g84
g70
NtRp2214
(dp2215
g73
(dp2216
sg82
g78
sg75
(lp2217
g68
(g89
g70
NtRp2218
(dp2219
g73
(dp2220
g93
g94
ssg82
g2214
sg75
(lp2221
S'is_https'
p2222
asbag68
(g89
g70
NtRp2223
(dp2224
g73
(dp2225
g100
g101
ssg82
g2214
sg75
(lp2226
S':'
asbag68
(g89
g70
NtRp2227
(dp2228
g73
(dp2229
sg82
g2214
sg75
(lp2230
g68
(g69
g70
NtRp2231
(dp2232
g73
(dp2233
g81
I5
ssg82
g2227
sg75
(lp2234
g111
asbasbasbag68
(g84
g70
NtRp2235
(dp2236
g73
(dp2237
sg82
g78
sg75
(lp2238
g68
(g89
g70
NtRp2239
(dp2240
g73
(dp2241
g93
g94
ssg82
g2235
sg75
(lp2242
S'is_local'
p2243
asbag68
(g89
g70
NtRp2244
(dp2245
g73
(dp2246
g100
g101
ssg82
g2235
sg75
(lp2247
S':'
asbag68
(g89
g70
NtRp2248
(dp2249
g73
(dp2250
sg82
g2235
sg75
(lp2251
g68
(g69
g70
NtRp2252
(dp2253
g73
(dp2254
g81
I5
ssg82
g2248
sg75
(lp2255
g1649
asbasbasbag68
(g84
g70
NtRp2256
(dp2257
g73
(dp2258
sg82
g78
sg75
(lp2259
g68
(g89
g70
NtRp2260
(dp2261
g73
(dp2262
g93
g94
ssg82
g2256
sg75
(lp2263
S'is_restful'
p2264
asbag68
(g89
g70
NtRp2265
(dp2266
g73
(dp2267
g100
g101
ssg82
g2256
sg75
(lp2268
S':'
asbag68
(g89
g70
NtRp2269
(dp2270
g73
(dp2271
sg82
g2256
sg75
(lp2272
g68
(g69
g70
NtRp2273
(dp2274
g73
(dp2275
g81
I5
ssg82
g2269
sg75
(lp2276
g111
asbasbasbag68
(g84
g70
NtRp2277
(dp2278
g73
(dp2279
sg82
g78
sg75
(lp2280
g68
(g89
g70
NtRp2281
(dp2282
g73
(dp2283
g93
g94
ssg82
g2277
sg75
(lp2284
S'now'
p2285
asbag68
(g89
g70
NtRp2286
(dp2287
g73
(dp2288
g100
g101
ssg82
g2277
sg75
(lp2289
S':'
asbag68
(g89
g70
NtRp2290
(dp2291
g73
(dp2292
sg82
g2277
sg75
(lp2293
g68
(g69
g70
NtRp2294
(dp2295
g73
(dp2296
g81
I5
ssg82
g2290
sg75
(lp2297
S'datetime.datetime(2013, 8, 22, 15, 26, 31, 15000)'
p2298
asbasbasbag68
(g84
g70
NtRp2299
(dp2300
g73
(dp2301
sg82
g78
sg75
(lp2302
g68
(g89
g70
NtRp2303
(dp2304
g73
(dp2305
g93
g94
ssg82
g2299
sg75
(lp2306
S'post_vars'
p2307
asbag68
(g89
g70
NtRp2308
(dp2309
g73
(dp2310
g100
g101
ssg82
g2299
sg75
(lp2311
S':'
asbag68
(g89
g70
NtRp2312
(dp2313
g73
(dp2314
sg82
g2299
sg75
(lp2315
g68
(g69
g70
NtRp2316
(dp2317
g73
(dp2318
g81
I5
ssg82
g2312
sg75
(lp2319
g68
(g77
g70
NtRp2320
(dp2321
g73
(dp2322
g81
I4
ssg82
Nsg75
(lp2323
sbasbasbasbag68
(g84
g70
NtRp2324
(dp2325
g73
(dp2326
sg82
g78
sg75
(lp2327
g68
(g89
g70
NtRp2328
(dp2329
g73
(dp2330
g93
g94
ssg82
g2324
sg75
(lp2331
S'raw_args'
p2332
asbag68
(g89
g70
NtRp2333
(dp2334
g73
(dp2335
g100
g101
ssg82
g2324
sg75
(lp2336
S':'
asbag68
(g89
g70
NtRp2337
(dp2338
g73
(dp2339
sg82
g2324
sg75
(lp2340
g68
(g69
g70
NtRp2341
(dp2342
g73
(dp2343
g81
I5
ssg82
g2337
sg75
(lp2344
S'1'
asbasbasbag68
(g84
g70
NtRp2345
(dp2346
g73
(dp2347
sg82
g78
sg75
(lp2348
g68
(g89
g70
NtRp2349
(dp2350
g73
(dp2351
g93
g94
ssg82
g2345
sg75
(lp2352
S'raw_extension'
p2353
asbag68
(g89
g70
NtRp2354
(dp2355
g73
(dp2356
g100
g101
ssg82
g2345
sg75
(lp2357
S':'
asbag68
(g89
g70
NtRp2358
(dp2359
g73
(dp2360
sg82
g2345
sg75
(lp2361
g68
(g69
g70
NtRp2362
(dp2363
g73
(dp2364
g81
I5
ssg82
g2358
sg75
(lp2365
S'None'
p2366
asbasbasbag68
(g84
g70
NtRp2367
(dp2368
g73
(dp2369
sg82
g78
sg75
(lp2370
g68
(g89
g70
NtRp2371
(dp2372
g73
(dp2373
g93
g94
ssg82
g2367
sg75
(lp2374
S'url'
p2375
asbag68
(g89
g70
NtRp2376
(dp2377
g73
(dp2378
g100
g101
ssg82
g2367
sg75
(lp2379
S':'
asbag68
(g89
g70
NtRp2380
(dp2381
g73
(dp2382
sg82
g2367
sg75
(lp2383
g68
(g69
g70
NtRp2384
(dp2385
g73
(dp2386
g81
I5
ssg82
g2380
sg75
(lp2387
g1216
asbasbasbag68
(g84
g70
NtRp2388
(dp2389
g73
(dp2390
sg82
g78
sg75
(lp2391
g68
(g89
g70
NtRp2392
(dp2393
g73
(dp2394
g93
g94
ssg82
g2388
sg75
(lp2395
S'utcnow'
p2396
asbag68
(g89
g70
NtRp2397
(dp2398
g73
(dp2399
g100
g101
ssg82
g2388
sg75
(lp2400
S':'
asbag68
(g89
g70
NtRp2401
(dp2402
g73
(dp2403
sg82
g2388
sg75
(lp2404
g68
(g69
g70
NtRp2405
(dp2406
g73
(dp2407
g81
I5
ssg82
g2401
sg75
(lp2408
S'datetime.datetime(2013, 8, 22, 7, 26, 31, 15000)'
p2409
asbasbasbag68
(g84
g70
NtRp2410
(dp2411
g73
(dp2412
sg82
g78
sg75
(lp2413
g68
(g89
g70
NtRp2414
(dp2415
g73
(dp2416
g93
g94
ssg82
g2410
sg75
(lp2417
S'uuid'
p2418
asbag68
(g89
g70
NtRp2419
(dp2420
g73
(dp2421
g100
g101
ssg82
g2410
sg75
(lp2422
S':'
asbag68
(g89
g70
NtRp2423
(dp2424
g73
(dp2425
sg82
g2410
sg75
(lp2426
g68
(g69
g70
NtRp2427
(dp2428
g73
(dp2429
g81
I5
ssg82
g2423
sg75
(lp2430
S'hw4/127.0.0.1.2013-08-22.15-26-31.10fa1dc6-c4ef-4765-ade8-96e9e2b0f1af'
p2431
asbasbasbag68
(g84
g70
NtRp2432
(dp2433
g73
(dp2434
sg82
g78
sg75
(lp2435
g68
(g89
g70
NtRp2436
(dp2437
g73
(dp2438
g93
g94
ssg82
g2432
sg75
(lp2439
S'vars'
p2440
asbag68
(g89
g70
NtRp2441
(dp2442
g73
(dp2443
g100
g101
ssg82
g2432
sg75
(lp2444
S':'
asbag68
(g89
g70
NtRp2445
(dp2446
g73
(dp2447
sg82
g2432
sg75
(lp2448
g68
(g69
g70
NtRp2449
(dp2450
g73
(dp2451
g81
I5
ssg82
g2445
sg75
(lp2452
g68
(g77
g70
NtRp2453
(dp2454
g73
(dp2455
g81
I4
ssg82
Nsg75
(lp2456
sbasbasbasbag68
(g84
g70
NtRp2457
(dp2458
g73
(dp2459
sg82
g78
sg75
(lp2460
g68
(g89
g70
NtRp2461
(dp2462
g73
(dp2463
g93
g94
ssg82
g2457
sg75
(lp2464
S'wsgi'
p2465
asbag68
(g89
g70
NtRp2466
(dp2467
g73
(dp2468
g100
g101
ssg82
g2457
sg75
(lp2469
S':'
asbag68
(g89
g70
NtRp2470
(dp2471
g73
(dp2472
sg82
g2457
sg75
(lp2473
g68
(g69
g70
NtRp2474
(dp2475
g73
(dp2476
g81
I5
ssg82
g2470
sg75
(lp2477
g68
(g77
g70
NtRp2478
(dp2479
g73
(dp2480
g81
I4
ssg82
Nsg75
(lp2481
g68
(g84
g70
NtRp2482
(dp2483
g73
(dp2484
sg82
g2478
sg75
(lp2485
g68
(g89
g70
NtRp2486
(dp2487
g73
(dp2488
g93
g94
ssg82
g2482
sg75
(lp2489
S'environ'
p2490
asbag68
(g89
g70
NtRp2491
(dp2492
g73
(dp2493
g100
g101
ssg82
g2482
sg75
(lp2494
S':'
asbag68
(g89
g70
NtRp2495
(dp2496
g73
(dp2497
sg82
g2482
sg75
(lp2498
g68
(g69
g70
NtRp2499
(dp2500
g73
(dp2501
g81
I4
ssg82
g2495
sg75
(lp2502
g68
(g77
g70
NtRp2503
(dp2504
g73
(dp2505
g81
I3
ssg82
Nsg75
(lp2506
g68
(g84
g70
NtRp2507
(dp2508
g73
(dp2509
sg82
g2503
sg75
(lp2510
g68
(g89
g70
NtRp2511
(dp2512
g73
(dp2513
g93
g94
ssg82
g2507
sg75
(lp2514
S'HTTP_ACCEPT'
p2515
asbag68
(g89
g70
NtRp2516
(dp2517
g73
(dp2518
g100
g101
ssg82
g2507
sg75
(lp2519
S':'
asbag68
(g89
g70
NtRp2520
(dp2521
g73
(dp2522
sg82
g2507
sg75
(lp2523
g68
(g69
g70
NtRp2524
(dp2525
g73
(dp2526
g81
I3
ssg82
g2520
sg75
(lp2527
g865
asbasbasbag68
(g84
g70
NtRp2528
(dp2529
g73
(dp2530
sg82
g2503
sg75
(lp2531
g68
(g89
g70
NtRp2532
(dp2533
g73
(dp2534
g93
g94
ssg82
g2528
sg75
(lp2535
S'HTTP_ACCEPT_ENCODING'
p2536
asbag68
(g89
g70
NtRp2537
(dp2538
g73
(dp2539
g100
g101
ssg82
g2528
sg75
(lp2540
S':'
asbag68
(g89
g70
NtRp2541
(dp2542
g73
(dp2543
sg82
g2528
sg75
(lp2544
g68
(g69
g70
NtRp2545
(dp2546
g73
(dp2547
g81
I3
ssg82
g2541
sg75
(lp2548
g887
asbasbasbag68
(g84
g70
NtRp2549
(dp2550
g73
(dp2551
sg82
g2503
sg75
(lp2552
g68
(g89
g70
NtRp2553
(dp2554
g73
(dp2555
g93
g94
ssg82
g2549
sg75
(lp2556
S'HTTP_ACCEPT_LANGUAGE'
p2557
asbag68
(g89
g70
NtRp2558
(dp2559
g73
(dp2560
g100
g101
ssg82
g2549
sg75
(lp2561
S':'
asbag68
(g89
g70
NtRp2562
(dp2563
g73
(dp2564
sg82
g2549
sg75
(lp2565
g68
(g69
g70
NtRp2566
(dp2567
g73
(dp2568
g81
I3
ssg82
g2562
sg75
(lp2569
g909
asbasbasbag68
(g84
g70
NtRp2570
(dp2571
g73
(dp2572
sg82
g2503
sg75
(lp2573
g68
(g89
g70
NtRp2574
(dp2575
g73
(dp2576
g93
g94
ssg82
g2570
sg75
(lp2577
S'HTTP_CACHE_CONTROL'
p2578
asbag68
(g89
g70
NtRp2579
(dp2580
g73
(dp2581
g100
g101
ssg82
g2570
sg75
(lp2582
S':'
asbag68
(g89
g70
NtRp2583
(dp2584
g73
(dp2585
sg82
g2570
sg75
(lp2586
g68
(g69
g70
NtRp2587
(dp2588
g73
(dp2589
g81
I3
ssg82
g2583
sg75
(lp2590
g931
asbasbasbag68
(g84
g70
NtRp2591
(dp2592
g73
(dp2593
sg82
g2503
sg75
(lp2594
g68
(g89
g70
NtRp2595
(dp2596
g73
(dp2597
g93
g94
ssg82
g2591
sg75
(lp2598
S'HTTP_CONNECTION'
p2599
asbag68
(g89
g70
NtRp2600
(dp2601
g73
(dp2602
g100
g101
ssg82
g2591
sg75
(lp2603
S':'
asbag68
(g89
g70
NtRp2604
(dp2605
g73
(dp2606
sg82
g2591
sg75
(lp2607
g68
(g69
g70
NtRp2608
(dp2609
g73
(dp2610
g81
I3
ssg82
g2604
sg75
(lp2611
g953
asbasbasbag68
(g84
g70
NtRp2612
(dp2613
g73
(dp2614
sg82
g2503
sg75
(lp2615
g68
(g89
g70
NtRp2616
(dp2617
g73
(dp2618
g93
g94
ssg82
g2612
sg75
(lp2619
S'HTTP_COOKIE'
p2620
asbag68
(g89
g70
NtRp2621
(dp2622
g73
(dp2623
g100
g101
ssg82
g2612
sg75
(lp2624
S':'
asbag68
(g89
g70
NtRp2625
(dp2626
g73
(dp2627
sg82
g2612
sg75
(lp2628
g68
(g69
g70
NtRp2629
(dp2630
g73
(dp2631
g81
I3
ssg82
g2625
sg75
(lp2632
g975
asbasbasbag68
(g84
g70
NtRp2633
(dp2634
g73
(dp2635
sg82
g2503
sg75
(lp2636
g68
(g89
g70
NtRp2637
(dp2638
g73
(dp2639
g93
g94
ssg82
g2633
sg75
(lp2640
S'HTTP_DNT'
p2641
asbag68
(g89
g70
NtRp2642
(dp2643
g73
(dp2644
g100
g101
ssg82
g2633
sg75
(lp2645
S':'
asbag68
(g89
g70
NtRp2646
(dp2647
g73
(dp2648
sg82
g2633
sg75
(lp2649
g68
(g69
g70
NtRp2650
(dp2651
g73
(dp2652
g81
I3
ssg82
g2646
sg75
(lp2653
S'1'
asbasbasbag68
(g84
g70
NtRp2654
(dp2655
g73
(dp2656
sg82
g2503
sg75
(lp2657
g68
(g89
g70
NtRp2658
(dp2659
g73
(dp2660
g93
g94
ssg82
g2654
sg75
(lp2661
S'HTTP_HOST'
p2662
asbag68
(g89
g70
NtRp2663
(dp2664
g73
(dp2665
g100
g101
ssg82
g2654
sg75
(lp2666
S':'
asbag68
(g89
g70
NtRp2667
(dp2668
g73
(dp2669
sg82
g2654
sg75
(lp2670
g68
(g69
g70
NtRp2671
(dp2672
g73
(dp2673
g81
I3
ssg82
g2667
sg75
(lp2674
g1018
asbasbasbag68
(g84
g70
NtRp2675
(dp2676
g73
(dp2677
sg82
g2503
sg75
(lp2678
g68
(g89
g70
NtRp2679
(dp2680
g73
(dp2681
g93
g94
ssg82
g2675
sg75
(lp2682
S'HTTP_REFERER'
p2683
asbag68
(g89
g70
NtRp2684
(dp2685
g73
(dp2686
g100
g101
ssg82
g2675
sg75
(lp2687
S':'
asbag68
(g89
g70
NtRp2688
(dp2689
g73
(dp2690
sg82
g2675
sg75
(lp2691
g68
(g69
g70
NtRp2692
(dp2693
g73
(dp2694
g81
I3
ssg82
g2688
sg75
(lp2695
g1040
asbasbasbag68
(g84
g70
NtRp2696
(dp2697
g73
(dp2698
sg82
g2503
sg75
(lp2699
g68
(g89
g70
NtRp2700
(dp2701
g73
(dp2702
g93
g94
ssg82
g2696
sg75
(lp2703
S'HTTP_USER_AGENT'
p2704
asbag68
(g89
g70
NtRp2705
(dp2706
g73
(dp2707
g100
g101
ssg82
g2696
sg75
(lp2708
S':'
asbag68
(g89
g70
NtRp2709
(dp2710
g73
(dp2711
sg82
g2696
sg75
(lp2712
g68
(g69
g70
NtRp2713
(dp2714
g73
(dp2715
g81
I3
ssg82
g2709
sg75
(lp2716
g1062
asbasbasbag68
(g84
g70
NtRp2717
(dp2718
g73
(dp2719
sg82
g2503
sg75
(lp2720
g68
(g89
g70
NtRp2721
(dp2722
g73
(dp2723
g93
g94
ssg82
g2717
sg75
(lp2724
S'PATH_INFO'
p2725
asbag68
(g89
g70
NtRp2726
(dp2727
g73
(dp2728
g100
g101
ssg82
g2717
sg75
(lp2729
S':'
asbag68
(g89
g70
NtRp2730
(dp2731
g73
(dp2732
sg82
g2717
sg75
(lp2733
g68
(g69
g70
NtRp2734
(dp2735
g73
(dp2736
g81
I3
ssg82
g2730
sg75
(lp2737
g1216
asbasbasbag68
(g84
g70
NtRp2738
(dp2739
g73
(dp2740
sg82
g2503
sg75
(lp2741
g68
(g89
g70
NtRp2742
(dp2743
g73
(dp2744
g93
g94
ssg82
g2738
sg75
(lp2745
S'QUERY_STRING'
p2746
asbag68
(g89
g70
NtRp2747
(dp2748
g73
(dp2749
g100
g101
ssg82
g2738
sg75
(lp2750
S':'
asbag68
(g89
g70
NtRp2751
(dp2752
g73
(dp2753
sg82
g2738
sg75
(lp2754
g68
(g69
g70
NtRp2755
(dp2756
g73
(dp2757
g81
I3
ssg82
g2751
sg75
(lp2758
S''
asbasbasbag68
(g84
g70
NtRp2759
(dp2760
g73
(dp2761
sg82
g2503
sg75
(lp2762
g68
(g89
g70
NtRp2763
(dp2764
g73
(dp2765
g93
g94
ssg82
g2759
sg75
(lp2766
S'REMOTE_ADDR'
p2767
asbag68
(g89
g70
NtRp2768
(dp2769
g73
(dp2770
g100
g101
ssg82
g2759
sg75
(lp2771
S':'
asbag68
(g89
g70
NtRp2772
(dp2773
g73
(dp2774
sg82
g2759
sg75
(lp2775
g68
(g69
g70
NtRp2776
(dp2777
g73
(dp2778
g81
I3
ssg82
g2772
sg75
(lp2779
g235
asbasbasbag68
(g84
g70
NtRp2780
(dp2781
g73
(dp2782
sg82
g2503
sg75
(lp2783
g68
(g89
g70
NtRp2784
(dp2785
g73
(dp2786
g93
g94
ssg82
g2780
sg75
(lp2787
S'REMOTE_PORT'
p2788
asbag68
(g89
g70
NtRp2789
(dp2790
g73
(dp2791
g100
g101
ssg82
g2780
sg75
(lp2792
S':'
asbag68
(g89
g70
NtRp2793
(dp2794
g73
(dp2795
sg82
g2780
sg75
(lp2796
g68
(g69
g70
NtRp2797
(dp2798
g73
(dp2799
g81
I3
ssg82
g2793
sg75
(lp2800
g1280
asbasbasbag68
(g84
g70
NtRp2801
(dp2802
g73
(dp2803
sg82
g2503
sg75
(lp2804
g68
(g89
g70
NtRp2805
(dp2806
g73
(dp2807
g93
g94
ssg82
g2801
sg75
(lp2808
S'REQUEST_METHOD'
p2809
asbag68
(g89
g70
NtRp2810
(dp2811
g73
(dp2812
g100
g101
ssg82
g2801
sg75
(lp2813
S':'
asbag68
(g89
g70
NtRp2814
(dp2815
g73
(dp2816
sg82
g2801
sg75
(lp2817
g68
(g69
g70
NtRp2818
(dp2819
g73
(dp2820
g81
I3
ssg82
g2814
sg75
(lp2821
g1302
asbasbasbag68
(g84
g70
NtRp2822
(dp2823
g73
(dp2824
sg82
g2503
sg75
(lp2825
g68
(g89
g70
NtRp2826
(dp2827
g73
(dp2828
g93
g94
ssg82
g2822
sg75
(lp2829
S'REQUEST_URI'
p2830
asbag68
(g89
g70
NtRp2831
(dp2832
g73
(dp2833
g100
g101
ssg82
g2822
sg75
(lp2834
S':'
asbag68
(g89
g70
NtRp2835
(dp2836
g73
(dp2837
sg82
g2822
sg75
(lp2838
g68
(g69
g70
NtRp2839
(dp2840
g73
(dp2841
g81
I3
ssg82
g2835
sg75
(lp2842
g1216
asbasbasbag68
(g84
g70
NtRp2843
(dp2844
g73
(dp2845
sg82
g2503
sg75
(lp2846
g68
(g89
g70
NtRp2847
(dp2848
g73
(dp2849
g93
g94
ssg82
g2843
sg75
(lp2850
S'SCRIPT_NAME'
p2851
asbag68
(g89
g70
NtRp2852
(dp2853
g73
(dp2854
g100
g101
ssg82
g2843
sg75
(lp2855
S':'
asbag68
(g89
g70
NtRp2856
(dp2857
g73
(dp2858
sg82
g2843
sg75
(lp2859
g68
(g69
g70
NtRp2860
(dp2861
g73
(dp2862
g81
I3
ssg82
g2856
sg75
(lp2863
S''
asbasbasbag68
(g84
g70
NtRp2864
(dp2865
g73
(dp2866
sg82
g2503
sg75
(lp2867
g68
(g89
g70
NtRp2868
(dp2869
g73
(dp2870
g93
g94
ssg82
g2864
sg75
(lp2871
S'SERVER_NAME'
p2872
asbag68
(g89
g70
NtRp2873
(dp2874
g73
(dp2875
g100
g101
ssg82
g2864
sg75
(lp2876
S':'
asbag68
(g89
g70
NtRp2877
(dp2878
g73
(dp2879
sg82
g2864
sg75
(lp2880
g68
(g69
g70
NtRp2881
(dp2882
g73
(dp2883
g81
I3
ssg82
g2877
sg75
(lp2884
g1366
asbasbasbag68
(g84
g70
NtRp2885
(dp2886
g73
(dp2887
sg82
g2503
sg75
(lp2888
g68
(g89
g70
NtRp2889
(dp2890
g73
(dp2891
g93
g94
ssg82
g2885
sg75
(lp2892
S'SERVER_PORT'
p2893
asbag68
(g89
g70
NtRp2894
(dp2895
g73
(dp2896
g100
g101
ssg82
g2885
sg75
(lp2897
S':'
asbag68
(g89
g70
NtRp2898
(dp2899
g73
(dp2900
sg82
g2885
sg75
(lp2901
g68
(g69
g70
NtRp2902
(dp2903
g73
(dp2904
g81
I3
ssg82
g2898
sg75
(lp2905
g1388
asbasbasbag68
(g84
g70
NtRp2906
(dp2907
g73
(dp2908
sg82
g2503
sg75
(lp2909
g68
(g89
g70
NtRp2910
(dp2911
g73
(dp2912
g93
g94
ssg82
g2906
sg75
(lp2913
S'SERVER_PROTOCOL'
p2914
asbag68
(g89
g70
NtRp2915
(dp2916
g73
(dp2917
g100
g101
ssg82
g2906
sg75
(lp2918
S':'
asbag68
(g89
g70
NtRp2919
(dp2920
g73
(dp2921
sg82
g2906
sg75
(lp2922
g68
(g69
g70
NtRp2923
(dp2924
g73
(dp2925
g81
I3
ssg82
g2919
sg75
(lp2926
g1410
asbasbasbag68
(g84
g70
NtRp2927
(dp2928
g73
(dp2929
sg82
g2503
sg75
(lp2930
g68
(g89
g70
NtRp2931
(dp2932
g73
(dp2933
g93
g94
ssg82
g2927
sg75
(lp2934
S'SERVER_SOFTWARE'
p2935
asbag68
(g89
g70
NtRp2936
(dp2937
g73
(dp2938
g100
g101
ssg82
g2927
sg75
(lp2939
S':'
asbag68
(g89
g70
NtRp2940
(dp2941
g73
(dp2942
sg82
g2927
sg75
(lp2943
g68
(g69
g70
NtRp2944
(dp2945
g73
(dp2946
g81
I3
ssg82
g2940
sg75
(lp2947
g1432
asbasbasbag68
(g84
g70
NtRp2948
(dp2949
g73
(dp2950
sg82
g2503
sg75
(lp2951
g68
(g89
g70
NtRp2952
(dp2953
g73
(dp2954
g93
g94
ssg82
g2948
sg75
(lp2955
S'wsgi.errors'
p2956
asbag68
(g89
g70
NtRp2957
(dp2958
g73
(dp2959
g100
g101
ssg82
g2948
sg75
(lp2960
S':'
asbag68
(g89
g70
NtRp2961
(dp2962
g73
(dp2963
sg82
g2948
sg75
(lp2964
g68
(g69
g70
NtRp2965
(dp2966
g73
(dp2967
g81
I3
ssg82
g2961
sg75
(lp2968
S"<open file '<stderr>', mode 'w' at 0x00DE50D0>"
p2969
asbasbasbag68
(g84
g70
NtRp2970
(dp2971
g73
(dp2972
sg82
g2503
sg75
(lp2973
g68
(g89
g70
NtRp2974
(dp2975
g73
(dp2976
g93
g94
ssg82
g2970
sg75
(lp2977
S'wsgi.file_wrapper'
p2978
asbag68
(g89
g70
NtRp2979
(dp2980
g73
(dp2981
g100
g101
ssg82
g2970
sg75
(lp2982
S':'
asbag68
(g89
g70
NtRp2983
(dp2984
g73
(dp2985
sg82
g2970
sg75
(lp2986
g68
(g69
g70
NtRp2987
(dp2988
g73
(dp2989
g81
I3
ssg82
g2983
sg75
(lp2990
S'<class wsgiref.util.FileWrapper at 0x016F4C38>'
p2991
asbasbasbag68
(g84
g70
NtRp2992
(dp2993
g73
(dp2994
sg82
g2503
sg75
(lp2995
g68
(g89
g70
NtRp2996
(dp2997
g73
(dp2998
g93
g94
ssg82
g2992
sg75
(lp2999
S'wsgi.input'
p3000
asbag68
(g89
g70
NtRp3001
(dp3002
g73
(dp3003
g100
g101
ssg82
g2992
sg75
(lp3004
S':'
asbag68
(g89
g70
NtRp3005
(dp3006
g73
(dp3007
sg82
g2992
sg75
(lp3008
g68
(g69
g70
NtRp3009
(dp3010
g73
(dp3011
g81
I3
ssg82
g3005
sg75
(lp3012
S'<cStringIO.StringO object at 0x05D8ABE0>'
p3013
asbasbasbag68
(g84
g70
NtRp3014
(dp3015
g73
(dp3016
sg82
g2503
sg75
(lp3017
g68
(g89
g70
NtRp3018
(dp3019
g73
(dp3020
g93
g94
ssg82
g3014
sg75
(lp3021
S'wsgi.multiprocess'
p3022
asbag68
(g89
g70
NtRp3023
(dp3024
g73
(dp3025
g100
g101
ssg82
g3014
sg75
(lp3026
S':'
asbag68
(g89
g70
NtRp3027
(dp3028
g73
(dp3029
sg82
g3014
sg75
(lp3030
g68
(g69
g70
NtRp3031
(dp3032
g73
(dp3033
g81
I3
ssg82
g3027
sg75
(lp3034
g111
asbasbasbag68
(g84
g70
NtRp3035
(dp3036
g73
(dp3037
sg82
g2503
sg75
(lp3038
g68
(g89
g70
NtRp3039
(dp3040
g73
(dp3041
g93
g94
ssg82
g3035
sg75
(lp3042
S'wsgi.multithread'
p3043
asbag68
(g89
g70
NtRp3044
(dp3045
g73
(dp3046
g100
g101
ssg82
g3035
sg75
(lp3047
S':'
asbag68
(g89
g70
NtRp3048
(dp3049
g73
(dp3050
sg82
g3035
sg75
(lp3051
g68
(g69
g70
NtRp3052
(dp3053
g73
(dp3054
g81
I3
ssg82
g3048
sg75
(lp3055
g1649
asbasbasbag68
(g84
g70
NtRp3056
(dp3057
g73
(dp3058
sg82
g2503
sg75
(lp3059
g68
(g89
g70
NtRp3060
(dp3061
g73
(dp3062
g93
g94
ssg82
g3056
sg75
(lp3063
S'wsgi.run_once'
p3064
asbag68
(g89
g70
NtRp3065
(dp3066
g73
(dp3067
g100
g101
ssg82
g3056
sg75
(lp3068
S':'
asbag68
(g89
g70
NtRp3069
(dp3070
g73
(dp3071
sg82
g3056
sg75
(lp3072
g68
(g69
g70
NtRp3073
(dp3074
g73
(dp3075
g81
I3
ssg82
g3069
sg75
(lp3076
g111
asbasbasbag68
(g84
g70
NtRp3077
(dp3078
g73
(dp3079
sg82
g2503
sg75
(lp3080
g68
(g89
g70
NtRp3081
(dp3082
g73
(dp3083
g93
g94
ssg82
g3077
sg75
(lp3084
S'wsgi.url_scheme'
p3085
asbag68
(g89
g70
NtRp3086
(dp3087
g73
(dp3088
g100
g101
ssg82
g3077
sg75
(lp3089
S':'
asbag68
(g89
g70
NtRp3090
(dp3091
g73
(dp3092
sg82
g3077
sg75
(lp3093
g68
(g69
g70
NtRp3094
(dp3095
g73
(dp3096
g81
I3
ssg82
g3090
sg75
(lp3097
g1692
asbasbasbag68
(g84
g70
NtRp3098
(dp3099
g73
(dp3100
sg82
g2503
sg75
(lp3101
g68
(g89
g70
NtRp3102
(dp3103
g73
(dp3104
g93
g94
ssg82
g3098
sg75
(lp3105
S'wsgi.version'
p3106
asbag68
(g89
g70
NtRp3107
(dp3108
g73
(dp3109
g100
g101
ssg82
g3098
sg75
(lp3110
S':'
asbag68
(g89
g70
NtRp3111
(dp3112
g73
(dp3113
sg82
g3098
sg75
(lp3114
g68
(g69
g70
NtRp3115
(dp3116
g73
(dp3117
g81
I3
ssg82
g3111
sg75
(lp3118
S'1'
asbasbasbasbasbasbasbasbasbasbasbasbasbsS'frames'
p3119
(lp3120
(dp3121
S'file'
p3122
S'C:\\Python27\\web2py\\gluon\\restricted.py'
p3123
sS'dump'
p3124
(dp3125
S'code'
p3126
S'r"response.write(\'<!DOCTYPE html>\\n<!-- paulirish....ipt>\\n  -->\\n</body>\\n</html>\\n\\n\', escape=False)"'
p3127
sS'layer'
p3128
S"r'C:\\Python27\\web2py\\applications\\hw4\\views\\default/defen.html'"
p3129
sS'global compile2'
p3130
S'<function compile2>'
p3131
sS'ccode'
p3132
S'undefined'
p3133
ssS'lnum'
p3134
I211
sS'lines'
p3135
(dp3136
I206
S"    environment['__name__'] = '__restricted__'"
p3137
sI207
S'    try:'
p3138
sI208
S'        if isinstance(code, types.CodeType):'
p3139
sI209
S'            ccode = code'
p3140
sI210
S'        else:'
p3141
sI211
S'            ccode = compile2(code, layer)'
p3142
sI212
S'        exec ccode in environment'
p3143
sI213
S'    except HTTP:'
p3144
sI214
S'        raise'
p3145
sI215
S'    except RestrictedError:'
p3146
ssS'call'
p3147
S'(code=r"response.write(\'<!DOCTYPE html>\\n<!-- paulirish....ipt>\\n  -->\\n</body>\\n</html>\\n\\n\', escape=False)", environment={\'A\': <class \'gluon.html.A\'>, \'Auth\': <class \'gluon.tools.Auth\'>, \'B\': <class \'gluon.html.B\'>, \'BEAUTIFY\': <class \'gluon.html.BEAUTIFY\'>, \'BODY\': <class \'gluon.html.BODY\'>, \'BR\': <class \'gluon.html.BR\'>, \'BUTTON\': <class \'gluon.html.BUTTON\'>, \'CAT\': <class \'gluon.html.CAT\'>, \'CENTER\': <class \'gluon.html.CENTER\'>, \'CLEANUP\': <class \'gluon.validators.CLEANUP\'>, ...}, layer=r\'C:\\Python27\\web2py\\applications\\hw4\\views\\default/defen.html\')'
p3148
sS'func'
p3149
S'restricted'
p3150
sa(dp3151
g3122
S'C:\\Python27\\web2py\\gluon\\restricted.py'
p3152
sg3124
(dp3153
S'builtincompile'
p3154
S'<built-in function compile>'
p3155
sS'code'
p3156
S'r"response.write(\'<!DOCTYPE html>\\n<!-- paulirish....ipt>\\n  -->\\n</body>\\n</html>\\n\\n\', escape=False)"'
p3157
sS'code.rstrip'
p3158
S'<built-in method rstrip of str object>'
p3159
sS').replace'
p3160
g3133
sS'layer'
p3161
S"r'C:\\Python27\\web2py\\applications\\hw4\\views\\default/defen.html'"
p3162
ssg3134
I194
sg3135
(dp3163
I192
S"    The +'\\n' is necessary else compile fails when code ends in a comment."
p3164
sI193
S'    """'
p3165
sI194
S"    return compile(code.rstrip().replace('\\r\\n', '\\n') + '\\n', layer, 'exec')"
p3166
sI195
S''
sI196
S''
sI197
S"def restricted(code, environment=None, layer='Unknown'):"
p3167
sI198
S'    """'
p3168
sI189
S''
sI190
S'def compile2(code, layer):'
p3169
sI191
S'    """'
p3170
ssg3147
S'(code=r"response.write(\'<!DOCTYPE html>\\n<!-- paulirish....ipt>\\n  -->\\n</body>\\n</html>\\n\\n\', escape=False)", layer=r\'C:\\Python27\\web2py\\applications\\hw4\\views\\default/defen.html\')'
p3171
sg3149
S'compile2'
p3172
sasS'pyver'
p3173
S'Python 2.7.3: C:\\Python27\\python.exe'
p3174
sS'session'
p3175
g68
(g69
g70
NtRp3176
(dp3177
g73
(dp3178
sg75
(lp3179
g68
(g77
g70
NtRp3180
(dp3181
g73
(dp3182
g81
I5
ssg82
Nsg75
(lp3183
g68
(g84
g70
NtRp3184
(dp3185
g73
(dp3186
sg82
g3180
sg75
(lp3187
g68
(g89
g70
NtRp3188
(dp3189
g73
(dp3190
g93
g94
ssg82
g3184
sg75
(lp3191
S'auth'
p3192
asbag68
(g89
g70
NtRp3193
(dp3194
g73
(dp3195
g100
g101
ssg82
g3184
sg75
(lp3196
S':'
asbag68
(g89
g70
NtRp3197
(dp3198
g73
(dp3199
sg82
g3184
sg75
(lp3200
g68
(g69
g70
NtRp3201
(dp3202
g73
(dp3203
g81
I5
ssg82
g3197
sg75
(lp3204
g68
(g77
g70
NtRp3205
(dp3206
g73
(dp3207
g81
I4
ssg82
Nsg75
(lp3208
g68
(g84
g70
NtRp3209
(dp3210
g73
(dp3211
sg82
g3205
sg75
(lp3212
g68
(g89
g70
NtRp3213
(dp3214
g73
(dp3215
g93
g94
ssg82
g3209
sg75
(lp3216
S'expiration'
p3217
asbag68
(g89
g70
NtRp3218
(dp3219
g73
(dp3220
g100
g101
ssg82
g3209
sg75
(lp3221
S':'
asbag68
(g89
g70
NtRp3222
(dp3223
g73
(dp3224
sg82
g3209
sg75
(lp3225
g68
(g69
g70
NtRp3226
(dp3227
g73
(dp3228
g81
I4
ssg82
g3222
sg75
(lp3229
S'3600'
p3230
asbasbasbag68
(g84
g70
NtRp3231
(dp3232
g73
(dp3233
sg82
g3205
sg75
(lp3234
g68
(g89
g70
NtRp3235
(dp3236
g73
(dp3237
g93
g94
ssg82
g3231
sg75
(lp3238
S'hmac_key'
p3239
asbag68
(g89
g70
NtRp3240
(dp3241
g73
(dp3242
g100
g101
ssg82
g3231
sg75
(lp3243
S':'
asbag68
(g89
g70
NtRp3244
(dp3245
g73
(dp3246
sg82
g3231
sg75
(lp3247
g68
(g69
g70
NtRp3248
(dp3249
g73
(dp3250
g81
I4
ssg82
g3244
sg75
(lp3251
S'0519ec03-9186-48ba-9ffe-ae31c75d28b0'
p3252
asbasbasbag68
(g84
g70
NtRp3253
(dp3254
g73
(dp3255
sg82
g3205
sg75
(lp3256
g68
(g89
g70
NtRp3257
(dp3258
g73
(dp3259
g93
g94
ssg82
g3253
sg75
(lp3260
S'last_visit'
p3261
asbag68
(g89
g70
NtRp3262
(dp3263
g73
(dp3264
g100
g101
ssg82
g3253
sg75
(lp3265
S':'
asbag68
(g89
g70
NtRp3266
(dp3267
g73
(dp3268
sg82
g3253
sg75
(lp3269
g68
(g69
g70
NtRp3270
(dp3271
g73
(dp3272
g81
I4
ssg82
g3266
sg75
(lp3273
S'datetime.datetime(2013, 8, 22, 15, 26, 31, 15000)'
p3274
asbasbasbag68
(g84
g70
NtRp3275
(dp3276
g73
(dp3277
sg82
g3205
sg75
(lp3278
g68
(g89
g70
NtRp3279
(dp3280
g73
(dp3281
g93
g94
ssg82
g3275
sg75
(lp3282
S'remember'
p3283
asbag68
(g89
g70
NtRp3284
(dp3285
g73
(dp3286
g100
g101
ssg82
g3275
sg75
(lp3287
S':'
asbag68
(g89
g70
NtRp3288
(dp3289
g73
(dp3290
sg82
g3275
sg75
(lp3291
g68
(g69
g70
NtRp3292
(dp3293
g73
(dp3294
g81
I4
ssg82
g3288
sg75
(lp3295
g111
asbasbasbag68
(g84
g70
NtRp3296
(dp3297
g73
(dp3298
sg82
g3205
sg75
(lp3299
g68
(g89
g70
NtRp3300
(dp3301
g73
(dp3302
g93
g94
ssg82
g3296
sg75
(lp3303
S'user'
p3304
asbag68
(g89
g70
NtRp3305
(dp3306
g73
(dp3307
g100
g101
ssg82
g3296
sg75
(lp3308
S':'
asbag68
(g89
g70
NtRp3309
(dp3310
g73
(dp3311
sg82
g3296
sg75
(lp3312
g68
(g69
g70
NtRp3313
(dp3314
g73
(dp3315
g81
I4
ssg82
g3309
sg75
(lp3316
g68
(g77
g70
NtRp3317
(dp3318
g73
(dp3319
g81
I3
ssg82
Nsg75
(lp3320
g68
(g84
g70
NtRp3321
(dp3322
g73
(dp3323
sg82
g3317
sg75
(lp3324
g68
(g89
g70
NtRp3325
(dp3326
g73
(dp3327
g93
g94
ssg82
g3321
sg75
(lp3328
S'banji'
p3329
asbag68
(g89
g70
NtRp3330
(dp3331
g73
(dp3332
g100
g101
ssg82
g3321
sg75
(lp3333
S':'
asbag68
(g89
g70
NtRp3334
(dp3335
g73
(dp3336
sg82
g3321
sg75
(lp3337
g68
(g69
g70
NtRp3338
(dp3339
g73
(dp3340
g81
I3
ssg82
g3334
sg75
(lp3341
S'03'
p3342
asbasbasbag68
(g84
g70
NtRp3343
(dp3344
g73
(dp3345
sg82
g3317
sg75
(lp3346
g68
(g89
g70
NtRp3347
(dp3348
g73
(dp3349
g93
g94
ssg82
g3343
sg75
(lp3350
S'email'
p3351
asbag68
(g89
g70
NtRp3352
(dp3353
g73
(dp3354
g100
g101
ssg82
g3343
sg75
(lp3355
S':'
asbag68
(g89
g70
NtRp3356
(dp3357
g73
(dp3358
sg82
g3343
sg75
(lp3359
g68
(g69
g70
NtRp3360
(dp3361
g73
(dp3362
g81
I3
ssg82
g3356
sg75
(lp3363
S'3@test.com'
p3364
asbasbasbag68
(g84
g70
NtRp3365
(dp3366
g73
(dp3367
sg82
g3317
sg75
(lp3368
g68
(g89
g70
NtRp3369
(dp3370
g73
(dp3371
g93
g94
ssg82
g3365
sg75
(lp3372
S'first_name'
p3373
asbag68
(g89
g70
NtRp3374
(dp3375
g73
(dp3376
g100
g101
ssg82
g3365
sg75
(lp3377
S':'
asbag68
(g89
g70
NtRp3378
(dp3379
g73
(dp3380
sg82
g3365
sg75
(lp3381
g68
(g69
g70
NtRp3382
(dp3383
g73
(dp3384
g81
I3
ssg82
g3378
sg75
(lp3385
S'3'
asbasbasbag68
(g84
g70
NtRp3386
(dp3387
g73
(dp3388
sg82
g3317
sg75
(lp3389
g68
(g89
g70
NtRp3390
(dp3391
g73
(dp3392
g93
g94
ssg82
g3386
sg75
(lp3393
S'id'
p3394
asbag68
(g89
g70
NtRp3395
(dp3396
g73
(dp3397
g100
g101
ssg82
g3386
sg75
(lp3398
S':'
asbag68
(g89
g70
NtRp3399
(dp3400
g73
(dp3401
sg82
g3386
sg75
(lp3402
g68
(g69
g70
NtRp3403
(dp3404
g73
(dp3405
g81
I3
ssg82
g3399
sg75
(lp3406
S'3'
asbasbasbag68
(g84
g70
NtRp3407
(dp3408
g73
(dp3409
sg82
g3317
sg75
(lp3410
g68
(g89
g70
NtRp3411
(dp3412
g73
(dp3413
g93
g94
ssg82
g3407
sg75
(lp3414
S'jie'
p3415
asbag68
(g89
g70
NtRp3416
(dp3417
g73
(dp3418
g100
g101
ssg82
g3407
sg75
(lp3419
S':'
asbag68
(g89
g70
NtRp3420
(dp3421
g73
(dp3422
sg82
g3407
sg75
(lp3423
g68
(g69
g70
NtRp3424
(dp3425
g73
(dp3426
g81
I3
ssg82
g3420
sg75
(lp3427
S'15'
p3428
asbasbasbag68
(g84
g70
NtRp3429
(dp3430
g73
(dp3431
sg82
g3317
sg75
(lp3432
g68
(g89
g70
NtRp3433
(dp3434
g73
(dp3435
g93
g94
ssg82
g3429
sg75
(lp3436
S'last_name'
p3437
asbag68
(g89
g70
NtRp3438
(dp3439
g73
(dp3440
g100
g101
ssg82
g3429
sg75
(lp3441
S':'
asbag68
(g89
g70
NtRp3442
(dp3443
g73
(dp3444
sg82
g3429
sg75
(lp3445
g68
(g69
g70
NtRp3446
(dp3447
g73
(dp3448
g81
I3
ssg82
g3442
sg75
(lp3449
S'11'
p3450
asbasbasbag68
(g84
g70
NtRp3451
(dp3452
g73
(dp3453
sg82
g3317
sg75
(lp3454
g68
(g89
g70
NtRp3455
(dp3456
g73
(dp3457
g93
g94
ssg82
g3451
sg75
(lp3458
S'registration_id'
p3459
asbag68
(g89
g70
NtRp3460
(dp3461
g73
(dp3462
g100
g101
ssg82
g3451
sg75
(lp3463
S':'
asbag68
(g89
g70
NtRp3464
(dp3465
g73
(dp3466
sg82
g3451
sg75
(lp3467
g68
(g69
g70
NtRp3468
(dp3469
g73
(dp3470
g81
I3
ssg82
g3464
sg75
(lp3471
S''
asbasbasbag68
(g84
g70
NtRp3472
(dp3473
g73
(dp3474
sg82
g3317
sg75
(lp3475
g68
(g89
g70
NtRp3476
(dp3477
g73
(dp3478
g93
g94
ssg82
g3472
sg75
(lp3479
S'registration_key'
p3480
asbag68
(g89
g70
NtRp3481
(dp3482
g73
(dp3483
g100
g101
ssg82
g3472
sg75
(lp3484
S':'
asbag68
(g89
g70
NtRp3485
(dp3486
g73
(dp3487
sg82
g3472
sg75
(lp3488
g68
(g69
g70
NtRp3489
(dp3490
g73
(dp3491
g81
I3
ssg82
g3485
sg75
(lp3492
S''
asbasbasbag68
(g84
g70
NtRp3493
(dp3494
g73
(dp3495
sg82
g3317
sg75
(lp3496
g68
(g89
g70
NtRp3497
(dp3498
g73
(dp3499
g93
g94
ssg82
g3493
sg75
(lp3500
S'reset_password_key'
p3501
asbag68
(g89
g70
NtRp3502
(dp3503
g73
(dp3504
g100
g101
ssg82
g3493
sg75
(lp3505
S':'
asbag68
(g89
g70
NtRp3506
(dp3507
g73
(dp3508
sg82
g3493
sg75
(lp3509
g68
(g69
g70
NtRp3510
(dp3511
g73
(dp3512
g81
I3
ssg82
g3506
sg75
(lp3513
S''
asbasbasbasbasbasbasbag68
(g84
g70
NtRp3514
(dp3515
g73
(dp3516
sg82
g3205
sg75
(lp3517
g68
(g89
g70
NtRp3518
(dp3519
g73
(dp3520
g93
g94
ssg82
g3514
sg75
(lp3521
S'user_groups'
p3522
asbag68
(g89
g70
NtRp3523
(dp3524
g73
(dp3525
g100
g101
ssg82
g3514
sg75
(lp3526
S':'
asbag68
(g89
g70
NtRp3527
(dp3528
g73
(dp3529
sg82
g3514
sg75
(lp3530
g68
(g69
g70
NtRp3531
(dp3532
g73
(dp3533
g81
I4
ssg82
g3527
sg75
(lp3534
g68
(g77
g70
NtRp3535
(dp3536
g73
(dp3537
g81
I3
ssg82
Nsg75
(lp3538
g68
(g84
g70
NtRp3539
(dp3540
g73
(dp3541
sg82
g3535
sg75
(lp3542
g68
(g89
g70
NtRp3543
(dp3544
g73
(dp3545
g93
g94
ssg82
g3539
sg75
(lp3546
S'3'
asbag68
(g89
g70
NtRp3547
(dp3548
g73
(dp3549
g100
g101
ssg82
g3539
sg75
(lp3550
S':'
asbag68
(g89
g70
NtRp3551
(dp3552
g73
(dp3553
sg82
g3539
sg75
(lp3554
g68
(g69
g70
NtRp3555
(dp3556
g73
(dp3557
g81
I3
ssg82
g3551
sg75
(lp3558
S'user_3'
p3559
asbasbasbasbasbasbasbasbasbasbasbag68
(g84
g70
NtRp3560
(dp3561
g73
(dp3562
sg82
g3180
sg75
(lp3563
g68
(g89
g70
NtRp3564
(dp3565
g73
(dp3566
g93
g94
ssg82
g3560
sg75
(lp3567
S'flash'
p3568
asbag68
(g89
g70
NtRp3569
(dp3570
g73
(dp3571
g100
g101
ssg82
g3560
sg75
(lp3572
S':'
asbag68
(g89
g70
NtRp3573
(dp3574
g73
(dp3575
sg82
g3560
sg75
(lp3576
g68
(g69
g70
NtRp3577
(dp3578
g73
(dp3579
g81
I5
ssg82
g3573
sg75
(lp3580
S'None'
p3581
asbasbasbag68
(g84
g70
NtRp3582
(dp3583
g73
(dp3584
sg82
g3180
sg75
(lp3585
g68
(g89
g70
NtRp3586
(dp3587
g73
(dp3588
g93
g94
ssg82
g3582
sg75
(lp3589
S'last_orderby'
p3590
asbag68
(g89
g70
NtRp3591
(dp3592
g73
(dp3593
g100
g101
ssg82
g3582
sg75
(lp3594
S':'
asbag68
(g89
g70
NtRp3595
(dp3596
g73
(dp3597
sg82
g3582
sg75
(lp3598
g68
(g69
g70
NtRp3599
(dp3600
g73
(dp3601
g81
I5
ssg82
g3595
sg75
(lp3602
S'None'
p3603
asbasbasbag68
(g84
g70
NtRp3604
(dp3605
g73
(dp3606
sg82
g3180
sg75
(lp3607
g68
(g89
g70
NtRp3608
(dp3609
g73
(dp3610
g93
g94
ssg82
g3604
sg75
(lp3611
S'last_query'
p3612
asbag68
(g89
g70
NtRp3613
(dp3614
g73
(dp3615
g100
g101
ssg82
g3604
sg75
(lp3616
S':'
asbag68
(g89
g70
NtRp3617
(dp3618
g73
(dp3619
sg82
g3604
sg75
(lp3620
g68
(g69
g70
NtRp3621
(dp3622
g73
(dp3623
g81
I5
ssg82
g3617
sg75
(lp3624
S'db.zuoti.id>0'
p3625
asbasbasbasbasbsS'etype'
p3626
S"<type 'exceptions.SyntaxError'>"
p3627
sS'date'
p3628
S'Thu Aug 22 15:26:31 2013'
p3629
sS'response'
p3630
g68
(g69
g70
NtRp3631
(dp3632
g73
(dp3633
sg75
(lp3634
g68
(g77
g70
NtRp3635
(dp3636
g73
(dp3637
g81
I5
ssg82
Nsg75
(lp3638
g68
(g84
g70
NtRp3639
(dp3640
g73
(dp3641
sg82
g3635
sg75
(lp3642
g68
(g89
g70
NtRp3643
(dp3644
g73
(dp3645
g93
g94
ssg82
g3639
sg75
(lp3646
g178
asbag68
(g89
g70
NtRp3647
(dp3648
g73
(dp3649
g100
g101
ssg82
g3639
sg75
(lp3650
S':'
asbag68
(g89
g70
NtRp3651
(dp3652
g73
(dp3653
sg82
g3639
sg75
(lp3654
g68
(g69
g70
NtRp3655
(dp3656
g73
(dp3657
g81
I5
ssg82
g3651
sg75
(lp3658
S'<cStringIO.StringO object at 0x05A13040>'
p3659
asbasbasbag68
(g84
g70
NtRp3660
(dp3661
g73
(dp3662
sg82
g3635
sg75
(lp3663
g68
(g89
g70
NtRp3664
(dp3665
g73
(dp3666
g93
g94
ssg82
g3660
sg75
(lp3667
g266
asbag68
(g89
g70
NtRp3668
(dp3669
g73
(dp3670
g100
g101
ssg82
g3660
sg75
(lp3671
S':'
asbag68
(g89
g70
NtRp3672
(dp3673
g73
(dp3674
sg82
g3660
sg75
(lp3675
g68
(g69
g70
NtRp3676
(dp3677
g73
(dp3678
g81
I5
ssg82
g3672
sg75
(lp3679
g68
(g77
g70
NtRp3680
(dp3681
g73
(dp3682
g81
I4
ssg82
Nsg75
(lp3683
g68
(g84
g70
NtRp3684
(dp3685
g73
(dp3686
sg82
g3680
sg75
(lp3687
g68
(g89
g70
NtRp3688
(dp3689
g73
(dp3690
g93
g94
ssg82
g3684
sg75
(lp3691
S'session_id_hw4'
p3692
asbag68
(g89
g70
NtRp3693
(dp3694
g73
(dp3695
g100
g101
ssg82
g3684
sg75
(lp3696
S':'
asbag68
(g89
g70
NtRp3697
(dp3698
g73
(dp3699
sg82
g3684
sg75
(lp3700
g68
(g69
g70
NtRp3701
(dp3702
g73
(dp3703
g81
I4
ssg82
g3697
sg75
(lp3704
g498
ag68
(g77
g70
NtRp3705
(dp3706
g73
(dp3707
g81
I3
ssg82
Nsg75
(lp3708
g68
(g84
g70
NtRp3709
(dp3710
g73
(dp3711
sg82
g3705
sg75
(lp3712
g68
(g89
g70
NtRp3713
(dp3714
g73
(dp3715
g93
g94
ssg82
g3709
sg75
(lp3716
g317
asbag68
(g89
g70
NtRp3717
(dp3718
g73
(dp3719
g100
g101
ssg82
g3709
sg75
(lp3720
S':'
asbag68
(g89
g70
NtRp3721
(dp3722
g73
(dp3723
sg82
g3709
sg75
(lp3724
g68
(g69
g70
NtRp3725
(dp3726
g73
(dp3727
g81
I3
ssg82
g3721
sg75
(lp3728
S''
asbasbasbag68
(g84
g70
NtRp3729
(dp3730
g73
(dp3731
sg82
g3705
sg75
(lp3732
g68
(g89
g70
NtRp3733
(dp3734
g73
(dp3735
g93
g94
ssg82
g3729
sg75
(lp3736
g338
asbag68
(g89
g70
NtRp3737
(dp3738
g73
(dp3739
g100
g101
ssg82
g3729
sg75
(lp3740
S':'
asbag68
(g89
g70
NtRp3741
(dp3742
g73
(dp3743
sg82
g3729
sg75
(lp3744
g68
(g69
g70
NtRp3745
(dp3746
g73
(dp3747
g81
I3
ssg82
g3741
sg75
(lp3748
S''
asbasbasbag68
(g84
g70
NtRp3749
(dp3750
g73
(dp3751
sg82
g3705
sg75
(lp3752
g68
(g89
g70
NtRp3753
(dp3754
g73
(dp3755
g93
g94
ssg82
g3749
sg75
(lp3756
g359
asbag68
(g89
g70
NtRp3757
(dp3758
g73
(dp3759
g100
g101
ssg82
g3749
sg75
(lp3760
S':'
asbag68
(g89
g70
NtRp3761
(dp3762
g73
(dp3763
sg82
g3749
sg75
(lp3764
g68
(g69
g70
NtRp3765
(dp3766
g73
(dp3767
g81
I3
ssg82
g3761
sg75
(lp3768
S''
asbasbasbag68
(g84
g70
NtRp3769
(dp3770
g73
(dp3771
sg82
g3705
sg75
(lp3772
g68
(g89
g70
NtRp3773
(dp3774
g73
(dp3775
g93
g94
ssg82
g3769
sg75
(lp3776
g380
asbag68
(g89
g70
NtRp3777
(dp3778
g73
(dp3779
g100
g101
ssg82
g3769
sg75
(lp3780
S':'
asbag68
(g89
g70
NtRp3781
(dp3782
g73
(dp3783
sg82
g3769
sg75
(lp3784
g68
(g69
g70
NtRp3785
(dp3786
g73
(dp3787
g81
I3
ssg82
g3781
sg75
(lp3788
S''
asbasbasbag68
(g84
g70
NtRp3789
(dp3790
g73
(dp3791
sg82
g3705
sg75
(lp3792
g68
(g89
g70
NtRp3793
(dp3794
g73
(dp3795
g93
g94
ssg82
g3789
sg75
(lp3796
g401
asbag68
(g89
g70
NtRp3797
(dp3798
g73
(dp3799
g100
g101
ssg82
g3789
sg75
(lp3800
S':'
asbag68
(g89
g70
NtRp3801
(dp3802
g73
(dp3803
sg82
g3789
sg75
(lp3804
g68
(g69
g70
NtRp3805
(dp3806
g73
(dp3807
g81
I3
ssg82
g3801
sg75
(lp3808
S''
asbasbasbag68
(g84
g70
NtRp3809
(dp3810
g73
(dp3811
sg82
g3705
sg75
(lp3812
g68
(g89
g70
NtRp3813
(dp3814
g73
(dp3815
g93
g94
ssg82
g3809
sg75
(lp3816
g422
asbag68
(g89
g70
NtRp3817
(dp3818
g73
(dp3819
g100
g101
ssg82
g3809
sg75
(lp3820
S':'
asbag68
(g89
g70
NtRp3821
(dp3822
g73
(dp3823
sg82
g3809
sg75
(lp3824
g68
(g69
g70
NtRp3825
(dp3826
g73
(dp3827
g81
I3
ssg82
g3821
sg75
(lp3828
S'/'
asbasbasbag68
(g84
g70
NtRp3829
(dp3830
g73
(dp3831
sg82
g3705
sg75
(lp3832
g68
(g89
g70
NtRp3833
(dp3834
g73
(dp3835
g93
g94
ssg82
g3829
sg75
(lp3836
g443
asbag68
(g89
g70
NtRp3837
(dp3838
g73
(dp3839
g100
g101
ssg82
g3829
sg75
(lp3840
S':'
asbag68
(g89
g70
NtRp3841
(dp3842
g73
(dp3843
sg82
g3829
sg75
(lp3844
g68
(g69
g70
NtRp3845
(dp3846
g73
(dp3847
g81
I3
ssg82
g3841
sg75
(lp3848
S''
asbasbasbag68
(g84
g70
NtRp3849
(dp3850
g73
(dp3851
sg82
g3705
sg75
(lp3852
g68
(g89
g70
NtRp3853
(dp3854
g73
(dp3855
g93
g94
ssg82
g3849
sg75
(lp3856
g464
asbag68
(g89
g70
NtRp3857
(dp3858
g73
(dp3859
g100
g101
ssg82
g3849
sg75
(lp3860
S':'
asbag68
(g89
g70
NtRp3861
(dp3862
g73
(dp3863
sg82
g3849
sg75
(lp3864
g68
(g69
g70
NtRp3865
(dp3866
g73
(dp3867
g81
I3
ssg82
g3861
sg75
(lp3868
S''
asbasbasbasbasbasbasbasbasbasbasbag68
(g84
g70
NtRp3869
(dp3870
g73
(dp3871
sg82
g3635
sg75
(lp3872
g68
(g89
g70
NtRp3873
(dp3874
g73
(dp3875
g93
g94
ssg82
g3869
sg75
(lp3876
S'delimiters'
p3877
asbag68
(g89
g70
NtRp3878
(dp3879
g73
(dp3880
g100
g101
ssg82
g3869
sg75
(lp3881
S':'
asbag68
(g89
g70
NtRp3882
(dp3883
g73
(dp3884
sg82
g3869
sg75
(lp3885
g68
(g69
g70
NtRp3886
(dp3887
g73
(dp3888
g81
I5
ssg82
g3882
sg75
(lp3889
g68
(g77
g70
NtRp3890
(dp3891
g73
(dp3892
g81
I4
ssg82
Nsg75
(lp3893
g68
(g84
g70
NtRp3894
(dp3895
g73
(dp3896
sg82
g3890
sg75
(lp3897
g68
(g89
g70
NtRp3898
(dp3899
g73
(dp3900
sg82
g3894
sg75
(lp3901
g68
(g69
g70
NtRp3902
(dp3903
g73
(dp3904
g81
I4
ssg82
g3898
sg75
(lp3905
S'{{'
p3906
asbasbasbag68
(g84
g70
NtRp3907
(dp3908
g73
(dp3909
sg82
g3890
sg75
(lp3910
g68
(g89
g70
NtRp3911
(dp3912
g73
(dp3913
sg82
g3907
sg75
(lp3914
g68
(g69
g70
NtRp3915
(dp3916
g73
(dp3917
g81
I4
ssg82
g3911
sg75
(lp3918
S'}}'
p3919
asbasbasbasbasbasbasbag68
(g84
g70
NtRp3920
(dp3921
g73
(dp3922
sg82
g3635
sg75
(lp3923
g68
(g89
g70
NtRp3924
(dp3925
g73
(dp3926
g93
g94
ssg82
g3920
sg75
(lp3927
S'files'
p3928
asbag68
(g89
g70
NtRp3929
(dp3930
g73
(dp3931
g100
g101
ssg82
g3920
sg75
(lp3932
S':'
asbag68
(g89
g70
NtRp3933
(dp3934
g73
(dp3935
sg82
g3920
sg75
(lp3936
g68
(g69
g70
NtRp3937
(dp3938
g73
(dp3939
g81
I5
ssg82
g3933
sg75
(lp3940
g68
(g77
g70
NtRp3941
(dp3942
g73
(dp3943
g81
I4
ssg82
Nsg75
(lp3944
sbasbasbasbag68
(g84
g70
NtRp3945
(dp3946
g73
(dp3947
sg82
g3635
sg75
(lp3948
g68
(g89
g70
NtRp3949
(dp3950
g73
(dp3951
g93
g94
ssg82
g3945
sg75
(lp3952
S'flash'
p3953
asbag68
(g89
g70
NtRp3954
(dp3955
g73
(dp3956
g100
g101
ssg82
g3945
sg75
(lp3957
S':'
asbag68
(g89
g70
NtRp3958
(dp3959
g73
(dp3960
sg82
g3945
sg75
(lp3961
g68
(g69
g70
NtRp3962
(dp3963
g73
(dp3964
g81
I5
ssg82
g3958
sg75
(lp3965
S''
asbasbasbag68
(g84
g70
NtRp3966
(dp3967
g73
(dp3968
sg82
g3635
sg75
(lp3969
g68
(g89
g70
NtRp3970
(dp3971
g73
(dp3972
g93
g94
ssg82
g3966
sg75
(lp3973
S'generic_patterns'
p3974
asbag68
(g89
g70
NtRp3975
(dp3976
g73
(dp3977
g100
g101
ssg82
g3966
sg75
(lp3978
S':'
asbag68
(g89
g70
NtRp3979
(dp3980
g73
(dp3981
sg82
g3966
sg75
(lp3982
g68
(g69
g70
NtRp3983
(dp3984
g73
(dp3985
g81
I5
ssg82
g3979
sg75
(lp3986
g68
(g77
g70
NtRp3987
(dp3988
g73
(dp3989
g81
I4
ssg82
Nsg75
(lp3990
g68
(g84
g70
NtRp3991
(dp3992
g73
(dp3993
sg82
g3987
sg75
(lp3994
g68
(g89
g70
NtRp3995
(dp3996
g73
(dp3997
sg82
g3991
sg75
(lp3998
g68
(g69
g70
NtRp3999
(dp4000
g73
(dp4001
g81
I4
ssg82
g3995
sg75
(lp4002
S'*'
asbasbasbasbasbasbasbag68
(g84
g70
NtRp4003
(dp4004
g73
(dp4005
sg82
g3635
sg75
(lp4006
g68
(g89
g70
NtRp4007
(dp4008
g73
(dp4009
g93
g94
ssg82
g4003
sg75
(lp4010
S'google_analytics_id'
p4011
asbag68
(g89
g70
NtRp4012
(dp4013
g73
(dp4014
g100
g101
ssg82
g4003
sg75
(lp4015
S':'
asbag68
(g89
g70
NtRp4016
(dp4017
g73
(dp4018
sg82
g4003
sg75
(lp4019
g68
(g69
g70
NtRp4020
(dp4021
g73
(dp4022
g81
I5
ssg82
g4016
sg75
(lp4023
S'None'
p4024
asbasbasbag68
(g84
g70
NtRp4025
(dp4026
g73
(dp4027
sg82
g3635
sg75
(lp4028
g68
(g89
g70
NtRp4029
(dp4030
g73
(dp4031
g93
g94
ssg82
g4025
sg75
(lp4032
S'headers'
p4033
asbag68
(g89
g70
NtRp4034
(dp4035
g73
(dp4036
g100
g101
ssg82
g4025
sg75
(lp4037
S':'
asbag68
(g89
g70
NtRp4038
(dp4039
g73
(dp4040
sg82
g4025
sg75
(lp4041
g68
(g69
g70
NtRp4042
(dp4043
g73
(dp4044
g81
I5
ssg82
g4038
sg75
(lp4045
g68
(g77
g70
NtRp4046
(dp4047
g73
(dp4048
g81
I4
ssg82
Nsg75
(lp4049
g68
(g84
g70
NtRp4050
(dp4051
g73
(dp4052
sg82
g4046
sg75
(lp4053
g68
(g89
g70
NtRp4054
(dp4055
g73
(dp4056
g93
g94
ssg82
g4050
sg75
(lp4057
S'X-Powered-By'
p4058
asbag68
(g89
g70
NtRp4059
(dp4060
g73
(dp4061
g100
g101
ssg82
g4050
sg75
(lp4062
S':'
asbag68
(g89
g70
NtRp4063
(dp4064
g73
(dp4065
sg82
g4050
sg75
(lp4066
g68
(g69
g70
NtRp4067
(dp4068
g73
(dp4069
g81
I4
ssg82
g4063
sg75
(lp4070
S'web2py'
p4071
asbasbasbasbasbasbasbag68
(g84
g70
NtRp4072
(dp4073
g73
(dp4074
sg82
g3635
sg75
(lp4075
g68
(g89
g70
NtRp4076
(dp4077
g73
(dp4078
g93
g94
ssg82
g4072
sg75
(lp4079
S'logo'
p4080
asbag68
(g89
g70
NtRp4081
(dp4082
g73
(dp4083
g100
g101
ssg82
g4072
sg75
(lp4084
S':'
asbag68
(g89
g70
NtRp4085
(dp4086
g73
(dp4087
sg82
g4072
sg75
(lp4088
g68
(g69
g70
NtRp4089
(dp4090
g73
(dp4091
g81
I5
ssg82
g4085
sg75
(lp4092
g68
(cgluon.html
A
p4093
g70
NtRp4094
(dp4095
g73
(dp4096
S'_class'
p4097
S'brand'
p4098
sS'_href'
p4099
S'http://www.ningwai.net/'
p4100
ssg82
Nsg75
(lp4101
g68
(cgluon.html
B
p4102
g70
NtRp4103
(dp4104
g73
(dp4105
sg82
g4094
sg75
(lp4106
S'ningwai'
p4107
asbacgluon.html
XML_unpickle
p4108
(S's\r\x00\x00\x00&trade;&nbsp;'
tRp4109
asbasbasbasbag68
(g84
g70
NtRp4110
(dp4111
g73
(dp4112
sg82
g3635
sg75
(lp4113
g68
(g89
g70
NtRp4114
(dp4115
g73
(dp4116
g93
g94
ssg82
g4110
sg75
(lp4117
S'menu'
p4118
asbag68
(g89
g70
NtRp4119
(dp4120
g73
(dp4121
g100
g101
ssg82
g4110
sg75
(lp4122
S':'
asbag68
(g89
g70
NtRp4123
(dp4124
g73
(dp4125
sg82
g4110
sg75
(lp4126
g68
(g69
g70
NtRp4127
(dp4128
g73
(dp4129
g81
I5
ssg82
g4123
sg75
(lp4130
g68
(g77
g70
NtRp4131
(dp4132
g73
(dp4133
g81
I4
ssg82
Nsg75
(lp4134
g68
(g84
g70
NtRp4135
(dp4136
g73
(dp4137
sg82
g4131
sg75
(lp4138
g68
(g89
g70
NtRp4139
(dp4140
g73
(dp4141
sg82
g4135
sg75
(lp4142
g68
(g69
g70
NtRp4143
(dp4144
g73
(dp4145
g81
I4
ssg82
g4139
sg75
(lp4146
g68
(g77
g70
NtRp4147
(dp4148
g73
(dp4149
g81
I3
ssg82
Nsg75
(lp4150
g68
(g84
g70
NtRp4151
(dp4152
g73
(dp4153
sg82
g4147
sg75
(lp4154
g68
(g89
g70
NtRp4155
(dp4156
g73
(dp4157
sg82
g4151
sg75
(lp4158
g68
(g69
g70
NtRp4159
(dp4160
g73
(dp4161
g81
I3
ssg82
g4155
sg75
(lp4162
cgluon.languages
lazyT_unpickle
p4163
(S's\x04\x00\x00\x00Home'
tRp4164
asbasbasbag68
(g84
g70
NtRp4165
(dp4166
g73
(dp4167
sg82
g4147
sg75
(lp4168
g68
(g89
g70
NtRp4169
(dp4170
g73
(dp4171
sg82
g4165
sg75
(lp4172
g68
(g69
g70
NtRp4173
(dp4174
g73
(dp4175
g81
I3
ssg82
g4169
sg75
(lp4176
g111
asbasbasbag68
(g84
g70
NtRp4177
(dp4178
g73
(dp4179
sg82
g4147
sg75
(lp4180
g68
(g89
g70
NtRp4181
(dp4182
g73
(dp4183
sg82
g4177
sg75
(lp4184
g68
(g69
g70
NtRp4185
(dp4186
g73
(dp4187
g81
I3
ssg82
g4181
sg75
(lp4188
S'/hw4/default/index'
p4189
asbasbasbag68
(g84
g70
NtRp4190
(dp4191
g73
(dp4192
sg82
g4147
sg75
(lp4193
g68
(g89
g70
NtRp4194
(dp4195
g73
(dp4196
sg82
g4190
sg75
(lp4197
g68
(g69
g70
NtRp4198
(dp4199
g73
(dp4200
g81
I3
ssg82
g4194
sg75
(lp4201
g68
(g77
g70
NtRp4202
(dp4203
g73
(dp4204
g81
I2
ssg82
Nsg75
(lp4205
sbasbasbasbasbasbasbasbasbasbasbasbag68
(g84
g70
NtRp4206
(dp4207
g73
(dp4208
sg82
g3635
sg75
(lp4209
g68
(g89
g70
NtRp4210
(dp4211
g73
(dp4212
g93
g94
ssg82
g4206
sg75
(lp4213
S'meta'
p4214
asbag68
(g89
g70
NtRp4215
(dp4216
g73
(dp4217
g100
g101
ssg82
g4206
sg75
(lp4218
S':'
asbag68
(g89
g70
NtRp4219
(dp4220
g73
(dp4221
sg82
g4206
sg75
(lp4222
g68
(g69
g70
NtRp4223
(dp4224
g73
(dp4225
g81
I5
ssg82
g4219
sg75
(lp4226
g68
(g77
g70
NtRp4227
(dp4228
g73
(dp4229
g81
I4
ssg82
Nsg75
(lp4230
g68
(g84
g70
NtRp4231
(dp4232
g73
(dp4233
sg82
g4227
sg75
(lp4234
g68
(g89
g70
NtRp4235
(dp4236
g73
(dp4237
g93
g94
ssg82
g4231
sg75
(lp4238
S'author'
p4239
asbag68
(g89
g70
NtRp4240
(dp4241
g73
(dp4242
g100
g101
ssg82
g4231
sg75
(lp4243
S':'
asbag68
(g89
g70
NtRp4244
(dp4245
g73
(dp4246
sg82
g4231
sg75
(lp4247
g68
(g69
g70
NtRp4248
(dp4249
g73
(dp4250
g81
I4
ssg82
g4244
sg75
(lp4251
S''
asbasbasbag68
(g84
g70
NtRp4252
(dp4253
g73
(dp4254
sg82
g4227
sg75
(lp4255
g68
(g89
g70
NtRp4256
(dp4257
g73
(dp4258
g93
g94
ssg82
g4252
sg75
(lp4259
S'description'
p4260
asbag68
(g89
g70
NtRp4261
(dp4262
g73
(dp4263
g100
g101
ssg82
g4252
sg75
(lp4264
S':'
asbag68
(g89
g70
NtRp4265
(dp4266
g73
(dp4267
sg82
g4252
sg75
(lp4268
g68
(g69
g70
NtRp4269
(dp4270
g73
(dp4271
g81
I4
ssg82
g4265
sg75
(lp4272
S''
asbasbasbag68
(g84
g70
NtRp4273
(dp4274
g73
(dp4275
sg82
g4227
sg75
(lp4276
g68
(g89
g70
NtRp4277
(dp4278
g73
(dp4279
g93
g94
ssg82
g4273
sg75
(lp4280
S'generator'
p4281
asbag68
(g89
g70
NtRp4282
(dp4283
g73
(dp4284
g100
g101
ssg82
g4273
sg75
(lp4285
S':'
asbag68
(g89
g70
NtRp4286
(dp4287
g73
(dp4288
sg82
g4273
sg75
(lp4289
g68
(g69
g70
NtRp4290
(dp4291
g73
(dp4292
g81
I4
ssg82
g4286
sg75
(lp4293
S''
asbasbasbag68
(g84
g70
NtRp4294
(dp4295
g73
(dp4296
sg82
g4227
sg75
(lp4297
g68
(g89
g70
NtRp4298
(dp4299
g73
(dp4300
g93
g94
ssg82
g4294
sg75
(lp4301
S'keywords'
p4302
asbag68
(g89
g70
NtRp4303
(dp4304
g73
(dp4305
g100
g101
ssg82
g4294
sg75
(lp4306
S':'
asbag68
(g89
g70
NtRp4307
(dp4308
g73
(dp4309
sg82
g4294
sg75
(lp4310
g68
(g69
g70
NtRp4311
(dp4312
g73
(dp4313
g81
I4
ssg82
g4307
sg75
(lp4314
S''
asbasbasbasbasbasbasbag68
(g84
g70
NtRp4315
(dp4316
g73
(dp4317
sg82
g3635
sg75
(lp4318
g68
(g89
g70
NtRp4319
(dp4320
g73
(dp4321
g93
g94
ssg82
g4315
sg75
(lp4322
S'models_to_run'
p4323
asbag68
(g89
g70
NtRp4324
(dp4325
g73
(dp4326
g100
g101
ssg82
g4315
sg75
(lp4327
S':'
asbag68
(g89
g70
NtRp4328
(dp4329
g73
(dp4330
sg82
g4315
sg75
(lp4331
g68
(g69
g70
NtRp4332
(dp4333
g73
(dp4334
g81
I5
ssg82
g4328
sg75
(lp4335
g68
(g77
g70
NtRp4336
(dp4337
g73
(dp4338
g81
I4
ssg82
Nsg75
(lp4339
g68
(g84
g70
NtRp4340
(dp4341
g73
(dp4342
sg82
g4336
sg75
(lp4343
g68
(g89
g70
NtRp4344
(dp4345
g73
(dp4346
sg82
g4340
sg75
(lp4347
g68
(g69
g70
NtRp4348
(dp4349
g73
(dp4350
g81
I4
ssg82
g4344
sg75
(lp4351
S'^\\w+\\.py$'
p4352
asbasbasbag68
(g84
g70
NtRp4353
(dp4354
g73
(dp4355
sg82
g4336
sg75
(lp4356
g68
(g89
g70
NtRp4357
(dp4358
g73
(dp4359
sg82
g4353
sg75
(lp4360
g68
(g69
g70
NtRp4361
(dp4362
g73
(dp4363
g81
I4
ssg82
g4357
sg75
(lp4364
S'^default/\\w+\\.py$'
p4365
asbasbasbag68
(g84
g70
NtRp4366
(dp4367
g73
(dp4368
sg82
g4336
sg75
(lp4369
g68
(g89
g70
NtRp4370
(dp4371
g73
(dp4372
sg82
g4366
sg75
(lp4373
g68
(g69
g70
NtRp4374
(dp4375
g73
(dp4376
g81
I4
ssg82
g4370
sg75
(lp4377
S'^default/defen/\\w+\\.py$'
p4378
asbasbasbasbasbasbasbag68
(g84
g70
NtRp4379
(dp4380
g73
(dp4381
sg82
g3635
sg75
(lp4382
g68
(g89
g70
NtRp4383
(dp4384
g73
(dp4385
g93
g94
ssg82
g4379
sg75
(lp4386
S'postprocessing'
p4387
asbag68
(g89
g70
NtRp4388
(dp4389
g73
(dp4390
g100
g101
ssg82
g4379
sg75
(lp4391
S':'
asbag68
(g89
g70
NtRp4392
(dp4393
g73
(dp4394
sg82
g4379
sg75
(lp4395
g68
(g69
g70
NtRp4396
(dp4397
g73
(dp4398
g81
I5
ssg82
g4392
sg75
(lp4399
g68
(g77
g70
NtRp4400
(dp4401
g73
(dp4402
g81
I4
ssg82
Nsg75
(lp4403
sbasbasbasbag68
(g84
g70
NtRp4404
(dp4405
g73
(dp4406
sg82
g3635
sg75
(lp4407
g68
(g89
g70
NtRp4408
(dp4409
g73
(dp4410
g93
g94
ssg82
g4404
sg75
(lp4411
S'session_cookie_expires'
p4412
asbag68
(g89
g70
NtRp4413
(dp4414
g73
(dp4415
g100
g101
ssg82
g4404
sg75
(lp4416
S':'
asbag68
(g89
g70
NtRp4417
(dp4418
g73
(dp4419
sg82
g4404
sg75
(lp4420
g68
(g69
g70
NtRp4421
(dp4422
g73
(dp4423
g81
I5
ssg82
g4417
sg75
(lp4424
S'None'
p4425
asbasbasbag68
(g84
g70
NtRp4426
(dp4427
g73
(dp4428
sg82
g3635
sg75
(lp4429
g68
(g89
g70
NtRp4430
(dp4431
g73
(dp4432
g93
g94
ssg82
g4426
sg75
(lp4433
S'session_data_name'
p4434
asbag68
(g89
g70
NtRp4435
(dp4436
g73
(dp4437
g100
g101
ssg82
g4426
sg75
(lp4438
S':'
asbag68
(g89
g70
NtRp4439
(dp4440
g73
(dp4441
sg82
g4426
sg75
(lp4442
g68
(g69
g70
NtRp4443
(dp4444
g73
(dp4445
g81
I5
ssg82
g4439
sg75
(lp4446
S'session_data_hw4'
p4447
asbasbasbag68
(g84
g70
NtRp4448
(dp4449
g73
(dp4450
sg82
g3635
sg75
(lp4451
g68
(g89
g70
NtRp4452
(dp4453
g73
(dp4454
g93
g94
ssg82
g4448
sg75
(lp4455
S'session_file'
p4456
asbag68
(g89
g70
NtRp4457
(dp4458
g73
(dp4459
g100
g101
ssg82
g4448
sg75
(lp4460
S':'
asbag68
(g89
g70
NtRp4461
(dp4462
g73
(dp4463
sg82
g4448
sg75
(lp4464
g68
(g69
g70
NtRp4465
(dp4466
g73
(dp4467
g81
I5
ssg82
g4461
sg75
(lp4468
S"<open file 'C:\\Python27\\web2py\\applications\\hw4\\sessions\\127.0.0.1-d139063e-685d-42e3-b113-7f8d2e110a66', mode 'rb+' at 0x05CB81D8>"
p4469
asbasbasbag68
(g84
g70
NtRp4470
(dp4471
g73
(dp4472
sg82
g3635
sg75
(lp4473
g68
(g89
g70
NtRp4474
(dp4475
g73
(dp4476
g93
g94
ssg82
g4470
sg75
(lp4477
S'session_filename'
p4478
asbag68
(g89
g70
NtRp4479
(dp4480
g73
(dp4481
g100
g101
ssg82
g4470
sg75
(lp4482
S':'
asbag68
(g89
g70
NtRp4483
(dp4484
g73
(dp4485
sg82
g4470
sg75
(lp4486
g68
(g69
g70
NtRp4487
(dp4488
g73
(dp4489
g81
I5
ssg82
g4483
sg75
(lp4490
S'C:\\Python27\\web2py\\applications\\hw4\\sessions\\127.0.0.1-d139063e-685d-42e3-b113-7f8d2e110a66'
p4491
asbasbasbag68
(g84
g70
NtRp4492
(dp4493
g73
(dp4494
sg82
g3635
sg75
(lp4495
g68
(g89
g70
NtRp4496
(dp4497
g73
(dp4498
g93
g94
ssg82
g4492
sg75
(lp4499
S'session_id'
p4500
asbag68
(g89
g70
NtRp4501
(dp4502
g73
(dp4503
g100
g101
ssg82
g4492
sg75
(lp4504
S':'
asbag68
(g89
g70
NtRp4505
(dp4506
g73
(dp4507
sg82
g4492
sg75
(lp4508
g68
(g69
g70
NtRp4509
(dp4510
g73
(dp4511
g81
I5
ssg82
g4505
sg75
(lp4512
g498
asbasbasbag68
(g84
g70
NtRp4513
(dp4514
g73
(dp4515
sg82
g3635
sg75
(lp4516
g68
(g89
g70
NtRp4517
(dp4518
g73
(dp4519
g93
g94
ssg82
g4513
sg75
(lp4520
S'session_id_name'
p4521
asbag68
(g89
g70
NtRp4522
(dp4523
g73
(dp4524
g100
g101
ssg82
g4513
sg75
(lp4525
S':'
asbag68
(g89
g70
NtRp4526
(dp4527
g73
(dp4528
sg82
g4513
sg75
(lp4529
g68
(g69
g70
NtRp4530
(dp4531
g73
(dp4532
g81
I5
ssg82
g4526
sg75
(lp4533
g3692
asbasbasbag68
(g84
g70
NtRp4534
(dp4535
g73
(dp4536
sg82
g3635
sg75
(lp4537
g68
(g89
g70
NtRp4538
(dp4539
g73
(dp4540
g93
g94
ssg82
g4534
sg75
(lp4541
S'session_locked'
p4542
asbag68
(g89
g70
NtRp4543
(dp4544
g73
(dp4545
g100
g101
ssg82
g4534
sg75
(lp4546
S':'
asbag68
(g89
g70
NtRp4547
(dp4548
g73
(dp4549
sg82
g4534
sg75
(lp4550
g68
(g69
g70
NtRp4551
(dp4552
g73
(dp4553
g81
I5
ssg82
g4547
sg75
(lp4554
g1649
asbasbasbag68
(g84
g70
NtRp4555
(dp4556
g73
(dp4557
sg82
g3635
sg75
(lp4558
g68
(g89
g70
NtRp4559
(dp4560
g73
(dp4561
g93
g94
ssg82
g4555
sg75
(lp4562
S'session_new'
p4563
asbag68
(g89
g70
NtRp4564
(dp4565
g73
(dp4566
g100
g101
ssg82
g4555
sg75
(lp4567
S':'
asbag68
(g89
g70
NtRp4568
(dp4569
g73
(dp4570
sg82
g4555
sg75
(lp4571
g68
(g69
g70
NtRp4572
(dp4573
g73
(dp4574
g81
I5
ssg82
g4568
sg75
(lp4575
g111
asbasbasbag68
(g84
g70
NtRp4576
(dp4577
g73
(dp4578
sg82
g3635
sg75
(lp4579
g68
(g89
g70
NtRp4580
(dp4581
g73
(dp4582
g93
g94
ssg82
g4576
sg75
(lp4583
S'session_storage_type'
p4584
asbag68
(g89
g70
NtRp4585
(dp4586
g73
(dp4587
g100
g101
ssg82
g4576
sg75
(lp4588
S':'
asbag68
(g89
g70
NtRp4589
(dp4590
g73
(dp4591
sg82
g4576
sg75
(lp4592
g68
(g69
g70
NtRp4593
(dp4594
g73
(dp4595
g81
I5
ssg82
g4589
sg75
(lp4596
g3122
asbasbasbag68
(g84
g70
NtRp4597
(dp4598
g73
(dp4599
sg82
g3635
sg75
(lp4600
g68
(g89
g70
NtRp4601
(dp4602
g73
(dp4603
g93
g94
ssg82
g4597
sg75
(lp4604
S'status'
p4605
asbag68
(g89
g70
NtRp4606
(dp4607
g73
(dp4608
g100
g101
ssg82
g4597
sg75
(lp4609
S':'
asbag68
(g89
g70
NtRp4610
(dp4611
g73
(dp4612
sg82
g4597
sg75
(lp4613
g68
(g69
g70
NtRp4614
(dp4615
g73
(dp4616
g81
I5
ssg82
g4610
sg75
(lp4617
S'200'
p4618
asbasbasbag68
(g84
g70
NtRp4619
(dp4620
g73
(dp4621
sg82
g3635
sg75
(lp4622
g68
(g89
g70
NtRp4623
(dp4624
g73
(dp4625
g93
g94
ssg82
g4619
sg75
(lp4626
S'subtitle'
p4627
asbag68
(g89
g70
NtRp4628
(dp4629
g73
(dp4630
g100
g101
ssg82
g4619
sg75
(lp4631
S':'
asbag68
(g89
g70
NtRp4632
(dp4633
g73
(dp4634
sg82
g4619
sg75
(lp4635
g68
(g69
g70
NtRp4636
(dp4637
g73
(dp4638
g81
I5
ssg82
g4632
sg75
(lp4639
g4163
(S't\x00\x00\x00\x00'
tRp4640
asbasbasbag68
(g84
g70
NtRp4641
(dp4642
g73
(dp4643
sg82
g3635
sg75
(lp4644
g68
(g89
g70
NtRp4645
(dp4646
g73
(dp4647
g93
g94
ssg82
g4641
sg75
(lp4648
S'title'
p4649
asbag68
(g89
g70
NtRp4650
(dp4651
g73
(dp4652
g100
g101
ssg82
g4641
sg75
(lp4653
S':'
asbag68
(g89
g70
NtRp4654
(dp4655
g73
(dp4656
sg82
g4641
sg75
(lp4657
g68
(g69
g70
NtRp4658
(dp4659
g73
(dp4660
g81
I5
ssg82
g4654
sg75
(lp4661
S'\xe5\xae\x81\xe6\xb3\xa2\xe5\xa4\x96\xe5\x9b\xbd\xe8\xaf\xad\xe5\xad\xa6\xe6\xa0\xa1\xe4\xbf\xa1\xe6\x81\xaf\xe6\x8a\x80\xe6\x9c\xaf\xe8\xaf\xbe'
p4662
asbasbasbag68
(g84
g70
NtRp4663
(dp4664
g73
(dp4665
sg82
g3635
sg75
(lp4666
g68
(g89
g70
NtRp4667
(dp4668
g73
(dp4669
g93
g94
ssg82
g4663
sg75
(lp4670
S'view'
p4671
asbag68
(g89
g70
NtRp4672
(dp4673
g73
(dp4674
g100
g101
ssg82
g4663
sg75
(lp4675
S':'
asbag68
(g89
g70
NtRp4676
(dp4677
g73
(dp4678
sg82
g4663
sg75
(lp4679
g68
(g69
g70
NtRp4680
(dp4681
g73
(dp4682
g81
I5
ssg82
g4676
sg75
(lp4683
S'default/defen.html'
p4684
asbasbasbasbasbsS'locals'
p4685
(dp4686
g4
S"r'C:\\Python27\\web2py\\applications\\hw4\\views\\default/defen.html'"
p4687
sg6
S'r"response.write(\'<!DOCTYPE html>\\n<!-- paulirish....ipt>\\n  -->\\n</body>\\n</html>\\n\\n\', escape=False)"'
p4688
sssS'traceback'
p4689
S'Traceback (most recent call last):\n  File "C:\\Python27\\web2py\\gluon\\restricted.py", line 211, in restricted\n    ccode = compile2(code, layer)\n  File "C:\\Python27\\web2py\\gluon\\restricted.py", line 194, in compile2\n    return compile(code.rstrip().replace(\'\\r\\n\', \'\\n\') + \'\\n\', layer, \'exec\')\n  File "C:\\Python27\\web2py\\applications\\hw4\\views\\default/defen.html", line 83\n    response.write(\'\\r\\n<br>\\r\\n\\xe5\\xbe\\x97\\xe5\\x88\\x86:\', escape=False)\n           ^\nSyntaxError: invalid syntax\n'
p4690
s.